TN:
SF:/home/alf/OpenMagnetics/MKF/build_coverage/MAS/MAS.hpp
FN:1000,1000,_ZN3MAS21ForwardOperatingPoint19set_output_voltagesERKSt6vectorIdSaIdEE
FN:10010,10023,_ZN3MAS7to_jsonERN8nlohmann16json_abi_v3_11_310basic_jsonISt3mapSt6vectorNSt7__cxx1112basic_stringIcSt11char_traitsIcESaIcEEEblmdSaNS1_14adl_serializerES4_IhSaIhEEvEERKNS_35MagneticManufacturerRecommendationsE
FN:10025,10035,_ZN3MAS9from_jsonERKN8nlohmann16json_abi_v3_11_310basic_jsonISt3mapSt6vectorNSt7__cxx1112basic_stringIcSt11char_traitsIcESaIcEEEblmdSaNS1_14adl_serializerES4_IhSaIhEEvEERNS_24MagneticManufacturerInfoE
FN:10037,10048,_ZN3MAS7to_jsonERN8nlohmann16json_abi_v3_11_310basic_jsonISt3mapSt6vectorNSt7__cxx1112basic_stringIcSt11char_traitsIcESaIcEEEblmdSaNS1_14adl_serializerES4_IhSaIhEEvEERKNS_24MagneticManufacturerInfoE
FN:1005,1005,_ZNK3MAS21ForwardOperatingPoint23get_switching_frequencyEv
FN:10050,10056,_ZN3MAS9from_jsonERKN8nlohmann16json_abi_v3_11_310basic_jsonISt3mapSt6vectorNSt7__cxx1112basic_stringIcSt11char_traitsIcESaIcEEEblmdSaNS1_14adl_serializerES4_IhSaIhEEvEERNS_8MagneticE
FN:10067,10077,_ZN3MAS9from_jsonERKN8nlohmann16json_abi_v3_11_310basic_jsonISt3mapSt6vectorNSt7__cxx1112basic_stringIcSt11char_traitsIcESaIcEEEblmdSaNS1_14adl_serializerES4_IhSaIhEEvEERNS_16CoreLossesOutputE
FN:1007,1007,_ZN3MAS21ForwardOperatingPoint23set_switching_frequencyERKd
FN:10079,10090,_ZN3MAS7to_jsonERN8nlohmann16json_abi_v3_11_310basic_jsonISt3mapSt6vectorNSt7__cxx1112basic_stringIcSt11char_traitsIcESaIcEEEblmdSaNS1_14adl_serializerES4_IhSaIhEEvEERKNS_16CoreLossesOutputE
FN:10092,10096,_ZN3MAS9from_jsonERKN8nlohmann16json_abi_v3_11_310basic_jsonISt3mapSt6vectorNSt7__cxx1112basic_stringIcSt11char_traitsIcESaIcEEEblmdSaNS1_14adl_serializerES4_IhSaIhEEvEERNS_24ComplexMatrixAtFrequencyE
FN:10098,10103,_ZN3MAS7to_jsonERN8nlohmann16json_abi_v3_11_310basic_jsonISt3mapSt6vectorNSt7__cxx1112basic_stringIcSt11char_traitsIcESaIcEEEblmdSaNS1_14adl_serializerES4_IhSaIhEEvEERKNS_24ComplexMatrixAtFrequencyE
FN:101,101,_ZN3MAS20ValueTooLowExceptionC2ERKNSt7__cxx1112basic_stringIcSt11char_traitsIcESaIcEEE
FN:10105,10108,_ZN3MAS9from_jsonERKN8nlohmann16json_abi_v3_11_310basic_jsonISt3mapSt6vectorNSt7__cxx1112basic_stringIcSt11char_traitsIcESaIcEEEblmdSaNS1_14adl_serializerES4_IhSaIhEEvEERNS_23ScalarMatrixAtFrequencyE
FN:10110,10114,_ZN3MAS7to_jsonERN8nlohmann16json_abi_v3_11_310basic_jsonISt3mapSt6vectorNSt7__cxx1112basic_stringIcSt11char_traitsIcESaIcEEEblmdSaNS1_14adl_serializerES4_IhSaIhEEvEERKNS_23ScalarMatrixAtFrequencyE
FN:10116,10122,_ZN3MAS9from_jsonERKN8nlohmann16json_abi_v3_11_310basic_jsonISt3mapSt6vectorNSt7__cxx1112basic_stringIcSt11char_traitsIcESaIcEEEblmdSaNS1_14adl_serializerES4_IhSaIhEEvEERNS_15ImpedanceOutputE
FN:10124,10131,_ZN3MAS7to_jsonERN8nlohmann16json_abi_v3_11_310basic_jsonISt3mapSt6vectorNSt7__cxx1112basic_stringIcSt11char_traitsIcESaIcEEEblmdSaNS1_14adl_serializerES4_IhSaIhEEvEERKNS_15ImpedanceOutputE
FN:10133,10137,_ZN3MAS9from_jsonERKN8nlohmann16json_abi_v3_11_310basic_jsonISt3mapSt6vectorNSt7__cxx1112basic_stringIcSt11char_traitsIcESaIcEEEblmdSaNS1_14adl_serializerES4_IhSaIhEEvEERNS_23LeakageInductanceOutputE
FN:10139,10144,_ZN3MAS7to_jsonERN8nlohmann16json_abi_v3_11_310basic_jsonISt3mapSt6vectorNSt7__cxx1112basic_stringIcSt11char_traitsIcESaIcEEEblmdSaNS1_14adl_serializerES4_IhSaIhEEvEERKNS_23LeakageInductanceOutputE
FN:10146,10152,_ZN3MAS9from_jsonERKN8nlohmann16json_abi_v3_11_310basic_jsonISt3mapSt6vectorNSt7__cxx1112basic_stringIcSt11char_traitsIcESaIcEEEblmdSaNS1_14adl_serializerES4_IhSaIhEEvEERNS_22AirGapReluctanceOutputE
FN:1015,1015,_ZN3MAS7ForwardC2Ev
FN:10154,10161,_ZN3MAS7to_jsonERN8nlohmann16json_abi_v3_11_310basic_jsonISt3mapSt6vectorNSt7__cxx1112basic_stringIcSt11char_traitsIcESaIcEEEblmdSaNS1_14adl_serializerES4_IhSaIhEEvEERKNS_22AirGapReluctanceOutputE
FN:1016,1016,_ZN3MAS7ForwardD0Ev
FN:1016,1016,_ZN3MAS7ForwardD2Ev
FN:10163,10174,_ZN3MAS9from_jsonERKN8nlohmann16json_abi_v3_11_310basic_jsonISt3mapSt6vectorNSt7__cxx1112basic_stringIcSt11char_traitsIcESaIcEEEblmdSaNS1_14adl_serializerES4_IhSaIhEEvEERNS_27MagnetizingInductanceOutputE
FN:10176,10188,_ZN3MAS7to_jsonERN8nlohmann16json_abi_v3_11_310basic_jsonISt3mapSt6vectorNSt7__cxx1112basic_stringIcSt11char_traitsIcESaIcEEEblmdSaNS1_14adl_serializerES4_IhSaIhEEvEERKNS_27MagnetizingInductanceOutputE
FN:10190,10195,_ZN3MAS9from_jsonERKN8nlohmann16json_abi_v3_11_310basic_jsonISt3mapSt6vectorNSt7__cxx1112basic_stringIcSt11char_traitsIcESaIcEEEblmdSaNS1_14adl_serializerES4_IhSaIhEEvEERNS_16InductanceOutputE
FN:10197,10203,_ZN3MAS7to_jsonERN8nlohmann16json_abi_v3_11_310basic_jsonISt3mapSt6vectorNSt7__cxx1112basic_stringIcSt11char_traitsIcESaIcEEEblmdSaNS1_14adl_serializerES4_IhSaIhEEvEERKNS_16InductanceOutputE
FN:10205,10211,_ZN3MAS9from_jsonERKN8nlohmann16json_abi_v3_11_310basic_jsonISt3mapSt6vectorNSt7__cxx1112basic_stringIcSt11char_traitsIcESaIcEEEblmdSaNS1_14adl_serializerES4_IhSaIhEEvEERNS_17DielectricVoltageE
FN:10213,10220,_ZN3MAS7to_jsonERN8nlohmann16json_abi_v3_11_310basic_jsonISt3mapSt6vectorNSt7__cxx1112basic_stringIcSt11char_traitsIcESaIcEEEblmdSaNS1_14adl_serializerES4_IhSaIhEEvEERKNS_17DielectricVoltageE
FN:10222,10229,_ZN3MAS9from_jsonERKN8nlohmann16json_abi_v3_11_310basic_jsonISt3mapSt6vectorNSt7__cxx1112basic_stringIcSt11char_traitsIcESaIcEEEblmdSaNS1_14adl_serializerES4_IhSaIhEEvEERNS_28InsulationCoordinationOutputE
FN:10231,10239,_ZN3MAS7to_jsonERN8nlohmann16json_abi_v3_11_310basic_jsonISt3mapSt6vectorNSt7__cxx1112basic_stringIcSt11char_traitsIcESaIcEEEblmdSaNS1_14adl_serializerES4_IhSaIhEEvEERKNS_28InsulationCoordinationOutputE
FN:10241,10248,_ZN3MAS9from_jsonERKN8nlohmann16json_abi_v3_11_310basic_jsonISt3mapSt6vectorNSt7__cxx1112basic_stringIcSt11char_traitsIcESaIcEEEblmdSaNS1_14adl_serializerES4_IhSaIhEEvEERNS_29SixCapacitorNetworkPerWindingE
FN:10250,10258,_ZN3MAS7to_jsonERN8nlohmann16json_abi_v3_11_310basic_jsonISt3mapSt6vectorNSt7__cxx1112basic_stringIcSt11char_traitsIcESaIcEEEblmdSaNS1_14adl_serializerES4_IhSaIhEEvEERKNS_29SixCapacitorNetworkPerWindingE
FN:10260,10264,_ZN3MAS9from_jsonERKN8nlohmann16json_abi_v3_11_310basic_jsonISt3mapSt6vectorNSt7__cxx1112basic_stringIcSt11char_traitsIcESaIcEEEblmdSaNS1_14adl_serializerES4_IhSaIhEEvEERNS_28TripoleCapacitancePerWindingE
FN:10266,10271,_ZN3MAS7to_jsonERN8nlohmann16json_abi_v3_11_310basic_jsonISt3mapSt6vectorNSt7__cxx1112basic_stringIcSt11char_traitsIcESaIcEEEblmdSaNS1_14adl_serializerES4_IhSaIhEEvEERKNS_28TripoleCapacitancePerWindingE
FN:10273,10287,_ZN3MAS9from_jsonERKN8nlohmann16json_abi_v3_11_310basic_jsonISt3mapSt6vectorNSt7__cxx1112basic_stringIcSt11char_traitsIcESaIcEEEblmdSaNS1_14adl_serializerES4_IhSaIhEEvEERNS_22StrayCapacitanceOutputE
FN:10289,10304,_ZN3MAS7to_jsonERN8nlohmann16json_abi_v3_11_310basic_jsonISt3mapSt6vectorNSt7__cxx1112basic_stringIcSt11char_traitsIcESaIcEEEblmdSaNS1_14adl_serializerES4_IhSaIhEEvEERKNS_22StrayCapacitanceOutputE
FN:10306,10309,_ZN3MAS9from_jsonERKN8nlohmann16json_abi_v3_11_310basic_jsonISt3mapSt6vectorNSt7__cxx1112basic_stringIcSt11char_traitsIcESaIcEEEblmdSaNS1_14adl_serializerES4_IhSaIhEEvEERNS_16TemperaturePointE
FN:1031,1031,_ZNK3MAS7Forward24get_current_ripple_ratioEv
FN:10311,10315,_ZN3MAS7to_jsonERN8nlohmann16json_abi_v3_11_310basic_jsonISt3mapSt6vectorNSt7__cxx1112basic_stringIcSt11char_traitsIcESaIcEEEblmdSaNS1_14adl_serializerES4_IhSaIhEEvEERKNS_16TemperaturePointE
FN:10317,10324,_ZN3MAS9from_jsonERKN8nlohmann16json_abi_v3_11_310basic_jsonISt3mapSt6vectorNSt7__cxx1112basic_stringIcSt11char_traitsIcESaIcEEEblmdSaNS1_14adl_serializerES4_IhSaIhEEvEERNS_17TemperatureOutputE
FN:10326,10334,_ZN3MAS7to_jsonERN8nlohmann16json_abi_v3_11_310basic_jsonISt3mapSt6vectorNSt7__cxx1112basic_stringIcSt11char_traitsIcESaIcEEEblmdSaNS1_14adl_serializerES4_IhSaIhEEvEERKNS_17TemperatureOutputE
FN:1033,1033,_ZN3MAS7Forward24set_current_ripple_ratioERKd
FN:10336,10340,_ZN3MAS9from_jsonERKN8nlohmann16json_abi_v3_11_310basic_jsonISt3mapSt6vectorNSt7__cxx1112basic_stringIcSt11char_traitsIcESaIcEEEblmdSaNS1_14adl_serializerES4_IhSaIhEEvEERNS_11OhmicLossesE
FN:10342,10347,_ZN3MAS7to_jsonERN8nlohmann16json_abi_v3_11_310basic_jsonISt3mapSt6vectorNSt7__cxx1112basic_stringIcSt11char_traitsIcESaIcEEEblmdSaNS1_14adl_serializerES4_IhSaIhEEvEERKNS_11OhmicLossesE
FN:10349,10354,_ZN3MAS9from_jsonERKN8nlohmann16json_abi_v3_11_310basic_jsonISt3mapSt6vectorNSt7__cxx1112basic_stringIcSt11char_traitsIcESaIcEEEblmdSaNS1_14adl_serializerES4_IhSaIhEEvEERNS_18WindingLossElementE
FN:10356,10362,_ZN3MAS7to_jsonERN8nlohmann16json_abi_v3_11_310basic_jsonISt3mapSt6vectorNSt7__cxx1112basic_stringIcSt11char_traitsIcESaIcEEEblmdSaNS1_14adl_serializerES4_IhSaIhEEvEERKNS_18WindingLossElementE
FN:10364,10369,_ZN3MAS9from_jsonERKN8nlohmann16json_abi_v3_11_310basic_jsonISt3mapSt6vectorNSt7__cxx1112basic_stringIcSt11char_traitsIcESaIcEEEblmdSaNS1_14adl_serializerES4_IhSaIhEEvEERNS_23WindingLossesPerElementE
FN:10371,10377,_ZN3MAS7to_jsonERN8nlohmann16json_abi_v3_11_310basic_jsonISt3mapSt6vectorNSt7__cxx1112basic_stringIcSt11char_traitsIcESaIcEEEblmdSaNS1_14adl_serializerES4_IhSaIhEEvEERKNS_23WindingLossesPerElementE
FN:10379,10393,_ZN3MAS9from_jsonERKN8nlohmann16json_abi_v3_11_310basic_jsonISt3mapSt6vectorNSt7__cxx1112basic_stringIcSt11char_traitsIcESaIcEEEblmdSaNS1_14adl_serializerES4_IhSaIhEEvEERNS_19WindingLossesOutputE
FN:1038,1038,_ZNK3MAS7Forward22get_diode_voltage_dropEv
FN:10395,10410,_ZN3MAS7to_jsonERN8nlohmann16json_abi_v3_11_310basic_jsonISt3mapSt6vectorNSt7__cxx1112basic_stringIcSt11char_traitsIcESaIcEEEblmdSaNS1_14adl_serializerES4_IhSaIhEEvEERKNS_19WindingLossesOutputE
FN:1040,1040,_ZN3MAS7Forward22set_diode_voltage_dropERKd
FN:10412,10419,_ZN3MAS9from_jsonERKN8nlohmann16json_abi_v3_11_310basic_jsonISt3mapSt6vectorNSt7__cxx1112basic_stringIcSt11char_traitsIcESaIcEEEblmdSaNS1_14adl_serializerES4_IhSaIhEEvEERNS_10FieldPointE
FN:10421,10429,_ZN3MAS7to_jsonERN8nlohmann16json_abi_v3_11_310basic_jsonISt3mapSt6vectorNSt7__cxx1112basic_stringIcSt11char_traitsIcESaIcEEEblmdSaNS1_14adl_serializerES4_IhSaIhEEvEERKNS_10FieldPointE
FN:10431,10434,_ZN3MAS9from_jsonERKN8nlohmann16json_abi_v3_11_310basic_jsonISt3mapSt6vectorNSt7__cxx1112basic_stringIcSt11char_traitsIcESaIcEEEblmdSaNS1_14adl_serializerES4_IhSaIhEEvEERNS_5FieldE
FN:10436,10440,_ZN3MAS7to_jsonERN8nlohmann16json_abi_v3_11_310basic_jsonISt3mapSt6vectorNSt7__cxx1112basic_stringIcSt11char_traitsIcESaIcEEEblmdSaNS1_14adl_serializerES4_IhSaIhEEvEERKNS_5FieldE
FN:10442,10447,_ZN3MAS9from_jsonERKN8nlohmann16json_abi_v3_11_310basic_jsonISt3mapSt6vectorNSt7__cxx1112basic_stringIcSt11char_traitsIcESaIcEEEblmdSaNS1_14adl_serializerES4_IhSaIhEEvEERNS_38WindingWindowCurrentDensityFieldOutputE
FN:10449,10455,_ZN3MAS7to_jsonERN8nlohmann16json_abi_v3_11_310basic_jsonISt3mapSt6vectorNSt7__cxx1112basic_stringIcSt11char_traitsIcESaIcEEEblmdSaNS1_14adl_serializerES4_IhSaIhEEvEERKNS_38WindingWindowCurrentDensityFieldOutputE
FN:1045,1045,_ZNK3MAS7Forward14get_duty_cycleEv
FN:10457,10461,_ZN3MAS9from_jsonERKN8nlohmann16json_abi_v3_11_310basic_jsonISt3mapSt6vectorNSt7__cxx1112basic_stringIcSt11char_traitsIcESaIcEEEblmdSaNS1_14adl_serializerES4_IhSaIhEEvEERNS_31WindingWindowCurrentFieldOutputE
FN:1046,1046,_ZN3MAS7Forward14set_duty_cycleESt8optionalIdE
FN:10463,10468,_ZN3MAS7to_jsonERN8nlohmann16json_abi_v3_11_310basic_jsonISt3mapSt6vectorNSt7__cxx1112basic_stringIcSt11char_traitsIcESaIcEEEblmdSaNS1_14adl_serializerES4_IhSaIhEEvEERKNS_31WindingWindowCurrentFieldOutputE
FN:10470,10477,_ZN3MAS9from_jsonERKN8nlohmann16json_abi_v3_11_310basic_jsonISt3mapSt6vectorNSt7__cxx1112basic_stringIcSt11char_traitsIcESaIcEEEblmdSaNS1_14adl_serializerES4_IhSaIhEEvEERNS_17ComplexFieldPointE
FN:10479,10487,_ZN3MAS7to_jsonERN8nlohmann16json_abi_v3_11_310basic_jsonISt3mapSt6vectorNSt7__cxx1112basic_stringIcSt11char_traitsIcESaIcEEEblmdSaNS1_14adl_serializerES4_IhSaIhEEvEERKNS_17ComplexFieldPointE
FN:10489,10492,_ZN3MAS9from_jsonERKN8nlohmann16json_abi_v3_11_310basic_jsonISt3mapSt6vectorNSt7__cxx1112basic_stringIcSt11char_traitsIcESaIcEEEblmdSaNS1_14adl_serializerES4_IhSaIhEEvEERNS_12ComplexFieldE
FN:10494,10498,_ZN3MAS7to_jsonERN8nlohmann16json_abi_v3_11_310basic_jsonISt3mapSt6vectorNSt7__cxx1112basic_stringIcSt11char_traitsIcESaIcEEEblmdSaNS1_14adl_serializerES4_IhSaIhEEvEERKNS_12ComplexFieldE
FN:10500,10504,_ZN3MAS9from_jsonERKN8nlohmann16json_abi_v3_11_310basic_jsonISt3mapSt6vectorNSt7__cxx1112basic_stringIcSt11char_traitsIcESaIcEEEblmdSaNS1_14adl_serializerES4_IhSaIhEEvEERNS_40WindingWindowMagneticStrengthFieldOutputE
FN:10506,10511,_ZN3MAS7to_jsonERN8nlohmann16json_abi_v3_11_310basic_jsonISt3mapSt6vectorNSt7__cxx1112basic_stringIcSt11char_traitsIcESaIcEEEblmdSaNS1_14adl_serializerES4_IhSaIhEEvEERKNS_40WindingWindowMagneticStrengthFieldOutputE
FN:10513,10525,_ZN3MAS9from_jsonERKN8nlohmann16json_abi_v3_11_310basic_jsonISt3mapSt6vectorNSt7__cxx1112basic_stringIcSt11char_traitsIcESaIcEEEblmdSaNS1_14adl_serializerES4_IhSaIhEEvEERNS_7OutputsE
FN:1052,1052,_ZN3MAS7Forward14set_efficiencyESt8optionalIdE
FN:10527,10540,_ZN3MAS7to_jsonERN8nlohmann16json_abi_v3_11_310basic_jsonISt3mapSt6vectorNSt7__cxx1112basic_stringIcSt11char_traitsIcESaIcEEEblmdSaNS1_14adl_serializerES4_IhSaIhEEvEERKNS_7OutputsE
FN:10542,10546,_ZN3MAS9from_jsonERKN8nlohmann16json_abi_v3_11_310basic_jsonISt3mapSt6vectorNSt7__cxx1112basic_stringIcSt11char_traitsIcESaIcEEEblmdSaNS1_14adl_serializerES4_IhSaIhEEvEERNS_3MasE
FN:10555,10559,_ZN3MAS9from_jsonERKN8nlohmann16json_abi_v3_11_310basic_jsonISt3mapSt6vectorNSt7__cxx1112basic_stringIcSt11char_traitsIcESaIcEEEblmdSaNS1_14adl_serializerES4_IhSaIhEEvEERNS_13CllcPowerFlowE
FN:10569,10592,_ZN3MAS9from_jsonERKN8nlohmann16json_abi_v3_11_310basic_jsonISt3mapSt6vectorNSt7__cxx1112basic_stringIcSt11char_traitsIcESaIcEEEblmdSaNS1_14adl_serializerES4_IhSaIhEEvEERNS_13WaveformLabelE
FN:1057,1057,_ZNK3MAS7Forward17get_input_voltageEv
FN:1059,1059,_ZN3MAS7Forward17set_input_voltageERKNS_22DimensionWithToleranceE
FN:10594,10614,_ZN3MAS7to_jsonERN8nlohmann16json_abi_v3_11_310basic_jsonISt3mapSt6vectorNSt7__cxx1112basic_stringIcSt11char_traitsIcESaIcEEEblmdSaNS1_14adl_serializerES4_IhSaIhEEvEERKNS_13WaveformLabelE
FN:106,106,_ZN3MAS21ValueTooHighExceptionC2ERKNSt7__cxx1112basic_stringIcSt11char_traitsIcESaIcEEE
FN:10616,10622,_ZN3MAS9from_jsonERKN8nlohmann16json_abi_v3_11_310basic_jsonISt3mapSt6vectorNSt7__cxx1112basic_stringIcSt11char_traitsIcESaIcEEEblmdSaNS1_14adl_serializerES4_IhSaIhEEvEERNS_14ModulationTypeE
FN:10634,10640,_ZN3MAS9from_jsonERKN8nlohmann16json_abi_v3_11_310basic_jsonISt3mapSt6vectorNSt7__cxx1112basic_stringIcSt11char_traitsIcESaIcEEEblmdSaNS1_14adl_serializerES4_IhSaIhEEvEERNS_12FlybackModesE
FN:1064,1064,_ZNK3MAS7Forward26get_maximum_switch_currentEv
FN:10642,10650,_ZN3MAS7to_jsonERN8nlohmann16json_abi_v3_11_310basic_jsonISt3mapSt6vectorNSt7__cxx1112basic_stringIcSt11char_traitsIcESaIcEEEblmdSaNS1_14adl_serializerES4_IhSaIhEEvEERKNS_12FlybackModesE
FN:1065,1065,_ZN3MAS7Forward26set_maximum_switch_currentESt8optionalIdE
FN:10652,10656,_ZN3MAS9from_jsonERKN8nlohmann16json_abi_v3_11_310basic_jsonISt3mapSt6vectorNSt7__cxx1112basic_stringIcSt11char_traitsIcESaIcEEEblmdSaNS1_14adl_serializerES4_IhSaIhEEvEERNS_13LlcBridgeTypeE
FN:10666,10671,_ZN3MAS9from_jsonERKN8nlohmann16json_abi_v3_11_310basic_jsonISt3mapSt6vectorNSt7__cxx1112basic_stringIcSt11char_traitsIcESaIcEEEblmdSaNS1_14adl_serializerES4_IhSaIhEEvEERNS_17PsfbRectifierTypeE
FN:10682,10687,_ZN3MAS9from_jsonERKN8nlohmann16json_abi_v3_11_310basic_jsonISt3mapSt6vectorNSt7__cxx1112basic_stringIcSt11char_traitsIcESaIcEEEblmdSaNS1_14adl_serializerES4_IhSaIhEEvEERNS_11ApplicationE
FN:10689,10696,_ZN3MAS7to_jsonERN8nlohmann16json_abi_v3_11_310basic_jsonISt3mapSt6vectorNSt7__cxx1112basic_stringIcSt11char_traitsIcESaIcEEEblmdSaNS1_14adl_serializerES4_IhSaIhEEvEERKNS_11ApplicationE
FN:10698,10704,_ZN3MAS9from_jsonERKN8nlohmann16json_abi_v3_11_310basic_jsonISt3mapSt6vectorNSt7__cxx1112basic_stringIcSt11char_traitsIcESaIcEEEblmdSaNS1_14adl_serializerES4_IhSaIhEEvEERNS_3CtiE
FN:1070,1070,_ZNK3MAS7Forward20get_operating_pointsEv
FN:10706,10714,_ZN3MAS7to_jsonERN8nlohmann16json_abi_v3_11_310basic_jsonISt3mapSt6vectorNSt7__cxx1112basic_stringIcSt11char_traitsIcESaIcEEEblmdSaNS1_14adl_serializerES4_IhSaIhEEvEERKNS_3CtiE
FN:10716,10723,_ZN3MAS9from_jsonERKN8nlohmann16json_abi_v3_11_310basic_jsonISt3mapSt6vectorNSt7__cxx1112basic_stringIcSt11char_traitsIcESaIcEEEblmdSaNS1_14adl_serializerES4_IhSaIhEEvEERNS_14InsulationTypeE
FN:1072,1072,_ZN3MAS7Forward20set_operating_pointsERKSt6vectorINS_21ForwardOperatingPointESaIS2_EE
FN:10725,10734,_ZN3MAS7to_jsonERN8nlohmann16json_abi_v3_11_310basic_jsonISt3mapSt6vectorNSt7__cxx1112basic_stringIcSt11char_traitsIcESaIcEEEblmdSaNS1_14adl_serializerES4_IhSaIhEEvEERKNS_14InsulationTypeE
FN:10736,10742,_ZN3MAS9from_jsonERKN8nlohmann16json_abi_v3_11_310basic_jsonISt3mapSt6vectorNSt7__cxx1112basic_stringIcSt11char_traitsIcESaIcEEEblmdSaNS1_14adl_serializerES4_IhSaIhEEvEERNS_19OvervoltageCategoryE
FN:10744,10752,_ZN3MAS7to_jsonERN8nlohmann16json_abi_v3_11_310basic_jsonISt3mapSt6vectorNSt7__cxx1112basic_stringIcSt11char_traitsIcESaIcEEEblmdSaNS1_14adl_serializerES4_IhSaIhEEvEERKNS_19OvervoltageCategoryE
FN:10754,10759,_ZN3MAS9from_jsonERKN8nlohmann16json_abi_v3_11_310basic_jsonISt3mapSt6vectorNSt7__cxx1112basic_stringIcSt11char_traitsIcESaIcEEEblmdSaNS1_14adl_serializerES4_IhSaIhEEvEERNS_15PollutionDegreeE
FN:10761,10768,_ZN3MAS7to_jsonERN8nlohmann16json_abi_v3_11_310basic_jsonISt3mapSt6vectorNSt7__cxx1112basic_stringIcSt11char_traitsIcESaIcEEEblmdSaNS1_14adl_serializerES4_IhSaIhEEvEERKNS_15PollutionDegreeE
FN:10770,10776,_ZN3MAS9from_jsonERKN8nlohmann16json_abi_v3_11_310basic_jsonISt3mapSt6vectorNSt7__cxx1112basic_stringIcSt11char_traitsIcESaIcEEEblmdSaNS1_14adl_serializerES4_IhSaIhEEvEERNS_19InsulationStandardsE
FN:10778,10786,_ZN3MAS7to_jsonERN8nlohmann16json_abi_v3_11_310basic_jsonISt3mapSt6vectorNSt7__cxx1112basic_stringIcSt11char_traitsIcESaIcEEEblmdSaNS1_14adl_serializerES4_IhSaIhEEvEERKNS_19InsulationStandardsE
FN:10788,10802,_ZN3MAS9from_jsonERKN8nlohmann16json_abi_v3_11_310basic_jsonISt3mapSt6vectorNSt7__cxx1112basic_stringIcSt11char_traitsIcESaIcEEEblmdSaNS1_14adl_serializerES4_IhSaIhEEvEERNS_13IsolationSideE
FN:1080,1080,_ZN3MAS26IsolatedBuckOperatingPointC2Ev
FN:10804,10820,_ZN3MAS7to_jsonERN8nlohmann16json_abi_v3_11_310basic_jsonISt3mapSt6vectorNSt7__cxx1112basic_stringIcSt11char_traitsIcESaIcEEEblmdSaNS1_14adl_serializerES4_IhSaIhEEvEERKNS_13IsolationSideE
FN:1081,1081,_ZN3MAS26IsolatedBuckOperatingPointD0Ev
FN:1081,1081,_ZN3MAS26IsolatedBuckOperatingPointD2Ev
FN:10822,10829,_ZN3MAS9from_jsonERKN8nlohmann16json_abi_v3_11_310basic_jsonISt3mapSt6vectorNSt7__cxx1112basic_stringIcSt11char_traitsIcESaIcEEEblmdSaNS1_14adl_serializerES4_IhSaIhEEvEERNS_6MarketE
FN:10831,10840,_ZN3MAS7to_jsonERN8nlohmann16json_abi_v3_11_310basic_jsonISt3mapSt6vectorNSt7__cxx1112basic_stringIcSt11char_traitsIcESaIcEEEblmdSaNS1_14adl_serializerES4_IhSaIhEEvEERKNS_6MarketE
FN:10842,10849,_ZN3MAS9from_jsonERKN8nlohmann16json_abi_v3_11_310basic_jsonISt3mapSt6vectorNSt7__cxx1112basic_stringIcSt11char_traitsIcESaIcEEEblmdSaNS1_14adl_serializerES4_IhSaIhEEvEERNS_14SubApplicationE
FN:10851,10860,_ZN3MAS7to_jsonERN8nlohmann16json_abi_v3_11_310basic_jsonISt3mapSt6vectorNSt7__cxx1112basic_stringIcSt11char_traitsIcESaIcEEEblmdSaNS1_14adl_serializerES4_IhSaIhEEvEERKNS_14SubApplicationE
FN:10862,10870,_ZN3MAS9from_jsonERKN8nlohmann16json_abi_v3_11_310basic_jsonISt3mapSt6vectorNSt7__cxx1112basic_stringIcSt11char_traitsIcESaIcEEEblmdSaNS1_14adl_serializerES4_IhSaIhEEvEERNS_14ConnectionTypeE
FN:10872,10882,_ZN3MAS7to_jsonERN8nlohmann16json_abi_v3_11_310basic_jsonISt3mapSt6vectorNSt7__cxx1112basic_stringIcSt11char_traitsIcESaIcEEEblmdSaNS1_14adl_serializerES4_IhSaIhEEvEERKNS_14ConnectionTypeE
FN:10884,10916,_ZN3MAS9from_jsonERKN8nlohmann16json_abi_v3_11_310basic_jsonISt3mapSt6vectorNSt7__cxx1112basic_stringIcSt11char_traitsIcESaIcEEEblmdSaNS1_14adl_serializerES4_IhSaIhEEvEERNS_10TopologiesE
FN:10918,10947,_ZN3MAS7to_jsonERN8nlohmann16json_abi_v3_11_310basic_jsonISt3mapSt6vectorNSt7__cxx1112basic_stringIcSt11char_traitsIcESaIcEEEblmdSaNS1_14adl_serializerES4_IhSaIhEEvEERKNS_10TopologiesE
FN:1093,1093,_ZNK3MAS26IsolatedBuckOperatingPoint23get_ambient_temperatureEv
FN:10949,10955,_ZN3MAS9from_jsonERKN8nlohmann16json_abi_v3_11_310basic_jsonISt3mapSt6vectorNSt7__cxx1112basic_stringIcSt11char_traitsIcESaIcEEEblmdSaNS1_14adl_serializerES4_IhSaIhEEvEERNS_16WiringTechnologyE
FN:1095,1095,_ZN3MAS26IsolatedBuckOperatingPoint23set_ambient_temperatureERKd
FN:10957,10965,_ZN3MAS7to_jsonERN8nlohmann16json_abi_v3_11_310basic_jsonISt3mapSt6vectorNSt7__cxx1112basic_stringIcSt11char_traitsIcESaIcEEEblmdSaNS1_14adl_serializerES4_IhSaIhEEvEERKNS_16WiringTechnologyE
FN:10967,10982,_ZN3MAS9from_jsonERKN8nlohmann16json_abi_v3_11_310basic_jsonISt3mapSt6vectorNSt7__cxx1112basic_stringIcSt11char_traitsIcESaIcEEEblmdSaNS1_14adl_serializerES4_IhSaIhEEvEERNS_12BobbinFamilyE
FN:10984,11001,_ZN3MAS7to_jsonERN8nlohmann16json_abi_v3_11_310basic_jsonISt3mapSt6vectorNSt7__cxx1112basic_stringIcSt11char_traitsIcESaIcEEEblmdSaNS1_14adl_serializerES4_IhSaIhEEvEERKNS_12BobbinFamilyE
FN:1100,1100,_ZNK3MAS26IsolatedBuckOperatingPoint19get_output_currentsEv
FN:11003,11008,_ZN3MAS9from_jsonERKN8nlohmann16json_abi_v3_11_310basic_jsonISt3mapSt6vectorNSt7__cxx1112basic_stringIcSt11char_traitsIcESaIcEEEblmdSaNS1_14adl_serializerES4_IhSaIhEEvEERNS_6StatusE
FN:11010,11017,_ZN3MAS7to_jsonERN8nlohmann16json_abi_v3_11_310basic_jsonISt3mapSt6vectorNSt7__cxx1112basic_stringIcSt11char_traitsIcESaIcEEEblmdSaNS1_14adl_serializerES4_IhSaIhEEvEERKNS_6StatusE
FN:11019,11024,_ZN3MAS9from_jsonERKN8nlohmann16json_abi_v3_11_310basic_jsonISt3mapSt6vectorNSt7__cxx1112basic_stringIcSt11char_traitsIcESaIcEEEblmdSaNS1_14adl_serializerES4_IhSaIhEEvEERNS_8PinShapeE
FN:1102,1102,_ZN3MAS26IsolatedBuckOperatingPoint19set_output_currentsERKSt6vectorIdSaIdEE
FN:11026,11033,_ZN3MAS7to_jsonERN8nlohmann16json_abi_v3_11_310basic_jsonISt3mapSt6vectorNSt7__cxx1112basic_stringIcSt11char_traitsIcESaIcEEEblmdSaNS1_14adl_serializerES4_IhSaIhEEvEERKNS_8PinShapeE
FN:11035,11039,_ZN3MAS9from_jsonERKN8nlohmann16json_abi_v3_11_310basic_jsonISt3mapSt6vectorNSt7__cxx1112basic_stringIcSt11char_traitsIcESaIcEEEblmdSaNS1_14adl_serializerES4_IhSaIhEEvEERNS_18PinDescriptionTypeE
FN:11041,11047,_ZN3MAS7to_jsonERN8nlohmann16json_abi_v3_11_310basic_jsonISt3mapSt6vectorNSt7__cxx1112basic_stringIcSt11char_traitsIcESaIcEEEblmdSaNS1_14adl_serializerES4_IhSaIhEEvEERKNS_18PinDescriptionTypeE
FN:11049,11053,_ZN3MAS9from_jsonERKN8nlohmann16json_abi_v3_11_310basic_jsonISt3mapSt6vectorNSt7__cxx1112basic_stringIcSt11char_traitsIcESaIcEEEblmdSaNS1_14adl_serializerES4_IhSaIhEEvEERNS_25FunctionalDescriptionTypeE
FN:11055,11061,_ZN3MAS7to_jsonERN8nlohmann16json_abi_v3_11_310basic_jsonISt3mapSt6vectorNSt7__cxx1112basic_stringIcSt11char_traitsIcESaIcEEEblmdSaNS1_14adl_serializerES4_IhSaIhEEvEERKNS_25FunctionalDescriptionTypeE
FN:11063,11069,_ZN3MAS9from_jsonERKN8nlohmann16json_abi_v3_11_310basic_jsonISt3mapSt6vectorNSt7__cxx1112basic_stringIcSt11char_traitsIcESaIcEEEblmdSaNS1_14adl_serializerES4_IhSaIhEEvEERNS_11ColumnShapeE
FN:1107,1107,_ZNK3MAS26IsolatedBuckOperatingPoint19get_output_voltagesEv
FN:11071,11079,_ZN3MAS7to_jsonERN8nlohmann16json_abi_v3_11_310basic_jsonISt3mapSt6vectorNSt7__cxx1112basic_stringIcSt11char_traitsIcESaIcEEEblmdSaNS1_14adl_serializerES4_IhSaIhEEvEERKNS_11ColumnShapeE
FN:11081,11087,_ZN3MAS9from_jsonERKN8nlohmann16json_abi_v3_11_310basic_jsonISt3mapSt6vectorNSt7__cxx1112basic_stringIcSt11char_traitsIcESaIcEEEblmdSaNS1_14adl_serializerES4_IhSaIhEEvEERNS_13CoilAlignmentE
FN:11089,11097,_ZN3MAS7to_jsonERN8nlohmann16json_abi_v3_11_310basic_jsonISt3mapSt6vectorNSt7__cxx1112basic_stringIcSt11char_traitsIcESaIcEEEblmdSaNS1_14adl_serializerES4_IhSaIhEEvEERKNS_13CoilAlignmentE
FN:1109,1109,_ZN3MAS26IsolatedBuckOperatingPoint19set_output_voltagesERKSt6vectorIdSaIdEE
FN:11099,11103,_ZN3MAS9from_jsonERKN8nlohmann16json_abi_v3_11_310basic_jsonISt3mapSt6vectorNSt7__cxx1112basic_stringIcSt11char_traitsIcESaIcEEEblmdSaNS1_14adl_serializerES4_IhSaIhEEvEERNS_18WindingOrientationE
FN:11105,11111,_ZN3MAS7to_jsonERN8nlohmann16json_abi_v3_11_310basic_jsonISt3mapSt6vectorNSt7__cxx1112basic_stringIcSt11char_traitsIcESaIcEEEblmdSaNS1_14adl_serializerES4_IhSaIhEEvEERKNS_18WindingOrientationE
FN:11113,11117,_ZN3MAS9from_jsonERKN8nlohmann16json_abi_v3_11_310basic_jsonISt3mapSt6vectorNSt7__cxx1112basic_stringIcSt11char_traitsIcESaIcEEEblmdSaNS1_14adl_serializerES4_IhSaIhEEvEERNS_18WindingWindowShapeE
FN:11119,11125,_ZN3MAS7to_jsonERN8nlohmann16json_abi_v3_11_310basic_jsonISt3mapSt6vectorNSt7__cxx1112basic_stringIcSt11char_traitsIcESaIcEEEblmdSaNS1_14adl_serializerES4_IhSaIhEEvEERKNS_18WindingWindowShapeE
FN:11127,11131,_ZN3MAS9from_jsonERKN8nlohmann16json_abi_v3_11_310basic_jsonISt3mapSt6vectorNSt7__cxx1112basic_stringIcSt11char_traitsIcESaIcEEEblmdSaNS1_14adl_serializerES4_IhSaIhEEvEERNS_9DirectionE
FN:11133,11139,_ZN3MAS7to_jsonERN8nlohmann16json_abi_v3_11_310basic_jsonISt3mapSt6vectorNSt7__cxx1112basic_stringIcSt11char_traitsIcESaIcEEEblmdSaNS1_14adl_serializerES4_IhSaIhEEvEERKNS_9DirectionE
FN:1114,1114,_ZNK3MAS26IsolatedBuckOperatingPoint23get_switching_frequencyEv
FN:11141,11149,_ZN3MAS9from_jsonERKN8nlohmann16json_abi_v3_11_310basic_jsonISt3mapSt6vectorNSt7__cxx1112basic_stringIcSt11char_traitsIcESaIcEEEblmdSaNS1_14adl_serializerES4_IhSaIhEEvEERNS_25InsulationWireCoatingTypeE
FN:11151,11161,_ZN3MAS7to_jsonERN8nlohmann16json_abi_v3_11_310basic_jsonISt3mapSt6vectorNSt7__cxx1112basic_stringIcSt11char_traitsIcESaIcEEEblmdSaNS1_14adl_serializerES4_IhSaIhEEvEERKNS_25InsulationWireCoatingTypeE
FN:1116,1116,_ZN3MAS26IsolatedBuckOperatingPoint23set_switching_frequencyERKd
FN:11163,11168,_ZN3MAS9from_jsonERKN8nlohmann16json_abi_v3_11_310basic_jsonISt3mapSt6vectorNSt7__cxx1112basic_stringIcSt11char_traitsIcESaIcEEEblmdSaNS1_14adl_serializerES4_IhSaIhEEvEERNS_12WireStandardE
FN:11170,11177,_ZN3MAS7to_jsonERN8nlohmann16json_abi_v3_11_310basic_jsonISt3mapSt6vectorNSt7__cxx1112basic_stringIcSt11char_traitsIcESaIcEEEblmdSaNS1_14adl_serializerES4_IhSaIhEEvEERKNS_12WireStandardE
FN:11179,11186,_ZN3MAS9from_jsonERKN8nlohmann16json_abi_v3_11_310basic_jsonISt3mapSt6vectorNSt7__cxx1112basic_stringIcSt11char_traitsIcESaIcEEEblmdSaNS1_14adl_serializerES4_IhSaIhEEvEERNS_8WireTypeE
FN:11188,11197,_ZN3MAS7to_jsonERN8nlohmann16json_abi_v3_11_310basic_jsonISt3mapSt6vectorNSt7__cxx1112basic_stringIcSt11char_traitsIcESaIcEEEblmdSaNS1_14adl_serializerES4_IhSaIhEEvEERKNS_8WireTypeE
FN:11199,11203,_ZN3MAS9from_jsonERKN8nlohmann16json_abi_v3_11_310basic_jsonISt3mapSt6vectorNSt7__cxx1112basic_stringIcSt11char_traitsIcESaIcEEEblmdSaNS1_14adl_serializerES4_IhSaIhEEvEERNS_16CoordinateSystemE
FN:11205,11211,_ZN3MAS7to_jsonERN8nlohmann16json_abi_v3_11_310basic_jsonISt3mapSt6vectorNSt7__cxx1112basic_stringIcSt11char_traitsIcESaIcEEEblmdSaNS1_14adl_serializerES4_IhSaIhEEvEERKNS_16CoordinateSystemE
FN:11213,11218,_ZN3MAS9from_jsonERKN8nlohmann16json_abi_v3_11_310basic_jsonISt3mapSt6vectorNSt7__cxx1112basic_stringIcSt11char_traitsIcESaIcEEEblmdSaNS1_14adl_serializerES4_IhSaIhEEvEERNS_14ElectricalTypeE
FN:11220,11227,_ZN3MAS7to_jsonERN8nlohmann16json_abi_v3_11_310basic_jsonISt3mapSt6vectorNSt7__cxx1112basic_stringIcSt11char_traitsIcESaIcEEEblmdSaNS1_14adl_serializerES4_IhSaIhEEvEERKNS_14ElectricalTypeE
FN:11229,11233,_ZN3MAS9from_jsonERKN8nlohmann16json_abi_v3_11_310basic_jsonISt3mapSt6vectorNSt7__cxx1112basic_stringIcSt11char_traitsIcESaIcEEEblmdSaNS1_14adl_serializerES4_IhSaIhEEvEERNS_12WindingStyleE
FN:11235,11241,_ZN3MAS7to_jsonERN8nlohmann16json_abi_v3_11_310basic_jsonISt3mapSt6vectorNSt7__cxx1112basic_stringIcSt11char_traitsIcESaIcEEEblmdSaNS1_14adl_serializerES4_IhSaIhEEvEERKNS_12WindingStyleE
FN:1124,1124,_ZN3MAS12IsolatedBuckC2Ev
FN:11243,11248,_ZN3MAS9from_jsonERKN8nlohmann16json_abi_v3_11_310basic_jsonISt3mapSt6vectorNSt7__cxx1112basic_stringIcSt11char_traitsIcESaIcEEEblmdSaNS1_14adl_serializerES4_IhSaIhEEvEERNS_23TurnCrossSectionalShapeE
FN:1125,1125,_ZN3MAS12IsolatedBuckD0Ev
FN:1125,1125,_ZN3MAS12IsolatedBuckD2Ev
FN:11250,11257,_ZN3MAS7to_jsonERN8nlohmann16json_abi_v3_11_310basic_jsonISt3mapSt6vectorNSt7__cxx1112basic_stringIcSt11char_traitsIcESaIcEEEblmdSaNS1_14adl_serializerES4_IhSaIhEEvEERKNS_23TurnCrossSectionalShapeE
FN:11259,11263,_ZN3MAS9from_jsonERKN8nlohmann16json_abi_v3_11_310basic_jsonISt3mapSt6vectorNSt7__cxx1112basic_stringIcSt11char_traitsIcESaIcEEEblmdSaNS1_14adl_serializerES4_IhSaIhEEvEERNS_15TurnOrientationE
FN:11265,11271,_ZN3MAS7to_jsonERN8nlohmann16json_abi_v3_11_310basic_jsonISt3mapSt6vectorNSt7__cxx1112basic_stringIcSt11char_traitsIcESaIcEEEblmdSaNS1_14adl_serializerES4_IhSaIhEEvEERKNS_15TurnOrientationE
FN:11273,11277,_ZN3MAS9from_jsonERKN8nlohmann16json_abi_v3_11_310basic_jsonISt3mapSt6vectorNSt7__cxx1112basic_stringIcSt11char_traitsIcESaIcEEEblmdSaNS1_14adl_serializerES4_IhSaIhEEvEERNS_7CoatingE
FN:11279,11285,_ZN3MAS7to_jsonERN8nlohmann16json_abi_v3_11_310basic_jsonISt3mapSt6vectorNSt7__cxx1112basic_stringIcSt11char_traitsIcESaIcEEEblmdSaNS1_14adl_serializerES4_IhSaIhEEvEERKNS_7CoatingE
FN:11287,11292,_ZN3MAS9from_jsonERKN8nlohmann16json_abi_v3_11_310basic_jsonISt3mapSt6vectorNSt7__cxx1112basic_stringIcSt11char_traitsIcESaIcEEEblmdSaNS1_14adl_serializerES4_IhSaIhEEvEERNS_7GapTypeE
FN:11294,11301,_ZN3MAS7to_jsonERN8nlohmann16json_abi_v3_11_310basic_jsonISt3mapSt6vectorNSt7__cxx1112basic_stringIcSt11char_traitsIcESaIcEEEblmdSaNS1_14adl_serializerES4_IhSaIhEEvEERKNS_7GapTypeE
FN:11303,11306,_ZN3MAS9from_jsonERKN8nlohmann16json_abi_v3_11_310basic_jsonISt3mapSt6vectorNSt7__cxx1112basic_stringIcSt11char_traitsIcESaIcEEEblmdSaNS1_14adl_serializerES4_IhSaIhEEvEERNS_24MassCoreLossesMethodTypeE
FN:11308,11313,_ZN3MAS7to_jsonERN8nlohmann16json_abi_v3_11_310basic_jsonISt3mapSt6vectorNSt7__cxx1112basic_stringIcSt11char_traitsIcESaIcEEEblmdSaNS1_14adl_serializerES4_IhSaIhEEvEERKNS_24MassCoreLossesMethodTypeE
FN:11315,11322,_ZN3MAS9from_jsonERKN8nlohmann16json_abi_v3_11_310basic_jsonISt3mapSt6vectorNSt7__cxx1112basic_stringIcSt11char_traitsIcESaIcEEEblmdSaNS1_14adl_serializerES4_IhSaIhEEvEERNS_12MaterialTypeE
FN:11324,11333,_ZN3MAS7to_jsonERN8nlohmann16json_abi_v3_11_310basic_jsonISt3mapSt6vectorNSt7__cxx1112basic_stringIcSt11char_traitsIcESaIcEEEblmdSaNS1_14adl_serializerES4_IhSaIhEEvEERKNS_12MaterialTypeE
FN:11335,11348,_ZN3MAS9from_jsonERKN8nlohmann16json_abi_v3_11_310basic_jsonISt3mapSt6vectorNSt7__cxx1112basic_stringIcSt11char_traitsIcESaIcEEEblmdSaNS1_14adl_serializerES4_IhSaIhEEvEERNS_19MaterialCompositionE
FN:11350,11365,_ZN3MAS7to_jsonERN8nlohmann16json_abi_v3_11_310basic_jsonISt3mapSt6vectorNSt7__cxx1112basic_stringIcSt11char_traitsIcESaIcEEEblmdSaNS1_14adl_serializerES4_IhSaIhEEvEERKNS_19MaterialCompositionE
FN:11367,11374,_ZN3MAS9from_jsonERKN8nlohmann16json_abi_v3_11_310basic_jsonISt3mapSt6vectorNSt7__cxx1112basic_stringIcSt11char_traitsIcESaIcEEEblmdSaNS1_14adl_serializerES4_IhSaIhEEvEERNS_32InitialPermeabilitModifierMethodE
FN:11376,11385,_ZN3MAS7to_jsonERN8nlohmann16json_abi_v3_11_310basic_jsonISt3mapSt6vectorNSt7__cxx1112basic_stringIcSt11char_traitsIcESaIcEEEblmdSaNS1_14adl_serializerES4_IhSaIhEEvEERKNS_32InitialPermeabilitModifierMethodE
FN:11387,11391,_ZN3MAS9from_jsonERKN8nlohmann16json_abi_v3_11_310basic_jsonISt3mapSt6vectorNSt7__cxx1112basic_stringIcSt11char_traitsIcESaIcEEEblmdSaNS1_14adl_serializerES4_IhSaIhEEvEERNS_16CoreMaterialTypeE
FN:1139,1139,_ZNK3MAS12IsolatedBuck24get_current_ripple_ratioEv
FN:11393,11399,_ZN3MAS7to_jsonERN8nlohmann16json_abi_v3_11_310basic_jsonISt3mapSt6vectorNSt7__cxx1112basic_stringIcSt11char_traitsIcESaIcEEEblmdSaNS1_14adl_serializerES4_IhSaIhEEvEERKNS_16CoreMaterialTypeE
FN:1140,1140,_ZN3MAS12IsolatedBuck24set_current_ripple_ratioESt8optionalIdE
FN:11401,11410,_ZN3MAS9from_jsonERKN8nlohmann16json_abi_v3_11_310basic_jsonISt3mapSt6vectorNSt7__cxx1112basic_stringIcSt11char_traitsIcESaIcEEEblmdSaNS1_14adl_serializerES4_IhSaIhEEvEERNS_30VolumetricCoreLossesMethodTypeE
FN:11412,11423,_ZN3MAS7to_jsonERN8nlohmann16json_abi_v3_11_310basic_jsonISt3mapSt6vectorNSt7__cxx1112basic_stringIcSt11char_traitsIcESaIcEEEblmdSaNS1_14adl_serializerES4_IhSaIhEEvEERKNS_30VolumetricCoreLossesMethodTypeE
FN:11425,11461,_ZN3MAS9from_jsonERKN8nlohmann16json_abi_v3_11_310basic_jsonISt3mapSt6vectorNSt7__cxx1112basic_stringIcSt11char_traitsIcESaIcEEEblmdSaNS1_14adl_serializerES4_IhSaIhEEvEERNS_15CoreShapeFamilyE
FN:1145,1145,_ZNK3MAS12IsolatedBuck22get_diode_voltage_dropEv
FN:11463,11496,_ZN3MAS7to_jsonERN8nlohmann16json_abi_v3_11_310basic_jsonISt3mapSt6vectorNSt7__cxx1112basic_stringIcSt11char_traitsIcESaIcEEEblmdSaNS1_14adl_serializerES4_IhSaIhEEvEERKNS_15CoreShapeFamilyE
FN:1147,1147,_ZN3MAS12IsolatedBuck22set_diode_voltage_dropERKd
FN:11498,11502,_ZN3MAS9from_jsonERKN8nlohmann16json_abi_v3_11_310basic_jsonISt3mapSt6vectorNSt7__cxx1112basic_stringIcSt11char_traitsIcESaIcEEEblmdSaNS1_14adl_serializerES4_IhSaIhEEvEERNS_15MagneticCircuitE
FN:11504,11510,_ZN3MAS7to_jsonERN8nlohmann16json_abi_v3_11_310basic_jsonISt3mapSt6vectorNSt7__cxx1112basic_stringIcSt11char_traitsIcESaIcEEEblmdSaNS1_14adl_serializerES4_IhSaIhEEvEERKNS_15MagneticCircuitE
FN:11512,11518,_ZN3MAS9from_jsonERKN8nlohmann16json_abi_v3_11_310basic_jsonISt3mapSt6vectorNSt7__cxx1112basic_stringIcSt11char_traitsIcESaIcEEEblmdSaNS1_14adl_serializerES4_IhSaIhEEvEERNS_8CoreTypeE
FN:1152,1152,_ZNK3MAS12IsolatedBuck14get_efficiencyEv
FN:11520,11528,_ZN3MAS7to_jsonERN8nlohmann16json_abi_v3_11_310basic_jsonISt3mapSt6vectorNSt7__cxx1112basic_stringIcSt11char_traitsIcESaIcEEEblmdSaNS1_14adl_serializerES4_IhSaIhEEvEERKNS_8CoreTypeE
FN:1153,1153,_ZN3MAS12IsolatedBuck14set_efficiencyESt8optionalIdE
FN:11530,11538,_ZN3MAS9from_jsonERKN8nlohmann16json_abi_v3_11_310basic_jsonISt3mapSt6vectorNSt7__cxx1112basic_stringIcSt11char_traitsIcESaIcEEEblmdSaNS1_14adl_serializerES4_IhSaIhEEvEERNS_37CoreGeometricalDescriptionElementTypeE
FN:11540,11550,_ZN3MAS7to_jsonERN8nlohmann16json_abi_v3_11_310basic_jsonISt3mapSt6vectorNSt7__cxx1112basic_stringIcSt11char_traitsIcESaIcEEEblmdSaNS1_14adl_serializerES4_IhSaIhEEvEERKNS_37CoreGeometricalDescriptionElementTypeE
FN:11552,11556,_ZN3MAS9from_jsonERKN8nlohmann16json_abi_v3_11_310basic_jsonISt3mapSt6vectorNSt7__cxx1112basic_stringIcSt11char_traitsIcESaIcEEEblmdSaNS1_14adl_serializerES4_IhSaIhEEvEERNS_10ColumnTypeE
FN:11558,11564,_ZN3MAS7to_jsonERN8nlohmann16json_abi_v3_11_310basic_jsonISt3mapSt6vectorNSt7__cxx1112basic_stringIcSt11char_traitsIcESaIcEEEblmdSaNS1_14adl_serializerES4_IhSaIhEEvEERKNS_10ColumnTypeE
FN:11566,11571,_ZN3MAS9from_jsonERKN8nlohmann16json_abi_v3_11_310basic_jsonISt3mapSt6vectorNSt7__cxx1112basic_stringIcSt11char_traitsIcESaIcEEEblmdSaNS1_14adl_serializerES4_IhSaIhEEvEERNS_12ResultOriginE
FN:11573,11580,_ZN3MAS7to_jsonERN8nlohmann16json_abi_v3_11_310basic_jsonISt3mapSt6vectorNSt7__cxx1112basic_stringIcSt11char_traitsIcESaIcEEEblmdSaNS1_14adl_serializerES4_IhSaIhEEvEERKNS_12ResultOriginE
FN:1158,1158,_ZNK3MAS12IsolatedBuck17get_input_voltageEv
FN:11582,11586,_ZN3MAS9from_jsonERKN8nlohmann16json_abi_v3_11_310basic_jsonISt3mapSt6vectorNSt7__cxx1112basic_stringIcSt11char_traitsIcESaIcEEEblmdSaNS1_14adl_serializerES4_IhSaIhEEvEERNS_11VoltageTypeE
FN:11588,11594,_ZN3MAS7to_jsonERN8nlohmann16json_abi_v3_11_310basic_jsonISt3mapSt6vectorNSt7__cxx1112basic_stringIcSt11char_traitsIcESaIcEEEblmdSaNS1_14adl_serializerES4_IhSaIhEEvEERKNS_11VoltageTypeE
FN:11597,11603,_ZN8nlohmann16json_abi_v3_11_314adl_serializerISt7variantIJN3MAS22DimensionWithToleranceEdEEvE9from_jsonERKNS0_10basic_jsonISt3mapSt6vectorNSt7__cxx1112basic_stringIcSt11char_traitsIcESaIcEEEblmdSaS1_S9_IhSaIhEEvEERS5_
FN:1160,1160,_ZN3MAS12IsolatedBuck17set_input_voltageERKNS_22DimensionWithToleranceE
FN:11605,11615,_ZN8nlohmann16json_abi_v3_11_314adl_serializerISt7variantIJN3MAS22DimensionWithToleranceEdEEvE7to_jsonERNS0_10basic_jsonISt3mapSt6vectorNSt7__cxx1112basic_stringIcSt11char_traitsIcESaIcEEEblmdSaS1_S9_IhSaIhEEvEERKS5_
FN:11617,11623,_ZN8nlohmann16json_abi_v3_11_314adl_serializerISt7variantIJN3MAS18InsulationMaterialENSt7__cxx1112basic_stringIcSt11char_traitsIcESaIcEEEEEvE9from_jsonERKNS0_10basic_jsonISt3mapSt6vectorSA_blmdSaS1_SF_IhSaIhEEvEERSB_
FN:11625,11635,_ZN8nlohmann16json_abi_v3_11_314adl_serializerISt7variantIJN3MAS18InsulationMaterialENSt7__cxx1112basic_stringIcSt11char_traitsIcESaIcEEEEEvE7to_jsonERNS0_10basic_jsonISt3mapSt6vectorSA_blmdSaS1_SF_IhSaIhEEvEERKSB_
FN:11637,11643,_ZN8nlohmann16json_abi_v3_11_314adl_serializerISt7variantIJSt6vectorIdSaIdEEdEEvE9from_jsonERKNS0_10basic_jsonISt3mapS3_NSt7__cxx1112basic_stringIcSt11char_traitsIcESaIcEEEblmdSaS1_S3_IhSaIhEEvEERS6_
FN:11645,11655,_ZN8nlohmann16json_abi_v3_11_314adl_serializerISt7variantIJSt6vectorIdSaIdEEdEEvE7to_jsonERNS0_10basic_jsonISt3mapS3_NSt7__cxx1112basic_stringIcSt11char_traitsIcESaIcEEEblmdSaS1_S3_IhSaIhEEvEERKS6_
FN:1165,1165,_ZNK3MAS12IsolatedBuck26get_maximum_switch_currentEv
FN:11657,11663,_ZN8nlohmann16json_abi_v3_11_314adl_serializerISt7variantIJN3MAS6BobbinENSt7__cxx1112basic_stringIcSt11char_traitsIcESaIcEEEEEvE9from_jsonERKNS0_10basic_jsonISt3mapSt6vectorSA_blmdSaS1_SF_IhSaIhEEvEERSB_
FN:1166,1166,_ZN3MAS12IsolatedBuck26set_maximum_switch_currentESt8optionalIdE
FN:11665,11675,_ZN8nlohmann16json_abi_v3_11_314adl_serializerISt7variantIJN3MAS6BobbinENSt7__cxx1112basic_stringIcSt11char_traitsIcESaIcEEEEEvE7to_jsonERNS0_10basic_jsonISt3mapSt6vectorSA_blmdSaS1_SF_IhSaIhEEvEERKSB_
FN:11677,11683,_ZN8nlohmann16json_abi_v3_11_314adl_serializerISt7variantIJN3MAS21InsulationWireCoatingENSt7__cxx1112basic_stringIcSt11char_traitsIcESaIcEEEEEvE9from_jsonERKNS0_10basic_jsonISt3mapSt6vectorSA_blmdSaS1_SF_IhSaIhEEvEERSB_
FN:11685,11695,_ZN8nlohmann16json_abi_v3_11_314adl_serializerISt7variantIJN3MAS21InsulationWireCoatingENSt7__cxx1112basic_stringIcSt11char_traitsIcESaIcEEEEEvE7to_jsonERNS0_10basic_jsonISt3mapSt6vectorSA_blmdSaS1_SF_IhSaIhEEvEERKSB_
FN:11697,11703,_ZN8nlohmann16json_abi_v3_11_314adl_serializerISt7variantIJN3MAS12WireMaterialENSt7__cxx1112basic_stringIcSt11char_traitsIcESaIcEEEEEvE9from_jsonERKNS0_10basic_jsonISt3mapSt6vectorSA_blmdSaS1_SF_IhSaIhEEvEERSB_
FN:11705,11715,_ZN8nlohmann16json_abi_v3_11_314adl_serializerISt7variantIJN3MAS12WireMaterialENSt7__cxx1112basic_stringIcSt11char_traitsIcESaIcEEEEEvE7to_jsonERNS0_10basic_jsonISt3mapSt6vectorSA_blmdSaS1_SF_IhSaIhEEvEERKSB_
FN:1171,1171,_ZNK3MAS12IsolatedBuck20get_operating_pointsEv
FN:11717,11723,_ZN8nlohmann16json_abi_v3_11_314adl_serializerISt7variantIJN3MAS9WireRoundENSt7__cxx1112basic_stringIcSt11char_traitsIcESaIcEEEEEvE9from_jsonERKNS0_10basic_jsonISt3mapSt6vectorSA_blmdSaS1_SF_IhSaIhEEvEERSB_
FN:11725,11735,_ZN8nlohmann16json_abi_v3_11_314adl_serializerISt7variantIJN3MAS9WireRoundENSt7__cxx1112basic_stringIcSt11char_traitsIcESaIcEEEEEvE7to_jsonERNS0_10basic_jsonISt3mapSt6vectorSA_blmdSaS1_SF_IhSaIhEEvEERKSB_
FN:1173,1173,_ZN3MAS12IsolatedBuck20set_operating_pointsERKSt6vectorINS_26IsolatedBuckOperatingPointESaIS2_EE
FN:11737,11743,_ZN8nlohmann16json_abi_v3_11_314adl_serializerISt7variantIJN3MAS4WireENSt7__cxx1112basic_stringIcSt11char_traitsIcESaIcEEEEEvE9from_jsonERKNS0_10basic_jsonISt3mapSt6vectorSA_blmdSaS1_SF_IhSaIhEEvEERSB_
FN:11745,11755,_ZN8nlohmann16json_abi_v3_11_314adl_serializerISt7variantIJN3MAS4WireENSt7__cxx1112basic_stringIcSt11char_traitsIcESaIcEEEEEvE7to_jsonERNS0_10basic_jsonISt3mapSt6vectorSA_blmdSaS1_SF_IhSaIhEEvEERKSB_
FN:11757,11763,_ZN8nlohmann16json_abi_v3_11_314adl_serializerISt7variantIJSt6vectorIdSaIdEEN3MAS10MarginInfoEEEvE9from_jsonERKNS0_10basic_jsonISt3mapS3_NSt7__cxx1112basic_stringIcSt11char_traitsIcESaIcEEEblmdSaS1_S3_IhSaIhEEvEERS8_
FN:11765,11775,_ZN8nlohmann16json_abi_v3_11_314adl_serializerISt7variantIJSt6vectorIdSaIdEEN3MAS10MarginInfoEEEvE7to_jsonERNS0_10basic_jsonISt3mapS3_NSt7__cxx1112basic_stringIcSt11char_traitsIcESaIcEEEblmdSaS1_S3_IhSaIhEEvEERKS8_
FN:11777,11783,_ZN8nlohmann16json_abi_v3_11_314adl_serializerISt7variantIJSt6vectorIN3MAS15MassLossesPointESaIS5_EENS4_28MagnetecCoreLossesMethodDataEEEvE9from_jsonERKNS0_10basic_jsonISt3mapS3_NSt7__cxx1112basic_stringIcSt11char_traitsIcESaIcEEEblmdSaS1_S3_IhSaIhEEvEERS9_
FN:11785,11795,_ZN8nlohmann16json_abi_v3_11_314adl_serializerISt7variantIJSt6vectorIN3MAS15MassLossesPointESaIS5_EENS4_28MagnetecCoreLossesMethodDataEEEvE7to_jsonERNS0_10basic_jsonISt3mapS3_NSt7__cxx1112basic_stringIcSt11char_traitsIcESaIcEEEblmdSaS1_S3_IhSaIhEEvEERKS9_
FN:11797,11803,_ZN8nlohmann16json_abi_v3_11_314adl_serializerISt7variantIJSt6vectorIN3MAS17PermeabilityPointESaIS5_EES5_EEvE9from_jsonERKNS0_10basic_jsonISt3mapS3_NSt7__cxx1112basic_stringIcSt11char_traitsIcESaIcEEEblmdSaS1_S3_IhSaIhEEvEERS8_
FN:11805,11815,_ZN8nlohmann16json_abi_v3_11_314adl_serializerISt7variantIJSt6vectorIN3MAS17PermeabilityPointESaIS5_EES5_EEvE7to_jsonERNS0_10basic_jsonISt3mapS3_NSt7__cxx1112basic_stringIcSt11char_traitsIcESaIcEEEblmdSaS1_S3_IhSaIhEEvEERKS8_
FN:1181,1181,_ZN3MAS31IsolatedBuckBoostOperatingPointC2Ev
FN:11817,11823,_ZN8nlohmann16json_abi_v3_11_314adl_serializerISt7variantIJSt6vectorIN3MAS21VolumetricLossesPointESaIS5_EENS4_20CoreLossesMethodDataEEEvE9from_jsonERKNS0_10basic_jsonISt3mapS3_NSt7__cxx1112basic_stringIcSt11char_traitsIcESaIcEEEblmdSaS1_S3_IhSaIhEEvEERS9_
FN:1182,1182,_ZN3MAS31IsolatedBuckBoostOperatingPointD0Ev
FN:1182,1182,_ZN3MAS31IsolatedBuckBoostOperatingPointD2Ev
FN:11825,11835,_ZN8nlohmann16json_abi_v3_11_314adl_serializerISt7variantIJSt6vectorIN3MAS21VolumetricLossesPointESaIS5_EENS4_20CoreLossesMethodDataEEEvE7to_jsonERNS0_10basic_jsonISt3mapS3_NSt7__cxx1112basic_stringIcSt11char_traitsIcESaIcEEEblmdSaS1_S3_IhSaIhEEvEERKS9_
FN:11837,11843,_ZN8nlohmann16json_abi_v3_11_314adl_serializerISt7variantIJN3MAS12CoreMaterialENSt7__cxx1112basic_stringIcSt11char_traitsIcESaIcEEEEEvE9from_jsonERKNS0_10basic_jsonISt3mapSt6vectorSA_blmdSaS1_SF_IhSaIhEEvEERSB_
FN:11845,11855,_ZN8nlohmann16json_abi_v3_11_314adl_serializerISt7variantIJN3MAS12CoreMaterialENSt7__cxx1112basic_stringIcSt11char_traitsIcESaIcEEEEEvE7to_jsonERNS0_10basic_jsonISt3mapSt6vectorSA_blmdSaS1_SF_IhSaIhEEvEERKSB_
FN:11857,11863,_ZN8nlohmann16json_abi_v3_11_314adl_serializerISt7variantIJN3MAS9CoreShapeENSt7__cxx1112basic_stringIcSt11char_traitsIcESaIcEEEEEvE9from_jsonERKNS0_10basic_jsonISt3mapSt6vectorSA_blmdSaS1_SF_IhSaIhEEvEERSB_
FN:11865,11875,_ZN8nlohmann16json_abi_v3_11_314adl_serializerISt7variantIJN3MAS9CoreShapeENSt7__cxx1112basic_stringIcSt11char_traitsIcESaIcEEEEEvE7to_jsonERNS0_10basic_jsonISt3mapSt6vectorSA_blmdSaS1_SF_IhSaIhEEvEERKSB_
FN:1194,1194,_ZNK3MAS31IsolatedBuckBoostOperatingPoint23get_ambient_temperatureEv
FN:1196,1196,_ZN3MAS31IsolatedBuckBoostOperatingPoint23set_ambient_temperatureERKd
FN:1201,1201,_ZNK3MAS31IsolatedBuckBoostOperatingPoint19get_output_currentsEv
FN:1203,1203,_ZN3MAS31IsolatedBuckBoostOperatingPoint19set_output_currentsERKSt6vectorIdSaIdEE
FN:1208,1208,_ZNK3MAS31IsolatedBuckBoostOperatingPoint19get_output_voltagesEv
FN:1210,1210,_ZN3MAS31IsolatedBuckBoostOperatingPoint19set_output_voltagesERKSt6vectorIdSaIdEE
FN:1215,1215,_ZNK3MAS31IsolatedBuckBoostOperatingPoint23get_switching_frequencyEv
FN:1217,1217,_ZN3MAS31IsolatedBuckBoostOperatingPoint23set_switching_frequencyERKd
FN:1225,1225,_ZN3MAS17IsolatedBuckBoostC2Ev
FN:1226,1226,_ZN3MAS17IsolatedBuckBoostD0Ev
FN:1226,1226,_ZN3MAS17IsolatedBuckBoostD2Ev
FN:124,132,_ZN3MAS15CheckConstraintERKNSt7__cxx1112basic_stringIcSt11char_traitsIcESaIcEEERKNS_22ClassMemberConstraintsEl
FN:1240,1240,_ZNK3MAS17IsolatedBuckBoost24get_current_ripple_ratioEv
FN:1241,1241,_ZN3MAS17IsolatedBuckBoost24set_current_ripple_ratioESt8optionalIdE
FN:1246,1246,_ZNK3MAS17IsolatedBuckBoost22get_diode_voltage_dropEv
FN:1248,1248,_ZN3MAS17IsolatedBuckBoost22set_diode_voltage_dropERKd
FN:1253,1253,_ZNK3MAS17IsolatedBuckBoost14get_efficiencyEv
FN:1254,1254,_ZN3MAS17IsolatedBuckBoost14set_efficiencyESt8optionalIdE
FN:1259,1259,_ZNK3MAS17IsolatedBuckBoost17get_input_voltageEv
FN:1261,1261,_ZN3MAS17IsolatedBuckBoost17set_input_voltageERKNS_22DimensionWithToleranceE
FN:1266,1266,_ZNK3MAS17IsolatedBuckBoost26get_maximum_switch_currentEv
FN:1267,1267,_ZN3MAS17IsolatedBuckBoost26set_maximum_switch_currentESt8optionalIdE
FN:1272,1272,_ZNK3MAS17IsolatedBuckBoost20get_operating_pointsEv
FN:1274,1274,_ZN3MAS17IsolatedBuckBoost20set_operating_pointsERKSt6vectorINS_31IsolatedBuckBoostOperatingPointESaIS2_EE
FN:1289,1289,_ZN3MAS17LlcOperatingPointC2Ev
FN:1290,1290,_ZN3MAS17LlcOperatingPointD0Ev
FN:1290,1290,_ZN3MAS17LlcOperatingPointD2Ev
FN:1302,1302,_ZNK3MAS17LlcOperatingPoint23get_ambient_temperatureEv
FN:1304,1304,_ZN3MAS17LlcOperatingPoint23set_ambient_temperatureERKd
FN:1309,1309,_ZNK3MAS17LlcOperatingPoint19get_output_currentsEv
FN:1311,1311,_ZN3MAS17LlcOperatingPoint19set_output_currentsERKSt6vectorIdSaIdEE
FN:1316,1316,_ZNK3MAS17LlcOperatingPoint19get_output_voltagesEv
FN:1318,1318,_ZN3MAS17LlcOperatingPoint19set_output_voltagesERKSt6vectorIdSaIdEE
FN:1323,1323,_ZNK3MAS17LlcOperatingPoint23get_switching_frequencyEv
FN:1325,1325,_ZN3MAS17LlcOperatingPoint23set_switching_frequencyERKd
FN:1333,1333,_ZN3MAS11LlcResonantC2Ev
FN:1334,1334,_ZN3MAS11LlcResonantD0Ev
FN:1334,1334,_ZN3MAS11LlcResonantD2Ev
FN:134,142,_ZN3MAS15CheckConstraintERKNSt7__cxx1112basic_stringIcSt11char_traitsIcESaIcEEERKNS_22ClassMemberConstraintsEd
FN:1354,1354,_ZNK3MAS11LlcResonant15get_bridge_typeEv
FN:1355,1355,_ZN3MAS11LlcResonant15set_bridge_typeESt8optionalINS_13LlcBridgeTypeEE
FN:1361,1361,_ZN3MAS11LlcResonant14set_efficiencyESt8optionalIdE
FN:1366,1366,_ZNK3MAS11LlcResonant20get_inductance_ratioEv
FN:1367,1367,_ZN3MAS11LlcResonant20set_inductance_ratioESt8optionalIdE
FN:1372,1372,_ZNK3MAS11LlcResonant17get_input_voltageEv
FN:1374,1374,_ZN3MAS11LlcResonant17set_input_voltageERKNS_22DimensionWithToleranceE
FN:1379,1379,_ZNK3MAS11LlcResonant32get_integrated_resonant_inductorEv
FN:1380,1380,_ZN3MAS11LlcResonant32set_integrated_resonant_inductorESt8optionalIbE
FN:1385,1385,_ZNK3MAS11LlcResonant27get_max_switching_frequencyEv
FN:1387,1387,_ZN3MAS11LlcResonant27set_max_switching_frequencyERKd
FN:1392,1392,_ZNK3MAS11LlcResonant27get_min_switching_frequencyEv
FN:1394,1394,_ZN3MAS11LlcResonant27set_min_switching_frequencyERKd
FN:1399,1399,_ZNK3MAS11LlcResonant20get_operating_pointsEv
FN:1401,1401,_ZN3MAS11LlcResonant20set_operating_pointsERKSt6vectorINS_17LlcOperatingPointESaIS2_EE
FN:1406,1406,_ZNK3MAS11LlcResonant18get_quality_factorEv
FN:1407,1407,_ZN3MAS11LlcResonant18set_quality_factorESt8optionalIdE
FN:1414,1414,_ZN3MAS11LlcResonant24set_resonant_capacitanceESt8optionalIdE
FN:1419,1419,_ZNK3MAS11LlcResonant22get_resonant_frequencyEv
FN:1420,1420,_ZN3MAS11LlcResonant22set_resonant_frequencyESt8optionalIdE
FN:1427,1427,_ZN3MAS11LlcResonant21set_series_inductanceESt8optionalIdE
FN:1435,1435,_ZN3MAS18PsfbOperatingPointC2Ev
FN:1436,1436,_ZN3MAS18PsfbOperatingPointD0Ev
FN:1436,1436,_ZN3MAS18PsfbOperatingPointD2Ev
FN:1449,1449,_ZNK3MAS18PsfbOperatingPoint23get_ambient_temperatureEv
FN:1451,1451,_ZN3MAS18PsfbOperatingPoint23set_ambient_temperatureERKd
FN:1456,1456,_ZNK3MAS18PsfbOperatingPoint19get_output_currentsEv
FN:1458,1458,_ZN3MAS18PsfbOperatingPoint19set_output_currentsERKSt6vectorIdSaIdEE
FN:1463,1463,_ZNK3MAS18PsfbOperatingPoint19get_output_voltagesEv
FN:1465,1465,_ZN3MAS18PsfbOperatingPoint19set_output_voltagesERKSt6vectorIdSaIdEE
FN:1470,1470,_ZNK3MAS18PsfbOperatingPoint15get_phase_shiftEv
FN:1472,1472,_ZN3MAS18PsfbOperatingPoint15set_phase_shiftERKd
FN:1477,1477,_ZNK3MAS18PsfbOperatingPoint23get_switching_frequencyEv
FN:1479,1479,_ZN3MAS18PsfbOperatingPoint23set_switching_frequencyERKd
FN:1492,1492,_ZN3MAS20PhaseShiftFullBridgeC2Ev
FN:1493,1493,_ZN3MAS20PhaseShiftFullBridgeD0Ev
FN:1493,1493,_ZN3MAS20PhaseShiftFullBridgeD2Ev
FN:1510,1510,_ZN3MAS20PhaseShiftFullBridge14set_efficiencyESt8optionalIdE
FN:1515,1515,_ZNK3MAS20PhaseShiftFullBridge17get_input_voltageEv
FN:1517,1517,_ZN3MAS20PhaseShiftFullBridge17set_input_voltageERKNS_22DimensionWithToleranceE
FN:1523,1523,_ZN3MAS20PhaseShiftFullBridge23set_maximum_phase_shiftESt8optionalIdE
FN:1528,1528,_ZNK3MAS20PhaseShiftFullBridge20get_operating_pointsEv
FN:1530,1530,_ZN3MAS20PhaseShiftFullBridge20set_operating_pointsERKSt6vectorINS_18PsfbOperatingPointESaIS2_EE
FN:1535,1535,_ZNK3MAS20PhaseShiftFullBridge21get_output_inductanceEv
FN:1536,1536,_ZN3MAS20PhaseShiftFullBridge21set_output_inductanceESt8optionalIdE
FN:1541,1541,_ZNK3MAS20PhaseShiftFullBridge18get_rectifier_typeEv
FN:1542,1542,_ZN3MAS20PhaseShiftFullBridge18set_rectifier_typeESt8optionalINS_17PsfbRectifierTypeEE
FN:1548,1548,_ZNK3MAS20PhaseShiftFullBridge21get_series_inductanceEv
FN:1549,1549,_ZN3MAS20PhaseShiftFullBridge21set_series_inductanceESt8optionalIdE
FN:1554,1554,_ZNK3MAS20PhaseShiftFullBridge26get_use_leakage_inductanceEv
FN:1555,1555,_ZN3MAS20PhaseShiftFullBridge26set_use_leakage_inductanceESt8optionalIbE
FN:1563,1563,_ZN3MAS22PushPullOperatingPointC2Ev
FN:1564,1564,_ZN3MAS22PushPullOperatingPointD0Ev
FN:1564,1564,_ZN3MAS22PushPullOperatingPointD2Ev
FN:1576,1576,_ZNK3MAS22PushPullOperatingPoint23get_ambient_temperatureEv
FN:1578,1578,_ZN3MAS22PushPullOperatingPoint23set_ambient_temperatureERKd
FN:1583,1583,_ZNK3MAS22PushPullOperatingPoint19get_output_currentsEv
FN:1585,1585,_ZN3MAS22PushPullOperatingPoint19set_output_currentsERKSt6vectorIdSaIdEE
FN:1590,1590,_ZNK3MAS22PushPullOperatingPoint19get_output_voltagesEv
FN:1592,1592,_ZN3MAS22PushPullOperatingPoint19set_output_voltagesERKSt6vectorIdSaIdEE
FN:1597,1597,_ZNK3MAS22PushPullOperatingPoint23get_switching_frequencyEv
FN:1599,1599,_ZN3MAS22PushPullOperatingPoint23set_switching_frequencyERKd
FN:1607,1607,_ZN3MAS8PushPullC2Ev
FN:1608,1608,_ZN3MAS8PushPullD0Ev
FN:1608,1608,_ZN3MAS8PushPullD2Ev
FN:1624,1624,_ZNK3MAS8PushPull24get_current_ripple_ratioEv
FN:1626,1626,_ZN3MAS8PushPull24set_current_ripple_ratioERKd
FN:1631,1631,_ZNK3MAS8PushPull22get_diode_voltage_dropEv
FN:1633,1633,_ZN3MAS8PushPull22set_diode_voltage_dropERKd
FN:1638,1638,_ZNK3MAS8PushPull14get_duty_cycleEv
FN:1639,1639,_ZN3MAS8PushPull14set_duty_cycleESt8optionalIdE
FN:1644,1644,_ZNK3MAS8PushPull14get_efficiencyEv
FN:1645,1645,_ZN3MAS8PushPull14set_efficiencyESt8optionalIdE
FN:1650,1650,_ZNK3MAS8PushPull17get_input_voltageEv
FN:1652,1652,_ZN3MAS8PushPull17set_input_voltageERKNS_22DimensionWithToleranceE
FN:1657,1657,_ZNK3MAS8PushPull32get_maximum_drain_source_voltageEv
FN:1658,1658,_ZN3MAS8PushPull32set_maximum_drain_source_voltageESt8optionalIdE
FN:1663,1663,_ZNK3MAS8PushPull26get_maximum_switch_currentEv
FN:1664,1664,_ZN3MAS8PushPull26set_maximum_switch_currentESt8optionalIdE
FN:1669,1669,_ZNK3MAS8PushPull20get_operating_pointsEv
FN:1671,1671,_ZN3MAS8PushPull20set_operating_pointsERKSt6vectorINS_22PushPullOperatingPointESaIS2_EE
FN:1676,1676,_ZN3MAS19SupportedTopologiesC2Ev
FN:1677,1677,_ZN3MAS19SupportedTopologiesD0Ev
FN:1677,1677,_ZN3MAS19SupportedTopologiesD2Ev
FN:1695,1695,_ZN3MAS19SupportedTopologies9set_boostESt8optionalINS_5BoostEE
FN:1698,1698,_ZN3MAS19SupportedTopologies8set_buckESt8optionalINS_4BuckEE
FN:1701,1701,_ZN3MAS19SupportedTopologies17set_cllc_resonantESt8optionalINS_12CllcResonantEE
FN:1704,1704,_ZN3MAS19SupportedTopologies23set_current_transformerESt8optionalINS_18CurrentTransformerEE
FN:1707,1707,_ZN3MAS19SupportedTopologies22set_dual_active_bridgeESt8optionalINS_16DualActiveBridgeEE
FN:1710,1710,_ZN3MAS19SupportedTopologies11set_flybackESt8optionalINS_7FlybackEE
FN:1713,1713,_ZN3MAS19SupportedTopologies11set_forwardESt8optionalINS_7ForwardEE
FN:1716,1716,_ZN3MAS19SupportedTopologies17set_isolated_buckESt8optionalINS_12IsolatedBuckEE
FN:1719,1719,_ZN3MAS19SupportedTopologies23set_isolated_buck_boostESt8optionalINS_17IsolatedBuckBoostEE
FN:1722,1722,_ZN3MAS19SupportedTopologies16set_llc_resonantESt8optionalINS_11LlcResonantEE
FN:1725,1725,_ZN3MAS19SupportedTopologies27set_phase_shift_full_bridgeESt8optionalINS_20PhaseShiftFullBridgeEE
FN:1728,1728,_ZN3MAS19SupportedTopologies13set_push_pullESt8optionalINS_8PushPullEE
FN:1733,1733,_ZN3MAS20ConverterInformationC2Ev
FN:1734,1734,_ZN3MAS20ConverterInformationD0Ev
FN:1734,1734,_ZN3MAS20ConverterInformationD2Ev
FN:1741,1741,_ZN3MAS20ConverterInformation24set_supported_topologiesESt8optionalINS_19SupportedTopologiesEE
FN:1775,1775,_ZN3MAS22InsulationRequirementsC2Ev
FN:1776,1776,_ZN3MAS22InsulationRequirementsD0Ev
FN:1776,1776,_ZN3MAS22InsulationRequirementsD2Ev
FN:1791,1791,_ZNK3MAS22InsulationRequirements12get_altitudeEv
FN:1792,1792,_ZN3MAS22InsulationRequirements12set_altitudeESt8optionalINS_22DimensionWithToleranceEE
FN:1797,1797,_ZNK3MAS22InsulationRequirements7get_ctiEv
FN:1798,1798,_ZN3MAS22InsulationRequirements7set_ctiESt8optionalINS_3CtiEE
FN:1800,1800,_ZNK3MAS22InsulationRequirements19get_insulation_typeEv
FN:1801,1801,_ZN3MAS22InsulationRequirements19set_insulation_typeESt8optionalINS_14InsulationTypeEE
FN:1806,1806,_ZNK3MAS22InsulationRequirements23get_main_supply_voltageEv
FN:1807,1807,_ZN3MAS22InsulationRequirements23set_main_supply_voltageESt8optionalINS_22DimensionWithToleranceEE
FN:1812,1812,_ZNK3MAS22InsulationRequirements24get_overvoltage_categoryEv
FN:1813,1813,_ZN3MAS22InsulationRequirements24set_overvoltage_categoryESt8optionalINS_19OvervoltageCategoryEE
FN:1818,1818,_ZNK3MAS22InsulationRequirements20get_pollution_degreeEv
FN:1819,1819,_ZN3MAS22InsulationRequirements20set_pollution_degreeESt8optionalINS_15PollutionDegreeEE
FN:1824,1824,_ZNK3MAS22InsulationRequirements13get_standardsEv
FN:1825,1825,_ZN3MAS22InsulationRequirements13set_standardsESt8optionalISt6vectorINS_19InsulationStandardsESaIS3_EEE
FN:1843,1843,_ZN3MAS17MaximumDimensionsC2Ev
FN:1844,1844,_ZN3MAS17MaximumDimensionsD0Ev
FN:1844,1844,_ZN3MAS17MaximumDimensionsD2Ev
FN:1852,1852,_ZNK3MAS17MaximumDimensions9get_depthEv
FN:1853,1853,_ZN3MAS17MaximumDimensions9set_depthESt8optionalIdE
FN:1855,1855,_ZNK3MAS17MaximumDimensions10get_heightEv
FN:1856,1856,_ZN3MAS17MaximumDimensions10set_heightESt8optionalIdE
FN:1858,1858,_ZNK3MAS17MaximumDimensions9get_widthEv
FN:1859,1859,_ZN3MAS17MaximumDimensions9set_widthESt8optionalIdE
FN:1867,1869,_ZN3MAS14ImpedancePointC2Ev
FN:1870,1870,_ZN3MAS14ImpedancePointD0Ev
FN:1870,1870,_ZN3MAS14ImpedancePointD2Ev
FN:1880,1880,_ZNK3MAS14ImpedancePoint18get_imaginary_partEv
FN:1881,1881,_ZN3MAS14ImpedancePoint18set_imaginary_partESt8optionalIdE
FN:1886,1886,_ZNK3MAS14ImpedancePoint13get_magnitudeEv
FN:1888,1888,_ZN3MAS14ImpedancePoint13set_magnitudeERKd
FN:1890,1890,_ZNK3MAS14ImpedancePoint9get_phaseEv
FN:1891,1891,_ZN3MAS14ImpedancePoint9set_phaseESt8optionalIdE
FN:1893,1893,_ZNK3MAS14ImpedancePoint13get_real_partEv
FN:1894,1894,_ZN3MAS14ImpedancePoint13set_real_partESt8optionalIdE
FN:1899,1901,_ZN3MAS20ImpedanceAtFrequencyC2Ev
FN:1902,1902,_ZN3MAS20ImpedanceAtFrequencyD0Ev
FN:1902,1902,_ZN3MAS20ImpedanceAtFrequencyD2Ev
FN:1910,1910,_ZNK3MAS20ImpedanceAtFrequency13get_frequencyEv
FN:1912,1912,_ZN3MAS20ImpedanceAtFrequency13set_frequencyERKd
FN:1914,1914,_ZNK3MAS20ImpedanceAtFrequency13get_impedanceEv
FN:1916,1916,_ZN3MAS20ImpedanceAtFrequency13set_impedanceERKNS_14ImpedancePointE
FN:192,198,_ZN3MAS18get_stack_optionalINS_10TopologiesEEESt8optionalIT_ERKN8nlohmann16json_abi_v3_11_310basic_jsonISt3mapSt6vectorNSt7__cxx1112basic_stringIcSt11char_traitsIcESaIcEEEblmdSaNS6_14adl_serializerES9_IhSaIhEEvEEPKc
FN:192,198,_ZN3MAS18get_stack_optionalINS_11ApplicationEEESt8optionalIT_ERKN8nlohmann16json_abi_v3_11_310basic_jsonISt3mapSt6vectorNSt7__cxx1112basic_stringIcSt11char_traitsIcESaIcEEEblmdSaNS6_14adl_serializerES9_IhSaIhEEvEEPKc
FN:192,198,_ZN3MAS18get_stack_optionalINS_11ColumnShapeEEESt8optionalIT_ERKN8nlohmann16json_abi_v3_11_310basic_jsonISt3mapSt6vectorNSt7__cxx1112basic_stringIcSt11char_traitsIcESaIcEEEblmdSaNS6_14adl_serializerES9_IhSaIhEEvEEPKc
FN:192,198,_ZN3MAS18get_stack_optionalINS_11LlcResonantEEESt8optionalIT_ERKN8nlohmann16json_abi_v3_11_310basic_jsonISt3mapSt6vectorNSt7__cxx1112basic_stringIcSt11char_traitsIcESaIcEEEblmdSaNS6_14adl_serializerES9_IhSaIhEEvEEPKc
FN:192,198,_ZN3MAS18get_stack_optionalINS_11OhmicLossesEEESt8optionalIT_ERKN8nlohmann16json_abi_v3_11_310basic_jsonISt3mapSt6vectorNSt7__cxx1112basic_stringIcSt11char_traitsIcESaIcEEEblmdSaNS6_14adl_serializerES9_IhSaIhEEvEEPKc
FN:192,198,_ZN3MAS18get_stack_optionalINS_11VoltageTypeEEESt8optionalIT_ERKN8nlohmann16json_abi_v3_11_310basic_jsonISt3mapSt6vectorNSt7__cxx1112basic_stringIcSt11char_traitsIcESaIcEEEblmdSaNS6_14adl_serializerES9_IhSaIhEEvEEPKc
FN:192,198,_ZN3MAS18get_stack_optionalINS_12CllcResonantEEESt8optionalIT_ERKN8nlohmann16json_abi_v3_11_310basic_jsonISt3mapSt6vectorNSt7__cxx1112basic_stringIcSt11char_traitsIcESaIcEEEblmdSaNS6_14adl_serializerES9_IhSaIhEEvEEPKc
FN:192,198,_ZN3MAS18get_stack_optionalINS_12FlybackModesEEESt8optionalIT_ERKN8nlohmann16json_abi_v3_11_310basic_jsonISt3mapSt6vectorNSt7__cxx1112basic_stringIcSt11char_traitsIcESaIcEEEblmdSaNS6_14adl_serializerES9_IhSaIhEEvEEPKc
FN:192,198,_ZN3MAS18get_stack_optionalINS_12IsolatedBuckEEESt8optionalIT_ERKN8nlohmann16json_abi_v3_11_310basic_jsonISt3mapSt6vectorNSt7__cxx1112basic_stringIcSt11char_traitsIcESaIcEEEblmdSaNS6_14adl_serializerES9_IhSaIhEEvEEPKc
FN:192,198,_ZN3MAS18get_stack_optionalINS_12WindingStyleEEESt8optionalIT_ERKN8nlohmann16json_abi_v3_11_310basic_jsonISt3mapSt6vectorNSt7__cxx1112basic_stringIcSt11char_traitsIcESaIcEEEblmdSaNS6_14adl_serializerES9_IhSaIhEEvEEPKc
FN:192,198,_ZN3MAS18get_stack_optionalINS_12WireStandardEEESt8optionalIT_ERKN8nlohmann16json_abi_v3_11_310basic_jsonISt3mapSt6vectorNSt7__cxx1112basic_stringIcSt11char_traitsIcESaIcEEEblmdSaNS6_14adl_serializerES9_IhSaIhEEvEEPKc
FN:192,198,_ZN3MAS18get_stack_optionalINS_13CoilAlignmentEEESt8optionalIT_ERKN8nlohmann16json_abi_v3_11_310basic_jsonISt3mapSt6vectorNSt7__cxx1112basic_stringIcSt11char_traitsIcESaIcEEEblmdSaNS6_14adl_serializerES9_IhSaIhEEvEEPKc
FN:192,198,_ZN3MAS18get_stack_optionalINS_13LlcBridgeTypeEEESt8optionalIT_ERKN8nlohmann16json_abi_v3_11_310basic_jsonISt3mapSt6vectorNSt7__cxx1112basic_stringIcSt11char_traitsIcESaIcEEEblmdSaNS6_14adl_serializerES9_IhSaIhEEvEEPKc
FN:192,198,_ZN3MAS18get_stack_optionalINS_13WaveformLabelEEESt8optionalIT_ERKN8nlohmann16json_abi_v3_11_310basic_jsonISt3mapSt6vectorNSt7__cxx1112basic_stringIcSt11char_traitsIcESaIcEEEblmdSaNS6_14adl_serializerES9_IhSaIhEEvEEPKc
FN:192,198,_ZN3MAS18get_stack_optionalINS_14ConnectionTypeEEESt8optionalIT_ERKN8nlohmann16json_abi_v3_11_310basic_jsonISt3mapSt6vectorNSt7__cxx1112basic_stringIcSt11char_traitsIcESaIcEEEblmdSaNS6_14adl_serializerES9_IhSaIhEEvEEPKc
FN:192,198,_ZN3MAS18get_stack_optionalINS_14InsulationTypeEEESt8optionalIT_ERKN8nlohmann16json_abi_v3_11_310basic_jsonISt3mapSt6vectorNSt7__cxx1112basic_stringIcSt11char_traitsIcESaIcEEEblmdSaNS6_14adl_serializerES9_IhSaIhEEvEEPKc
FN:192,198,_ZN3MAS18get_stack_optionalINS_14ModulationTypeEEESt8optionalIT_ERKN8nlohmann16json_abi_v3_11_310basic_jsonISt3mapSt6vectorNSt7__cxx1112basic_stringIcSt11char_traitsIcESaIcEEEblmdSaNS6_14adl_serializerES9_IhSaIhEEvEEPKc
FN:192,198,_ZN3MAS18get_stack_optionalINS_14OperatingPointEEESt8optionalIT_ERKN8nlohmann16json_abi_v3_11_310basic_jsonISt3mapSt6vectorNSt7__cxx1112basic_stringIcSt11char_traitsIcESaIcEEEblmdSaNS6_14adl_serializerES9_IhSaIhEEvEEPKc
FN:192,198,_ZN3MAS18get_stack_optionalINS_14SubApplicationEEESt8optionalIT_ERKN8nlohmann16json_abi_v3_11_310basic_jsonISt3mapSt6vectorNSt7__cxx1112basic_stringIcSt11char_traitsIcESaIcEEEblmdSaNS6_14adl_serializerES9_IhSaIhEEvEEPKc
FN:192,198,_ZN3MAS18get_stack_optionalINS_15FrequencyFactorEEESt8optionalIT_ERKN8nlohmann16json_abi_v3_11_310basic_jsonISt3mapSt6vectorNSt7__cxx1112basic_stringIcSt11char_traitsIcESaIcEEEblmdSaNS6_14adl_serializerES9_IhSaIhEEvEEPKc
FN:192,198,_ZN3MAS18get_stack_optionalINS_15ImpedanceOutputEEESt8optionalIT_ERKN8nlohmann16json_abi_v3_11_310basic_jsonISt3mapSt6vectorNSt7__cxx1112basic_stringIcSt11char_traitsIcESaIcEEEblmdSaNS6_14adl_serializerES9_IhSaIhEEvEEPKc
FN:192,198,_ZN3MAS18get_stack_optionalINS_15MagneticCircuitEEESt8optionalIT_ERKN8nlohmann16json_abi_v3_11_310basic_jsonISt3mapSt6vectorNSt7__cxx1112basic_stringIcSt11char_traitsIcESaIcEEEblmdSaNS6_14adl_serializerES9_IhSaIhEEvEEPKc
FN:192,198,_ZN3MAS18get_stack_optionalINS_15PollutionDegreeEEESt8optionalIT_ERKN8nlohmann16json_abi_v3_11_310basic_jsonISt3mapSt6vectorNSt7__cxx1112basic_stringIcSt11char_traitsIcESaIcEEEblmdSaNS6_14adl_serializerES9_IhSaIhEEvEEPKc
FN:192,198,_ZN3MAS18get_stack_optionalINS_15TurnOrientationEEESt8optionalIT_ERKN8nlohmann16json_abi_v3_11_310basic_jsonISt3mapSt6vectorNSt7__cxx1112basic_stringIcSt11char_traitsIcESaIcEEEblmdSaNS6_14adl_serializerES9_IhSaIhEEvEEPKc
FN:192,198,_ZN3MAS18get_stack_optionalINS_16CoordinateSystemEEESt8optionalIT_ERKN8nlohmann16json_abi_v3_11_310basic_jsonISt3mapSt6vectorNSt7__cxx1112basic_stringIcSt11char_traitsIcESaIcEEEblmdSaNS6_14adl_serializerES9_IhSaIhEEvEEPKc
FN:192,198,_ZN3MAS18get_stack_optionalINS_16CoreLossesOutputEEESt8optionalIT_ERKN8nlohmann16json_abi_v3_11_310basic_jsonISt3mapSt6vectorNSt7__cxx1112basic_stringIcSt11char_traitsIcESaIcEEEblmdSaNS6_14adl_serializerES9_IhSaIhEEvEEPKc
FN:192,198,_ZN3MAS18get_stack_optionalINS_16DualActiveBridgeEEESt8optionalIT_ERKN8nlohmann16json_abi_v3_11_310basic_jsonISt3mapSt6vectorNSt7__cxx1112basic_stringIcSt11char_traitsIcESaIcEEEblmdSaNS6_14adl_serializerES9_IhSaIhEEvEEPKc
FN:192,198,_ZN3MAS18get_stack_optionalINS_16InductanceOutputEEESt8optionalIT_ERKN8nlohmann16json_abi_v3_11_310basic_jsonISt3mapSt6vectorNSt7__cxx1112basic_stringIcSt11char_traitsIcESaIcEEEblmdSaNS6_14adl_serializerES9_IhSaIhEEvEEPKc
FN:192,198,_ZN3MAS18get_stack_optionalINS_16ManufacturerInfoEEESt8optionalIT_ERKN8nlohmann16json_abi_v3_11_310basic_jsonISt3mapSt6vectorNSt7__cxx1112basic_stringIcSt11char_traitsIcESaIcEEEblmdSaNS6_14adl_serializerES9_IhSaIhEEvEEPKc
FN:192,198,_ZN3MAS18get_stack_optionalINS_16SignalDescriptorEEESt8optionalIT_ERKN8nlohmann16json_abi_v3_11_310basic_jsonISt3mapSt6vectorNSt7__cxx1112basic_stringIcSt11char_traitsIcESaIcEEEblmdSaNS6_14adl_serializerES9_IhSaIhEEvEEPKc
FN:192,198,_ZN3MAS18get_stack_optionalINS_16TemperaturePointEEESt8optionalIT_ERKN8nlohmann16json_abi_v3_11_310basic_jsonISt3mapSt6vectorNSt7__cxx1112basic_stringIcSt11char_traitsIcESaIcEEEblmdSaNS6_14adl_serializerES9_IhSaIhEEvEEPKc
FN:192,198,_ZN3MAS18get_stack_optionalINS_16WiringTechnologyEEESt8optionalIT_ERKN8nlohmann16json_abi_v3_11_310basic_jsonISt3mapSt6vectorNSt7__cxx1112basic_stringIcSt11char_traitsIcESaIcEEEblmdSaNS6_14adl_serializerES9_IhSaIhEEvEEPKc
FN:192,198,_ZN3MAS18get_stack_optionalINS_17IsolatedBuckBoostEEESt8optionalIT_ERKN8nlohmann16json_abi_v3_11_310basic_jsonISt3mapSt6vectorNSt7__cxx1112basic_stringIcSt11char_traitsIcESaIcEEEblmdSaNS6_14adl_serializerES9_IhSaIhEEvEEPKc
FN:192,198,_ZN3MAS18get_stack_optionalINS_17MaximumDimensionsEEESt8optionalIT_ERKN8nlohmann16json_abi_v3_11_310basic_jsonISt3mapSt6vectorNSt7__cxx1112basic_stringIcSt11char_traitsIcESaIcEEEblmdSaNS6_14adl_serializerES9_IhSaIhEEvEEPKc
FN:192,198,_ZN3MAS18get_stack_optionalINS_17PsfbRectifierTypeEEESt8optionalIT_ERKN8nlohmann16json_abi_v3_11_310basic_jsonISt3mapSt6vectorNSt7__cxx1112basic_stringIcSt11char_traitsIcESaIcEEEblmdSaNS6_14adl_serializerES9_IhSaIhEEvEEPKc
FN:192,198,_ZN3MAS18get_stack_optionalINS_17TemperatureFactorEEESt8optionalIT_ERKN8nlohmann16json_abi_v3_11_310basic_jsonISt3mapSt6vectorNSt7__cxx1112basic_stringIcSt11char_traitsIcESaIcEEEblmdSaNS6_14adl_serializerES9_IhSaIhEEvEEPKc
FN:192,198,_ZN3MAS18get_stack_optionalINS_17TemperatureOutputEEESt8optionalIT_ERKN8nlohmann16json_abi_v3_11_310basic_jsonISt3mapSt6vectorNSt7__cxx1112basic_stringIcSt11char_traitsIcESaIcEEEblmdSaNS6_14adl_serializerES9_IhSaIhEEvEEPKc
FN:192,198,_ZN3MAS18get_stack_optionalINS_18CurrentTransformerEEESt8optionalIT_ERKN8nlohmann16json_abi_v3_11_310basic_jsonISt3mapSt6vectorNSt7__cxx1112basic_stringIcSt11char_traitsIcESaIcEEEblmdSaNS6_14adl_serializerES9_IhSaIhEEvEEPKc
FN:192,198,_ZN3MAS18get_stack_optionalINS_18WindingLossElementEEESt8optionalIT_ERKN8nlohmann16json_abi_v3_11_310basic_jsonISt3mapSt6vectorNSt7__cxx1112basic_stringIcSt11char_traitsIcESaIcEEEblmdSaNS6_14adl_serializerES9_IhSaIhEEvEEPKc
FN:192,198,_ZN3MAS18get_stack_optionalINS_18WindingOrientationEEESt8optionalIT_ERKN8nlohmann16json_abi_v3_11_310basic_jsonISt3mapSt6vectorNSt7__cxx1112basic_stringIcSt11char_traitsIcESaIcEEEblmdSaNS6_14adl_serializerES9_IhSaIhEEvEEPKc
FN:192,198,_ZN3MAS18get_stack_optionalINS_18WindingWindowShapeEEESt8optionalIT_ERKN8nlohmann16json_abi_v3_11_310basic_jsonISt3mapSt6vectorNSt7__cxx1112basic_stringIcSt11char_traitsIcESaIcEEEblmdSaNS6_14adl_serializerES9_IhSaIhEEvEEPKc
FN:192,198,_ZN3MAS18get_stack_optionalINS_19MaterialCompositionEEESt8optionalIT_ERKN8nlohmann16json_abi_v3_11_310basic_jsonISt3mapSt6vectorNSt7__cxx1112basic_stringIcSt11char_traitsIcESaIcEEEblmdSaNS6_14adl_serializerES9_IhSaIhEEvEEPKc
FN:192,198,_ZN3MAS18get_stack_optionalINS_19OvervoltageCategoryEEESt8optionalIT_ERKN8nlohmann16json_abi_v3_11_310basic_jsonISt3mapSt6vectorNSt7__cxx1112basic_stringIcSt11char_traitsIcESaIcEEEblmdSaNS6_14adl_serializerES9_IhSaIhEEvEEPKc
FN:192,198,_ZN3MAS18get_stack_optionalINS_19SupportedTopologiesEEESt8optionalIT_ERKN8nlohmann16json_abi_v3_11_310basic_jsonISt3mapSt6vectorNSt7__cxx1112basic_stringIcSt11char_traitsIcESaIcEEEblmdSaNS6_14adl_serializerES9_IhSaIhEEvEEPKc
FN:192,198,_ZN3MAS18get_stack_optionalINS_19WindingLossesOutputEEESt8optionalIT_ERKN8nlohmann16json_abi_v3_11_310basic_jsonISt3mapSt6vectorNSt7__cxx1112basic_stringIcSt11char_traitsIcESaIcEEEblmdSaNS6_14adl_serializerES9_IhSaIhEEvEEPKc
FN:192,198,_ZN3MAS18get_stack_optionalINS_20ConverterInformationEEESt8optionalIT_ERKN8nlohmann16json_abi_v3_11_310basic_jsonISt3mapSt6vectorNSt7__cxx1112basic_stringIcSt11char_traitsIcESaIcEEEblmdSaNS6_14adl_serializerES9_IhSaIhEEvEEPKc
FN:192,198,_ZN3MAS18get_stack_optionalINS_20PhaseShiftFullBridgeEEESt8optionalIT_ERKN8nlohmann16json_abi_v3_11_310basic_jsonISt3mapSt6vectorNSt7__cxx1112basic_stringIcSt11char_traitsIcESaIcEEEblmdSaNS6_14adl_serializerES9_IhSaIhEEvEEPKc
FN:192,198,_ZN3MAS18get_stack_optionalINS_22DimensionWithToleranceEEESt8optionalIT_ERKN8nlohmann16json_abi_v3_11_310basic_jsonISt3mapSt6vectorNSt7__cxx1112basic_stringIcSt11char_traitsIcESaIcEEEblmdSaNS6_14adl_serializerES9_IhSaIhEEvEEPKc
FN:192,198,_ZN3MAS18get_stack_optionalINS_22InsulationRequirementsEEESt8optionalIT_ERKN8nlohmann16json_abi_v3_11_310basic_jsonISt3mapSt6vectorNSt7__cxx1112basic_stringIcSt11char_traitsIcESaIcEEEblmdSaNS6_14adl_serializerES9_IhSaIhEEvEEPKc
FN:192,198,_ZN3MAS18get_stack_optionalINS_23ComplexPermeabilityDataEEESt8optionalIT_ERKN8nlohmann16json_abi_v3_11_310basic_jsonISt3mapSt6vectorNSt7__cxx1112basic_stringIcSt11char_traitsIcESaIcEEEblmdSaNS6_14adl_serializerES9_IhSaIhEEvEEPKc
FN:192,198,_ZN3MAS18get_stack_optionalINS_23LeakageInductanceOutputEEESt8optionalIT_ERKN8nlohmann16json_abi_v3_11_310basic_jsonISt3mapSt6vectorNSt7__cxx1112basic_stringIcSt11char_traitsIcESaIcEEEblmdSaNS6_14adl_serializerES9_IhSaIhEEvEEPKc
FN:192,198,_ZN3MAS18get_stack_optionalINS_23TurnCrossSectionalShapeEEESt8optionalIT_ERKN8nlohmann16json_abi_v3_11_310basic_jsonISt3mapSt6vectorNSt7__cxx1112basic_stringIcSt11char_traitsIcESaIcEEEblmdSaNS6_14adl_serializerES9_IhSaIhEEvEEPKc
FN:192,198,_ZN3MAS18get_stack_optionalINS_24CoreProcessedDescriptionEEESt8optionalIT_ERKN8nlohmann16json_abi_v3_11_310basic_jsonISt3mapSt6vectorNSt7__cxx1112basic_stringIcSt11char_traitsIcESaIcEEEblmdSaNS6_14adl_serializerES9_IhSaIhEEvEEPKc
FN:192,198,_ZN3MAS18get_stack_optionalINS_24MagneticManufacturerInfoEEESt8optionalIT_ERKN8nlohmann16json_abi_v3_11_310basic_jsonISt3mapSt6vectorNSt7__cxx1112basic_stringIcSt11char_traitsIcESaIcEEEblmdSaNS6_14adl_serializerES9_IhSaIhEEvEEPKc
FN:192,198,_ZN3MAS18get_stack_optionalINS_25InsulationWireCoatingTypeEEESt8optionalIT_ERKN8nlohmann16json_abi_v3_11_310basic_jsonISt3mapSt6vectorNSt7__cxx1112basic_stringIcSt11char_traitsIcESaIcEEEblmdSaNS6_14adl_serializerES9_IhSaIhEEvEEPKc
FN:192,198,_ZN3MAS18get_stack_optionalINS_25MagneticFieldDcBiasFactorEEESt8optionalIT_ERKN8nlohmann16json_abi_v3_11_310basic_jsonISt3mapSt6vectorNSt7__cxx1112basic_stringIcSt11char_traitsIcESaIcEEEblmdSaNS6_14adl_serializerES9_IhSaIhEEvEEPKc
FN:192,198,_ZN3MAS18get_stack_optionalINS_25MagneticFluxDensityFactorEEESt8optionalIT_ERKN8nlohmann16json_abi_v3_11_310basic_jsonISt3mapSt6vectorNSt7__cxx1112basic_stringIcSt11char_traitsIcESaIcEEEblmdSaNS6_14adl_serializerES9_IhSaIhEEvEEPKc
FN:192,198,_ZN3MAS18get_stack_optionalINS_27BobbinFunctionalDescriptionEEESt8optionalIT_ERKN8nlohmann16json_abi_v3_11_310basic_jsonISt3mapSt6vectorNSt7__cxx1112basic_stringIcSt11char_traitsIcESaIcEEEblmdSaNS6_14adl_serializerES9_IhSaIhEEvEEPKc
FN:192,198,_ZN3MAS18get_stack_optionalINS_27CoreMaterialRecommendationsEEESt8optionalIT_ERKN8nlohmann16json_abi_v3_11_310basic_jsonISt3mapSt6vectorNSt7__cxx1112basic_stringIcSt11char_traitsIcESaIcEEEblmdSaNS6_14adl_serializerES9_IhSaIhEEvEEPKc
FN:192,198,_ZN3MAS18get_stack_optionalINS_28InsulationCoordinationOutputEEESt8optionalIT_ERKN8nlohmann16json_abi_v3_11_310basic_jsonISt3mapSt6vectorNSt7__cxx1112basic_stringIcSt11char_traitsIcESaIcEEEblmdSaNS6_14adl_serializerES9_IhSaIhEEvEEPKc
FN:192,198,_ZN3MAS18get_stack_optionalINS_28RoshenAdditionalCoefficientsEEESt8optionalIT_ERKN8nlohmann16json_abi_v3_11_310basic_jsonISt3mapSt6vectorNSt7__cxx1112basic_stringIcSt11char_traitsIcESaIcEEEblmdSaNS6_14adl_serializerES9_IhSaIhEEvEEPKc
FN:192,198,_ZN3MAS18get_stack_optionalINS_30CoreBobbinProcessedDescriptionEEESt8optionalIT_ERKN8nlohmann16json_abi_v3_11_310basic_jsonISt3mapSt6vectorNSt7__cxx1112basic_stringIcSt11char_traitsIcESaIcEEEblmdSaNS6_14adl_serializerES9_IhSaIhEEvEEPKc
FN:192,198,_ZN3MAS18get_stack_optionalINS_31WindingWindowCurrentFieldOutputEEESt8optionalIT_ERKN8nlohmann16json_abi_v3_11_310basic_jsonISt3mapSt6vectorNSt7__cxx1112basic_stringIcSt11char_traitsIcESaIcEEEblmdSaNS6_14adl_serializerES9_IhSaIhEEvEEPKc
FN:192,198,_ZN3MAS18get_stack_optionalINS_32InitialPermeabilitModifierMethodEEESt8optionalIT_ERKN8nlohmann16json_abi_v3_11_310basic_jsonISt3mapSt6vectorNSt7__cxx1112basic_stringIcSt11char_traitsIcESaIcEEEblmdSaNS6_14adl_serializerES9_IhSaIhEEvEEPKc
FN:192,198,_ZN3MAS18get_stack_optionalINS_35MagneticManufacturerRecommendationsEEESt8optionalIT_ERKN8nlohmann16json_abi_v3_11_310basic_jsonISt3mapSt6vectorNSt7__cxx1112basic_stringIcSt11char_traitsIcESaIcEEEblmdSaNS6_14adl_serializerES9_IhSaIhEEvEEPKc
FN:192,198,_ZN3MAS18get_stack_optionalINS_38WindingWindowCurrentDensityFieldOutputEEESt8optionalIT_ERKN8nlohmann16json_abi_v3_11_310basic_jsonISt3mapSt6vectorNSt7__cxx1112basic_stringIcSt11char_traitsIcESaIcEEEblmdSaNS6_14adl_serializerES9_IhSaIhEEvEEPKc
FN:192,198,_ZN3MAS18get_stack_optionalINS_3CtiEEESt8optionalIT_ERKN8nlohmann16json_abi_v3_11_310basic_jsonISt3mapSt6vectorNSt7__cxx1112basic_stringIcSt11char_traitsIcESaIcEEEblmdSaNS6_14adl_serializerES9_IhSaIhEEvEEPKc
FN:192,198,_ZN3MAS18get_stack_optionalINS_40WindingWindowMagneticStrengthFieldOutputEEESt8optionalIT_ERKN8nlohmann16json_abi_v3_11_310basic_jsonISt3mapSt6vectorNSt7__cxx1112basic_stringIcSt11char_traitsIcESaIcEEEblmdSaNS6_14adl_serializerES9_IhSaIhEEvEEPKc
FN:192,198,_ZN3MAS18get_stack_optionalINS_4BuckEEESt8optionalIT_ERKN8nlohmann16json_abi_v3_11_310basic_jsonISt3mapSt6vectorNSt7__cxx1112basic_stringIcSt11char_traitsIcESaIcEEEblmdSaNS6_14adl_serializerES9_IhSaIhEEvEEPKc
FN:192,198,_ZN3MAS18get_stack_optionalINS_5BoostEEESt8optionalIT_ERKN8nlohmann16json_abi_v3_11_310basic_jsonISt3mapSt6vectorNSt7__cxx1112basic_stringIcSt11char_traitsIcESaIcEEEblmdSaNS6_14adl_serializerES9_IhSaIhEEvEEPKc
FN:192,198,_ZN3MAS18get_stack_optionalINS_6MarketEEESt8optionalIT_ERKN8nlohmann16json_abi_v3_11_310basic_jsonISt3mapSt6vectorNSt7__cxx1112basic_stringIcSt11char_traitsIcESaIcEEEblmdSaNS6_14adl_serializerES9_IhSaIhEEvEEPKc
FN:192,198,_ZN3MAS18get_stack_optionalINS_6PinoutEEESt8optionalIT_ERKN8nlohmann16json_abi_v3_11_310basic_jsonISt3mapSt6vectorNSt7__cxx1112basic_stringIcSt11char_traitsIcESaIcEEEblmdSaNS6_14adl_serializerES9_IhSaIhEEvEEPKc
FN:192,198,_ZN3MAS18get_stack_optionalINS_6StatusEEESt8optionalIT_ERKN8nlohmann16json_abi_v3_11_310basic_jsonISt3mapSt6vectorNSt7__cxx1112basic_stringIcSt11char_traitsIcESaIcEEEblmdSaNS6_14adl_serializerES9_IhSaIhEEvEEPKc
FN:192,198,_ZN3MAS18get_stack_optionalINS_7CoatingEEESt8optionalIT_ERKN8nlohmann16json_abi_v3_11_310basic_jsonISt3mapSt6vectorNSt7__cxx1112basic_stringIcSt11char_traitsIcESaIcEEEblmdSaNS6_14adl_serializerES9_IhSaIhEEvEEPKc
FN:192,198,_ZN3MAS18get_stack_optionalINS_7CoolingEEESt8optionalIT_ERKN8nlohmann16json_abi_v3_11_310basic_jsonISt3mapSt6vectorNSt7__cxx1112basic_stringIcSt11char_traitsIcESaIcEEEblmdSaNS6_14adl_serializerES9_IhSaIhEEvEEPKc
FN:192,198,_ZN3MAS18get_stack_optionalINS_7FlybackEEESt8optionalIT_ERKN8nlohmann16json_abi_v3_11_310basic_jsonISt3mapSt6vectorNSt7__cxx1112basic_stringIcSt11char_traitsIcESaIcEEEblmdSaNS6_14adl_serializerES9_IhSaIhEEvEEPKc
FN:192,198,_ZN3MAS18get_stack_optionalINS_7ForwardEEESt8optionalIT_ERKN8nlohmann16json_abi_v3_11_310basic_jsonISt3mapSt6vectorNSt7__cxx1112basic_stringIcSt11char_traitsIcESaIcEEEblmdSaNS6_14adl_serializerES9_IhSaIhEEvEEPKc
FN:192,198,_ZN3MAS18get_stack_optionalINS_8PushPullEEESt8optionalIT_ERKN8nlohmann16json_abi_v3_11_310basic_jsonISt3mapSt6vectorNSt7__cxx1112basic_stringIcSt11char_traitsIcESaIcEEEblmdSaNS6_14adl_serializerES9_IhSaIhEEvEEPKc
FN:192,198,_ZN3MAS18get_stack_optionalINS_8WaveformEEESt8optionalIT_ERKN8nlohmann16json_abi_v3_11_310basic_jsonISt3mapSt6vectorNSt7__cxx1112basic_stringIcSt11char_traitsIcESaIcEEEblmdSaNS6_14adl_serializerES9_IhSaIhEEvEEPKc
FN:192,198,_ZN3MAS18get_stack_optionalINS_9DirectionEEESt8optionalIT_ERKN8nlohmann16json_abi_v3_11_310basic_jsonISt3mapSt6vectorNSt7__cxx1112basic_stringIcSt11char_traitsIcESaIcEEEblmdSaNS6_14adl_serializerES9_IhSaIhEEvEEPKc
FN:192,198,_ZN3MAS18get_stack_optionalINS_9HarmonicsEEESt8optionalIT_ERKN8nlohmann16json_abi_v3_11_310basic_jsonISt3mapSt6vectorNSt7__cxx1112basic_stringIcSt11char_traitsIcESaIcEEEblmdSaNS6_14adl_serializerES9_IhSaIhEEvEEPKc
FN:192,198,_ZN3MAS18get_stack_optionalINS_9ProcessedEEESt8optionalIT_ERKN8nlohmann16json_abi_v3_11_310basic_jsonISt3mapSt6vectorNSt7__cxx1112basic_stringIcSt11char_traitsIcESaIcEEEblmdSaNS6_14adl_serializerES9_IhSaIhEEvEEPKc
FN:192,198,_ZN3MAS18get_stack_optionalINSt7__cxx1112basic_stringIcSt11char_traitsIcESaIcEEEEESt8optionalIT_ERKN8nlohmann16json_abi_v3_11_310basic_jsonISt3mapSt6vectorS6_blmdSaNSB_14adl_serializerESE_IhSaIhEEvEEPKc
FN:192,198,_ZN3MAS18get_stack_optionalISt3mapINSt7__cxx1112basic_stringIcSt11char_traitsIcESaIcEEENS_26InitialPermeabilitModifierESt4lessIS7_ESaISt4pairIKS7_S8_EEEEESt8optionalIT_ERKN8nlohmann16json_abi_v3_11_310basic_jsonIS1_St6vectorS7_blmdSaNSK_14adl_serializerESM_IhSaIhEEvEEPKc
FN:192,198,_ZN3MAS18get_stack_optionalISt3mapINSt7__cxx1112basic_stringIcSt11char_traitsIcESaIcEEES1_IS7_NS_23ScalarMatrixAtFrequencyESt4lessIS7_ESaISt4pairIKS7_S8_EEESA_SaISB_ISC_SF_EEEEESt8optionalIT_ERKN8nlohmann16json_abi_v3_11_310basic_jsonIS1_St6vectorS7_blmdSaNSN_14adl_serializerESP_IhSaIhEEvEEPKc
FN:192,198,_ZN3MAS18get_stack_optionalISt3mapINSt7__cxx1112basic_stringIcSt11char_traitsIcESaIcEEES1_IS7_NS_28TripoleCapacitancePerWindingESt4lessIS7_ESaISt4pairIKS7_S8_EEESA_SaISB_ISC_SF_EEEEESt8optionalIT_ERKN8nlohmann16json_abi_v3_11_310basic_jsonIS1_St6vectorS7_blmdSaNSN_14adl_serializerESP_IhSaIhEEvEEPKc
FN:192,198,_ZN3MAS18get_stack_optionalISt3mapINSt7__cxx1112basic_stringIcSt11char_traitsIcESaIcEEES1_IS7_NS_29SixCapacitorNetworkPerWindingESt4lessIS7_ESaISt4pairIKS7_S8_EEESA_SaISB_ISC_SF_EEEEESt8optionalIT_ERKN8nlohmann16json_abi_v3_11_310basic_jsonIS1_St6vectorS7_blmdSaNSN_14adl_serializerESP_IhSaIhEEvEEPKc
FN:192,198,_ZN3MAS18get_stack_optionalISt3mapINSt7__cxx1112basic_stringIcSt11char_traitsIcESaIcEEES1_IS7_dSt4lessIS7_ESaISt4pairIKS7_dEEES9_SaISA_ISB_SE_EEEEESt8optionalIT_ERKN8nlohmann16json_abi_v3_11_310basic_jsonIS1_St6vectorS7_blmdSaNSM_14adl_serializerESO_IhSaIhEEvEEPKc
FN:192,198,_ZN3MAS18get_stack_optionalISt3mapINSt7__cxx1112basic_stringIcSt11char_traitsIcESaIcEEESt6vectorISt7variantIJS8_INS_15MassLossesPointESaISA_EENS_28MagnetecCoreLossesMethodDataEEESaISE_EESt4lessIS7_ESaISt4pairIKS7_SG_EEEEESt8optionalIT_ERKN8nlohmann16json_abi_v3_11_310basic_jsonIS1_S8_S7_blmdSaNSS_14adl_serializerES8_IhSaIhEEvEEPKc
FN:192,198,_ZN3MAS18get_stack_optionalISt3mapINSt7__cxx1112basic_stringIcSt11char_traitsIcESaIcEEESt7variantIJNS_22DimensionWithToleranceEdEESt4lessIS7_ESaISt4pairIKS7_SA_EEEEESt8optionalIT_ERKN8nlohmann16json_abi_v3_11_310basic_jsonIS1_St6vectorS7_blmdSaNSM_14adl_serializerESO_IhSaIhEEvEEPKc
FN:192,198,_ZN3MAS18get_stack_optionalISt6vectorINS_13IsolationSideESaIS2_EEEESt8optionalIT_ERKN8nlohmann16json_abi_v3_11_310basic_jsonISt3mapS1_NSt7__cxx1112basic_stringIcSt11char_traitsIcESaIcEEEblmdSaNS9_14adl_serializerES1_IhSaIhEEvEEPKc
FN:192,198,_ZN3MAS18get_stack_optionalISt6vectorINS_14BhCycleElementESaIS2_EEEESt8optionalIT_ERKN8nlohmann16json_abi_v3_11_310basic_jsonISt3mapS1_NSt7__cxx1112basic_stringIcSt11char_traitsIcESaIcEEEblmdSaNS9_14adl_serializerES1_IhSaIhEEvEEPKc
FN:192,198,_ZN3MAS18get_stack_optionalISt6vectorINS_14ConnectionTypeESaIS2_EEEESt8optionalIT_ERKN8nlohmann16json_abi_v3_11_310basic_jsonISt3mapS1_NSt7__cxx1112basic_stringIcSt11char_traitsIcESaIcEEEblmdSaNS9_14adl_serializerES1_IhSaIhEEvEEPKc
FN:192,198,_ZN3MAS18get_stack_optionalISt6vectorINS_15DistributorInfoESaIS2_EEEESt8optionalIT_ERKN8nlohmann16json_abi_v3_11_310basic_jsonISt3mapS1_NSt7__cxx1112basic_stringIcSt11char_traitsIcESaIcEEEblmdSaNS9_14adl_serializerES1_IhSaIhEEvEEPKc
FN:192,198,_ZN3MAS18get_stack_optionalISt6vectorINS_15LossFactorPointESaIS2_EEEESt8optionalIT_ERKN8nlohmann16json_abi_v3_11_310basic_jsonISt3mapS1_NSt7__cxx1112basic_stringIcSt11char_traitsIcESaIcEEEblmdSaNS9_14adl_serializerES1_IhSaIhEEvEEPKc
FN:192,198,_ZN3MAS18get_stack_optionalISt6vectorINS_16ResistivityPointESaIS2_EEEESt8optionalIT_ERKN8nlohmann16json_abi_v3_11_310basic_jsonISt3mapS1_NSt7__cxx1112basic_stringIcSt11char_traitsIcESaIcEEEblmdSaNS9_14adl_serializerES1_IhSaIhEEvEEPKc
FN:192,198,_ZN3MAS18get_stack_optionalISt6vectorINS_17ConnectionElementESaIS2_EEEESt8optionalIT_ERKN8nlohmann16json_abi_v3_11_310basic_jsonISt3mapS1_NSt7__cxx1112basic_stringIcSt11char_traitsIcESaIcEEEblmdSaNS9_14adl_serializerES1_IhSaIhEEvEEPKc
FN:192,198,_ZN3MAS18get_stack_optionalISt6vectorINS_17DielectricVoltageESaIS2_EEEESt8optionalIT_ERKN8nlohmann16json_abi_v3_11_310basic_jsonISt3mapS1_NSt7__cxx1112basic_stringIcSt11char_traitsIcESaIcEEEblmdSaNS9_14adl_serializerES1_IhSaIhEEvEEPKc
FN:192,198,_ZN3MAS18get_stack_optionalISt6vectorINS_19InsulationStandardsESaIS2_EEEESt8optionalIT_ERKN8nlohmann16json_abi_v3_11_310basic_jsonISt3mapS1_NSt7__cxx1112basic_stringIcSt11char_traitsIcESaIcEEEblmdSaNS9_14adl_serializerES1_IhSaIhEEvEEPKc
FN:192,198,_ZN3MAS18get_stack_optionalISt6vectorINS_20ImpedanceAtFrequencyESaIS2_EEEESt8optionalIT_ERKN8nlohmann16json_abi_v3_11_310basic_jsonISt3mapS1_NSt7__cxx1112basic_stringIcSt11char_traitsIcESaIcEEEblmdSaNS9_14adl_serializerES1_IhSaIhEEvEEPKc
FN:192,198,_ZN3MAS18get_stack_optionalISt6vectorINS_20PinWindingConnectionESaIS2_EEEESt8optionalIT_ERKN8nlohmann16json_abi_v3_11_310basic_jsonISt3mapS1_NSt7__cxx1112basic_stringIcSt11char_traitsIcESaIcEEEblmdSaNS9_14adl_serializerES1_IhSaIhEEvEEPKc
FN:192,198,_ZN3MAS18get_stack_optionalISt6vectorINS_21VolumetricLossesPointESaIS2_EEEESt8optionalIT_ERKN8nlohmann16json_abi_v3_11_310basic_jsonISt3mapS1_NSt7__cxx1112basic_stringIcSt11char_traitsIcESaIcEEEblmdSaNS9_14adl_serializerES1_IhSaIhEEvEEPKc
FN:192,198,_ZN3MAS18get_stack_optionalISt6vectorINS_22AirGapReluctanceOutputESaIS2_EEEESt8optionalIT_ERKN8nlohmann16json_abi_v3_11_310basic_jsonISt3mapS1_NSt7__cxx1112basic_stringIcSt11char_traitsIcESaIcEEEblmdSaNS9_14adl_serializerES1_IhSaIhEEvEEPKc
FN:192,198,_ZN3MAS18get_stack_optionalISt6vectorINS_22DimensionWithToleranceESaIS2_EEEESt8optionalIT_ERKN8nlohmann16json_abi_v3_11_310basic_jsonISt3mapS1_NSt7__cxx1112basic_stringIcSt11char_traitsIcESaIcEEEblmdSaNS9_14adl_serializerES1_IhSaIhEEvEEPKc
FN:192,198,_ZN3MAS18get_stack_optionalISt6vectorINS_22StrayCapacitanceOutputESaIS2_EEEESt8optionalIT_ERKN8nlohmann16json_abi_v3_11_310basic_jsonISt3mapS1_NSt7__cxx1112basic_stringIcSt11char_traitsIcESaIcEEEblmdSaNS9_14adl_serializerES1_IhSaIhEEvEEPKc
FN:192,198,_ZN3MAS18get_stack_optionalISt6vectorINS_23ScalarMatrixAtFrequencyESaIS2_EEEESt8optionalIT_ERKN8nlohmann16json_abi_v3_11_310basic_jsonISt3mapS1_NSt7__cxx1112basic_stringIcSt11char_traitsIcESaIcEEEblmdSaNS9_14adl_serializerES1_IhSaIhEEvEEPKc
FN:192,198,_ZN3MAS18get_stack_optionalISt6vectorINS_23WindingLossesPerElementESaIS2_EEEESt8optionalIT_ERKN8nlohmann16json_abi_v3_11_310basic_jsonISt3mapS1_NSt7__cxx1112basic_stringIcSt11char_traitsIcESaIcEEEblmdSaNS9_14adl_serializerES1_IhSaIhEEvEEPKc
FN:192,198,_ZN3MAS18get_stack_optionalISt6vectorINS_24ComplexMatrixAtFrequencyESaIS2_EEEESt8optionalIT_ERKN8nlohmann16json_abi_v3_11_310basic_jsonISt3mapS1_NSt7__cxx1112basic_stringIcSt11char_traitsIcESaIcEEEblmdSaNS9_14adl_serializerES1_IhSaIhEEvEEPKc
FN:192,198,_ZN3MAS18get_stack_optionalISt6vectorINS_26ThermalConductivityElementESaIS2_EEEESt8optionalIT_ERKN8nlohmann16json_abi_v3_11_310basic_jsonISt3mapS1_NSt7__cxx1112basic_stringIcSt11char_traitsIcESaIcEEEblmdSaNS9_14adl_serializerES1_IhSaIhEEvEEPKc
FN:192,198,_ZN3MAS18get_stack_optionalISt6vectorINS_33CoreGeometricalDescriptionElementESaIS2_EEEESt8optionalIT_ERKN8nlohmann16json_abi_v3_11_310basic_jsonISt3mapS1_NSt7__cxx1112basic_stringIcSt11char_traitsIcESaIcEEEblmdSaNS9_14adl_serializerES1_IhSaIhEEvEEPKc
FN:192,198,_ZN3MAS18get_stack_optionalISt6vectorINS_35SteinmetzCoreLossesMethodRangeDatumESaIS2_EEEESt8optionalIT_ERKN8nlohmann16json_abi_v3_11_310basic_jsonISt3mapS1_NSt7__cxx1112basic_stringIcSt11char_traitsIcESaIcEEEblmdSaNS9_14adl_serializerES1_IhSaIhEEvEEPKc
FN:192,198,_ZN3MAS18get_stack_optionalISt6vectorINS_3PinESaIS2_EEEESt8optionalIT_ERKN8nlohmann16json_abi_v3_11_310basic_jsonISt3mapS1_NSt7__cxx1112basic_stringIcSt11char_traitsIcESaIcEEEblmdSaNS9_14adl_serializerES1_IhSaIhEEvEEPKc
FN:192,198,_ZN3MAS18get_stack_optionalISt6vectorINS_4TurnESaIS2_EEEESt8optionalIT_ERKN8nlohmann16json_abi_v3_11_310basic_jsonISt3mapS1_NSt7__cxx1112basic_stringIcSt11char_traitsIcESaIcEEEblmdSaNS9_14adl_serializerES1_IhSaIhEEvEEPKc
FN:192,198,_ZN3MAS18get_stack_optionalISt6vectorINS_5GroupESaIS2_EEEESt8optionalIT_ERKN8nlohmann16json_abi_v3_11_310basic_jsonISt3mapS1_NSt7__cxx1112basic_stringIcSt11char_traitsIcESaIcEEEblmdSaNS9_14adl_serializerES1_IhSaIhEEvEEPKc
FN:192,198,_ZN3MAS18get_stack_optionalISt6vectorINS_5LayerESaIS2_EEEESt8optionalIT_ERKN8nlohmann16json_abi_v3_11_310basic_jsonISt3mapS1_NSt7__cxx1112basic_stringIcSt11char_traitsIcESaIcEEEblmdSaNS9_14adl_serializerES1_IhSaIhEEvEEPKc
FN:192,198,_ZN3MAS18get_stack_optionalISt6vectorINS_7SectionESaIS2_EEEESt8optionalIT_ERKN8nlohmann16json_abi_v3_11_310basic_jsonISt3mapS1_NSt7__cxx1112basic_stringIcSt11char_traitsIcESaIcEEEblmdSaNS9_14adl_serializerES1_IhSaIhEEvEEPKc
FN:192,198,_ZN3MAS18get_stack_optionalISt6vectorINS_9MachiningESaIS2_EEEESt8optionalIT_ERKN8nlohmann16json_abi_v3_11_310basic_jsonISt3mapS1_NSt7__cxx1112basic_stringIcSt11char_traitsIcESaIcEEEblmdSaNS9_14adl_serializerES1_IhSaIhEEvEEPKc
FN:192,198,_ZN3MAS18get_stack_optionalISt6vectorINSt7__cxx1112basic_stringIcSt11char_traitsIcESaIcEEESaIS7_EEEESt8optionalIT_ERKN8nlohmann16json_abi_v3_11_310basic_jsonISt3mapS1_S7_blmdSaNSE_14adl_serializerES1_IhSaIhEEvEEPKc
FN:192,198,_ZN3MAS18get_stack_optionalISt6vectorIS1_IdSaIdEESaIS3_EEEESt8optionalIT_ERKN8nlohmann16json_abi_v3_11_310basic_jsonISt3mapS1_NSt7__cxx1112basic_stringIcSt11char_traitsIcESaIcEEEblmdSaNSA_14adl_serializerES1_IhSaIhEEvEEPKc
FN:192,198,_ZN3MAS18get_stack_optionalISt6vectorIdSaIdEEEESt8optionalIT_ERKN8nlohmann16json_abi_v3_11_310basic_jsonISt3mapS1_NSt7__cxx1112basic_stringIcSt11char_traitsIcESaIcEEEblmdSaNS8_14adl_serializerES1_IhSaIhEEvEEPKc
FN:192,198,_ZN3MAS18get_stack_optionalISt6vectorIlSaIlEEEESt8optionalIT_ERKN8nlohmann16json_abi_v3_11_310basic_jsonISt3mapS1_NSt7__cxx1112basic_stringIcSt11char_traitsIcESaIcEEEblmdSaNS8_14adl_serializerES1_IhSaIhEEvEEPKc
FN:192,198,_ZN3MAS18get_stack_optionalISt7variantIJNS_12CoreMaterialENSt7__cxx1112basic_stringIcSt11char_traitsIcESaIcEEEEEEESt8optionalIT_ERKN8nlohmann16json_abi_v3_11_310basic_jsonISt3mapSt6vectorS8_blmdSaNSE_14adl_serializerESH_IhSaIhEEvEEPKc
FN:192,198,_ZN3MAS18get_stack_optionalISt7variantIJNS_12WireMaterialENSt7__cxx1112basic_stringIcSt11char_traitsIcESaIcEEEEEEESt8optionalIT_ERKN8nlohmann16json_abi_v3_11_310basic_jsonISt3mapSt6vectorS8_blmdSaNSE_14adl_serializerESH_IhSaIhEEvEEPKc
FN:192,198,_ZN3MAS18get_stack_optionalISt7variantIJNS_18InsulationMaterialENSt7__cxx1112basic_stringIcSt11char_traitsIcESaIcEEEEEEESt8optionalIT_ERKN8nlohmann16json_abi_v3_11_310basic_jsonISt3mapSt6vectorS8_blmdSaNSE_14adl_serializerESH_IhSaIhEEvEEPKc
FN:192,198,_ZN3MAS18get_stack_optionalISt7variantIJNS_21InsulationWireCoatingENSt7__cxx1112basic_stringIcSt11char_traitsIcESaIcEEEEEEESt8optionalIT_ERKN8nlohmann16json_abi_v3_11_310basic_jsonISt3mapSt6vectorS8_blmdSaNSE_14adl_serializerESH_IhSaIhEEvEEPKc
FN:192,198,_ZN3MAS18get_stack_optionalISt7variantIJNS_9CoreShapeENSt7__cxx1112basic_stringIcSt11char_traitsIcESaIcEEEEEEESt8optionalIT_ERKN8nlohmann16json_abi_v3_11_310basic_jsonISt3mapSt6vectorS8_blmdSaNSE_14adl_serializerESH_IhSaIhEEvEEPKc
FN:192,198,_ZN3MAS18get_stack_optionalISt7variantIJNS_9WireRoundENSt7__cxx1112basic_stringIcSt11char_traitsIcESaIcEEEEEEESt8optionalIT_ERKN8nlohmann16json_abi_v3_11_310basic_jsonISt3mapSt6vectorS8_blmdSaNSE_14adl_serializerESH_IhSaIhEEvEEPKc
FN:192,198,_ZN3MAS18get_stack_optionalISt7variantIJSt6vectorINS_17PermeabilityPointESaIS3_EES3_EEEESt8optionalIT_ERKN8nlohmann16json_abi_v3_11_310basic_jsonISt3mapS2_NSt7__cxx1112basic_stringIcSt11char_traitsIcESaIcEEEblmdSaNSB_14adl_serializerES2_IhSaIhEEvEEPKc
FN:192,198,_ZN3MAS18get_stack_optionalISt7variantIJSt6vectorIdSaIdEENS_10MarginInfoEEEEESt8optionalIT_ERKN8nlohmann16json_abi_v3_11_310basic_jsonISt3mapS2_NSt7__cxx1112basic_stringIcSt11char_traitsIcESaIcEEEblmdSaNSB_14adl_serializerES2_IhSaIhEEvEEPKc
FN:192,198,_ZN3MAS18get_stack_optionalIbEESt8optionalIT_ERKN8nlohmann16json_abi_v3_11_310basic_jsonISt3mapSt6vectorNSt7__cxx1112basic_stringIcSt11char_traitsIcESaIcEEEblmdSaNS5_14adl_serializerES8_IhSaIhEEvEEPKc
FN:192,198,_ZN3MAS18get_stack_optionalIdEESt8optionalIT_ERKN8nlohmann16json_abi_v3_11_310basic_jsonISt3mapSt6vectorNSt7__cxx1112basic_stringIcSt11char_traitsIcESaIcEEEblmdSaNS5_14adl_serializerES8_IhSaIhEEvEEPKc
FN:192,198,_ZN3MAS18get_stack_optionalIlEESt8optionalIT_ERKN8nlohmann16json_abi_v3_11_310basic_jsonISt3mapSt6vectorNSt7__cxx1112basic_stringIcSt11char_traitsIcESaIcEEEblmdSaNS5_14adl_serializerES8_IhSaIhEEvEEPKc
FN:1951,1951,_ZN3MAS18DesignRequirementsC2Ev
FN:1952,1952,_ZN3MAS18DesignRequirementsD0Ev
FN:1952,1952,_ZN3MAS18DesignRequirementsD2Ev
FN:1974,1974,_ZNK3MAS18DesignRequirements15get_applicationEv
FN:1975,1975,_ZN3MAS18DesignRequirements15set_applicationESt8optionalINS_11ApplicationEE
FN:1977,1977,_ZNK3MAS18DesignRequirements14get_insulationEv
FN:1978,1978,_ZN3MAS18DesignRequirements14set_insulationESt8optionalINS_22InsulationRequirementsEE
FN:1983,1983,_ZNK3MAS18DesignRequirements19get_isolation_sidesEv
FN:1984,1984,_ZN3MAS18DesignRequirements19set_isolation_sidesESt8optionalISt6vectorINS_13IsolationSideESaIS3_EEE
FN:1989,1989,_ZNK3MAS18DesignRequirements22get_leakage_inductanceEv
FN:1990,1990,_ZN3MAS18DesignRequirements22set_leakage_inductanceESt8optionalISt6vectorINS_22DimensionWithToleranceESaIS3_EEE
FN:1995,1995,_ZNK3MAS18DesignRequirements26get_magnetizing_inductanceEv
FN:1996,1996,_ZN3MAS18DesignRequirements34get_mutable_magnetizing_inductanceEv
FN:1997,1997,_ZN3MAS18DesignRequirements26set_magnetizing_inductanceERKNS_22DimensionWithToleranceE
FN:2002,2002,_ZNK3MAS18DesignRequirements10get_marketEv
FN:2003,2003,_ZN3MAS18DesignRequirements10set_marketESt8optionalINS_6MarketEE
FN:2008,2008,_ZNK3MAS18DesignRequirements22get_maximum_dimensionsEv
FN:2009,2009,_ZN3MAS18DesignRequirements22set_maximum_dimensionsESt8optionalINS_17MaximumDimensionsEE
FN:2014,2014,_ZNK3MAS18DesignRequirements18get_maximum_weightEv
FN:2015,2015,_ZN3MAS18DesignRequirements18set_maximum_weightESt8optionalIdE
FN:2020,2020,_ZNK3MAS18DesignRequirements21get_minimum_impedanceEv
FN:2021,2021,_ZN3MAS18DesignRequirements21set_minimum_impedanceESt8optionalISt6vectorINS_20ImpedanceAtFrequencyESaIS3_EEE
FN:2026,2026,_ZNK3MAS18DesignRequirements8get_nameB5cxx11Ev
FN:2027,2027,_ZN3MAS18DesignRequirements8set_nameESt8optionalINSt7__cxx1112basic_stringIcSt11char_traitsIcESaIcEEEE
FN:2032,2032,_ZNK3MAS18DesignRequirements25get_operating_temperatureEv
FN:2033,2033,_ZN3MAS18DesignRequirements25set_operating_temperatureESt8optionalINS_22DimensionWithToleranceEE
FN:2038,2038,_ZNK3MAS18DesignRequirements21get_stray_capacitanceEv
FN:2039,2039,_ZN3MAS18DesignRequirements21set_stray_capacitanceESt8optionalISt6vectorINS_22DimensionWithToleranceESaIS3_EEE
FN:2041,2041,_ZNK3MAS18DesignRequirements19get_sub_applicationEv
FN:2042,2042,_ZN3MAS18DesignRequirements19set_sub_applicationESt8optionalINS_14SubApplicationEE
FN:2047,2047,_ZNK3MAS18DesignRequirements17get_terminal_typeEv
FN:2048,2048,_ZN3MAS18DesignRequirements17set_terminal_typeESt8optionalISt6vectorINS_14ConnectionTypeESaIS3_EEE
FN:2053,2053,_ZNK3MAS18DesignRequirements12get_topologyEv
FN:2054,2054,_ZN3MAS18DesignRequirements12set_topologyESt8optionalINS_10TopologiesEE
FN:2059,2059,_ZNK3MAS18DesignRequirements16get_turns_ratiosEv
FN:2060,2060,_ZN3MAS18DesignRequirements24get_mutable_turns_ratiosEv
FN:2061,2061,_ZN3MAS18DesignRequirements16set_turns_ratiosERKSt6vectorINS_22DimensionWithToleranceESaIS2_EE
FN:2063,2063,_ZNK3MAS18DesignRequirements21get_wiring_technologyEv
FN:2064,2064,_ZN3MAS18DesignRequirements21set_wiring_technologyESt8optionalINS_16WiringTechnologyEE
FN:2080,2080,_ZN3MAS7CoolingC2Ev
FN:2081,2081,_ZN3MAS7CoolingD0Ev
FN:2081,2081,_ZN3MAS7CoolingD2Ev
FN:2098,2098,_ZNK3MAS7Cooling9get_fluidB5cxx11Ev
FN:2099,2099,_ZN3MAS7Cooling9set_fluidESt8optionalINSt7__cxx1112basic_stringIcSt11char_traitsIcESaIcEEEE
FN:2106,2106,_ZNK3MAS7Cooling15get_temperatureEv
FN:2107,2107,_ZN3MAS7Cooling15set_temperatureESt8optionalIdE
FN:2112,2112,_ZNK3MAS7Cooling17get_flow_diameterEv
FN:2113,2113,_ZN3MAS7Cooling17set_flow_diameterESt8optionalIdE
FN:2115,2115,_ZNK3MAS7Cooling12get_velocityEv
FN:2116,2116,_ZN3MAS7Cooling12set_velocityESt8optionalISt6vectorIdSaIdEEE
FN:2123,2123,_ZNK3MAS7Cooling14get_dimensionsEv
FN:2124,2124,_ZN3MAS7Cooling14set_dimensionsESt8optionalISt6vectorIdSaIdEEE
FN:2133,2133,_ZNK3MAS7Cooling32get_interface_thermal_resistanceEv
FN:2134,2134,_ZN3MAS7Cooling32set_interface_thermal_resistanceESt8optionalIdE
FN:2141,2141,_ZNK3MAS7Cooling23get_interface_thicknessEv
FN:2142,2142,_ZN3MAS7Cooling23set_interface_thicknessESt8optionalIdE
FN:2149,2149,_ZNK3MAS7Cooling22get_thermal_resistanceEv
FN:2150,2150,_ZN3MAS7Cooling22set_thermal_resistanceESt8optionalIdE
FN:2155,2155,_ZNK3MAS7Cooling23get_maximum_temperatureEv
FN:2156,2156,_ZN3MAS7Cooling23set_maximum_temperatureESt8optionalIdE
FN:2164,2167,_ZN3MAS19OperatingConditionsC2Ev
FN:2168,2168,_ZN3MAS19OperatingConditionsD0Ev
FN:2168,2168,_ZN3MAS19OperatingConditionsD2Ev
FN:2182,2182,_ZNK3MAS19OperatingConditions29get_ambient_relative_humidityEv
FN:2183,2183,_ZN3MAS19OperatingConditions29set_ambient_relative_humidityESt8optionalIdE
FN:2188,2188,_ZNK3MAS19OperatingConditions23get_ambient_temperatureEv
FN:2190,2190,_ZN3MAS19OperatingConditions23set_ambient_temperatureERKd
FN:2195,2195,_ZNK3MAS19OperatingConditions11get_coolingEv
FN:2196,2196,_ZN3MAS19OperatingConditions11set_coolingESt8optionalINS_7CoolingEE
FN:2201,2201,_ZNK3MAS19OperatingConditions8get_nameB5cxx11Ev
FN:2202,2202,_ZN3MAS19OperatingConditions8set_nameESt8optionalINSt7__cxx1112basic_stringIcSt11char_traitsIcESaIcEEEE
FN:2211,2211,_ZN3MAS9HarmonicsC2Ev
FN:2212,2212,_ZN3MAS9HarmonicsD0Ev
FN:2212,2212,_ZN3MAS9HarmonicsD2Ev
FN:2222,2222,_ZNK3MAS9Harmonics14get_amplitudesEv
FN:2223,2223,_ZN3MAS9Harmonics22get_mutable_amplitudesEv
FN:2224,2224,_ZN3MAS9Harmonics14set_amplitudesERKSt6vectorIdSaIdEE
FN:2229,2229,_ZNK3MAS9Harmonics15get_frequenciesEv
FN:2230,2230,_ZN3MAS9Harmonics23get_mutable_frequenciesEv
FN:2231,2231,_ZN3MAS9Harmonics15set_frequenciesERKSt6vectorIdSaIdEE
FN:2236,2245,_ZN3MAS9ProcessedC2Ev
FN:2246,2246,_ZN3MAS9ProcessedD0Ev
FN:2246,2246,_ZN3MAS9ProcessedD2Ev
FN:2277,2277,_ZNK3MAS9Processed26get_ac_effective_frequencyEv
FN:2278,2278,_ZN3MAS9Processed26set_ac_effective_frequencyESt8optionalIdE
FN:2283,2283,_ZNK3MAS9Processed11get_averageEv
FN:2284,2284,_ZN3MAS9Processed11set_averageESt8optionalIdE
FN:2289,2289,_ZNK3MAS9Processed13get_dead_timeEv
FN:2290,2290,_ZN3MAS9Processed13set_dead_timeESt8optionalIdE
FN:2295,2295,_ZNK3MAS9Processed14get_duty_cycleEv
FN:2296,2296,_ZN3MAS9Processed14set_duty_cycleESt8optionalIdE
FN:2301,2301,_ZNK3MAS9Processed23get_effective_frequencyEv
FN:2302,2302,_ZN3MAS9Processed23set_effective_frequencyESt8optionalIdE
FN:2304,2304,_ZNK3MAS9Processed9get_labelEv
FN:2306,2306,_ZN3MAS9Processed9set_labelERKNS_13WaveformLabelE
FN:2311,2311,_ZNK3MAS9Processed17get_negative_peakEv
FN:2312,2312,_ZN3MAS9Processed17set_negative_peakESt8optionalIdE
FN:2317,2317,_ZNK3MAS9Processed10get_offsetEv
FN:2318,2318,_ZN3MAS9Processed18get_mutable_offsetEv
FN:2319,2319,_ZN3MAS9Processed10set_offsetERKd
FN:2324,2324,_ZNK3MAS9Processed8get_peakEv
FN:2325,2325,_ZN3MAS9Processed8set_peakESt8optionalIdE
FN:2330,2330,_ZNK3MAS9Processed16get_peak_to_peakEv
FN:2331,2331,_ZN3MAS9Processed16set_peak_to_peakESt8optionalIdE
FN:2336,2336,_ZNK3MAS9Processed9get_phaseEv
FN:2337,2337,_ZN3MAS9Processed9set_phaseESt8optionalIdE
FN:2342,2342,_ZNK3MAS9Processed17get_positive_peakEv
FN:2343,2343,_ZN3MAS9Processed17set_positive_peakESt8optionalIdE
FN:2348,2348,_ZNK3MAS9Processed7get_rmsEv
FN:2349,2349,_ZN3MAS9Processed7set_rmsESt8optionalIdE
FN:2355,2355,_ZNK3MAS9Processed7get_thdEv
FN:2356,2356,_ZN3MAS9Processed7set_thdESt8optionalIdE
FN:2367,2369,_ZN3MAS8WaveformC2Ev
FN:2370,2370,_ZN3MAS8WaveformD0Ev
FN:2370,2370,_ZN3MAS8WaveformD2Ev
FN:2383,2383,_ZNK3MAS8Waveform8get_dataEv
FN:2384,2384,_ZN3MAS8Waveform16get_mutable_dataEv
FN:2385,2385,_ZN3MAS8Waveform8set_dataERKSt6vectorIdSaIdEE
FN:2390,2390,_ZNK3MAS8Waveform18get_number_periodsEv
FN:2391,2391,_ZN3MAS8Waveform18set_number_periodsESt8optionalIlE
FN:2393,2393,_ZNK3MAS8Waveform19get_ancillary_labelEv
FN:2394,2394,_ZN3MAS8Waveform19set_ancillary_labelESt8optionalINS_13WaveformLabelEE
FN:2396,2396,_ZNK3MAS8Waveform8get_timeEv
FN:2397,2397,_ZN3MAS8Waveform8set_timeESt8optionalISt6vectorIdSaIdEEE
FN:2408,2408,_ZN3MAS16SignalDescriptorC2Ev
FN:2409,2409,_ZN3MAS16SignalDescriptorD0Ev
FN:2409,2409,_ZN3MAS16SignalDescriptorD2Ev
FN:2421,2421,_ZNK3MAS16SignalDescriptor13get_harmonicsEv
FN:2422,2422,_ZN3MAS16SignalDescriptor13set_harmonicsESt8optionalINS_9HarmonicsEE
FN:2424,2424,_ZNK3MAS16SignalDescriptor13get_processedEv
FN:2425,2425,_ZN3MAS16SignalDescriptor13set_processedESt8optionalINS_9ProcessedEE
FN:2427,2427,_ZNK3MAS16SignalDescriptor12get_waveformEv
FN:2428,2428,_ZN3MAS16SignalDescriptor12set_waveformESt8optionalINS_8WaveformEE
FN:2438,2440,_ZN3MAS24OperatingPointExcitationC2Ev
FN:2441,2441,_ZN3MAS24OperatingPointExcitationD0Ev
FN:2441,2441,_ZN3MAS24OperatingPointExcitationD2Ev
FN:2454,2454,_ZNK3MAS24OperatingPointExcitation11get_currentEv
FN:2455,2455,_ZN3MAS24OperatingPointExcitation11set_currentESt8optionalINS_16SignalDescriptorEE
FN:2460,2460,_ZNK3MAS24OperatingPointExcitation13get_frequencyEv
FN:2462,2462,_ZN3MAS24OperatingPointExcitation13set_frequencyERKd
FN:2464,2464,_ZNK3MAS24OperatingPointExcitation27get_magnetic_field_strengthEv
FN:2465,2465,_ZN3MAS24OperatingPointExcitation27set_magnetic_field_strengthESt8optionalINS_16SignalDescriptorEE
FN:2467,2467,_ZNK3MAS24OperatingPointExcitation25get_magnetic_flux_densityEv
FN:2468,2468,_ZN3MAS24OperatingPointExcitation25set_magnetic_flux_densityESt8optionalINS_16SignalDescriptorEE
FN:2470,2470,_ZNK3MAS24OperatingPointExcitation23get_magnetizing_currentEv
FN:2471,2471,_ZN3MAS24OperatingPointExcitation23set_magnetizing_currentESt8optionalINS_16SignalDescriptorEE
FN:2476,2476,_ZNK3MAS24OperatingPointExcitation8get_nameB5cxx11Ev
FN:2477,2477,_ZN3MAS24OperatingPointExcitation8set_nameESt8optionalINSt7__cxx1112basic_stringIcSt11char_traitsIcESaIcEEEE
FN:2479,2479,_ZNK3MAS24OperatingPointExcitation11get_voltageEv
FN:2480,2480,_ZN3MAS24OperatingPointExcitation11set_voltageESt8optionalINS_16SignalDescriptorEE
FN:2491,2491,_ZN3MAS14OperatingPointC2Ev
FN:2492,2492,_ZN3MAS14OperatingPointD0Ev
FN:2492,2492,_ZN3MAS14OperatingPointD2Ev
FN:2500,2500,_ZNK3MAS14OperatingPoint14get_conditionsEv
FN:2501,2501,_ZN3MAS14OperatingPoint22get_mutable_conditionsEv
FN:2502,2502,_ZN3MAS14OperatingPoint14set_conditionsERKNS_19OperatingConditionsE
FN:2504,2504,_ZNK3MAS14OperatingPoint27get_excitations_per_windingEv
FN:2505,2505,_ZN3MAS14OperatingPoint35get_mutable_excitations_per_windingEv
FN:2506,2506,_ZN3MAS14OperatingPoint27set_excitations_per_windingERKSt6vectorINS_24OperatingPointExcitationESaIS2_EE
FN:2511,2511,_ZNK3MAS14OperatingPoint8get_nameB5cxx11Ev
FN:2512,2512,_ZN3MAS14OperatingPoint8set_nameESt8optionalINSt7__cxx1112basic_stringIcSt11char_traitsIcESaIcEEEE
FN:2520,2520,_ZN3MAS6InputsC2Ev
FN:2521,2521,_ZN3MAS6InputsD0Ev
FN:2521,2521,_ZN3MAS6InputsD2Ev
FN:2530,2530,_ZN3MAS6Inputs25set_converter_informationESt8optionalINS_20ConverterInformationEE
FN:2535,2535,_ZNK3MAS6Inputs23get_design_requirementsEv
FN:2536,2536,_ZN3MAS6Inputs31get_mutable_design_requirementsEv
FN:2537,2537,_ZN3MAS6Inputs23set_design_requirementsERKNS_18DesignRequirementsE
FN:2542,2542,_ZNK3MAS6Inputs20get_operating_pointsEv
FN:2543,2543,_ZN3MAS6Inputs28get_mutable_operating_pointsEv
FN:2544,2544,_ZN3MAS6Inputs20set_operating_pointsERKSt6vectorINS_14OperatingPointESaIS2_EE
FN:2552,2552,_ZN3MAS15DistributorInfoC2Ev
FN:2553,2553,_ZN3MAS15DistributorInfoD0Ev
FN:2553,2553,_ZN3MAS15DistributorInfoD2Ev
FN:2571,2571,_ZNK3MAS15DistributorInfo8get_costEv
FN:2572,2572,_ZN3MAS15DistributorInfo8set_costESt8optionalIdE
FN:2577,2577,_ZNK3MAS15DistributorInfo11get_countryB5cxx11Ev
FN:2578,2578,_ZN3MAS15DistributorInfo11set_countryESt8optionalINSt7__cxx1112basic_stringIcSt11char_traitsIcESaIcEEEE
FN:2583,2583,_ZNK3MAS15DistributorInfo20get_distributed_areaB5cxx11Ev
FN:2584,2584,_ZN3MAS15DistributorInfo20set_distributed_areaESt8optionalINSt7__cxx1112basic_stringIcSt11char_traitsIcESaIcEEEE
FN:2589,2589,_ZNK3MAS15DistributorInfo9get_emailB5cxx11Ev
FN:2590,2590,_ZN3MAS15DistributorInfo9set_emailESt8optionalINSt7__cxx1112basic_stringIcSt11char_traitsIcESaIcEEEE
FN:2595,2595,_ZNK3MAS15DistributorInfo8get_linkB5cxx11Ev
FN:2596,2596,_ZN3MAS15DistributorInfo8set_linkESt8optionalINSt7__cxx1112basic_stringIcSt11char_traitsIcESaIcEEEE
FN:2601,2601,_ZNK3MAS15DistributorInfo8get_nameB5cxx11Ev
FN:2603,2603,_ZN3MAS15DistributorInfo8set_nameERKNSt7__cxx1112basic_stringIcSt11char_traitsIcESaIcEEE
FN:2608,2608,_ZNK3MAS15DistributorInfo9get_phoneB5cxx11Ev
FN:2609,2609,_ZN3MAS15DistributorInfo9set_phoneESt8optionalINSt7__cxx1112basic_stringIcSt11char_traitsIcESaIcEEEE
FN:2614,2614,_ZNK3MAS15DistributorInfo12get_quantityEv
FN:2616,2616,_ZN3MAS15DistributorInfo12set_quantityERKd
FN:2621,2621,_ZNK3MAS15DistributorInfo13get_referenceB5cxx11Ev
FN:2623,2623,_ZN3MAS15DistributorInfo13set_referenceERKNSt7__cxx1112basic_stringIcSt11char_traitsIcESaIcEEE
FN:2628,2628,_ZNK3MAS15DistributorInfo14get_updated_atB5cxx11Ev
FN:2629,2629,_ZN3MAS15DistributorInfo14set_updated_atESt8optionalINSt7__cxx1112basic_stringIcSt11char_traitsIcESaIcEEEE
FN:2635,2635,_ZN3MAS20PinWindingConnectionD0Ev
FN:2635,2635,_ZN3MAS20PinWindingConnectionD2Ev
FN:2645,2645,_ZNK3MAS20PinWindingConnection7get_pinB5cxx11Ev
FN:2646,2646,_ZN3MAS20PinWindingConnection7set_pinESt8optionalINSt7__cxx1112basic_stringIcSt11char_traitsIcESaIcEEEE
FN:2651,2651,_ZNK3MAS20PinWindingConnection11get_windingB5cxx11Ev
FN:2652,2652,_ZN3MAS20PinWindingConnection11set_windingESt8optionalINSt7__cxx1112basic_stringIcSt11char_traitsIcESaIcEEEE
FN:2667,2669,_ZN3MAS25DielectricStrengthElementC2Ev
FN:2670,2670,_ZN3MAS25DielectricStrengthElementD0Ev
FN:2670,2670,_ZN3MAS25DielectricStrengthElementD2Ev
FN:2683,2683,_ZNK3MAS25DielectricStrengthElement12get_humidityEv
FN:2684,2684,_ZN3MAS25DielectricStrengthElement12set_humidityESt8optionalIdE
FN:2689,2689,_ZNK3MAS25DielectricStrengthElement15get_temperatureEv
FN:2690,2690,_ZN3MAS25DielectricStrengthElement15set_temperatureESt8optionalIdE
FN:2695,2695,_ZNK3MAS25DielectricStrengthElement13get_thicknessEv
FN:2696,2696,_ZN3MAS25DielectricStrengthElement13set_thicknessESt8optionalIdE
FN:2701,2701,_ZNK3MAS25DielectricStrengthElement9get_valueEv
FN:2703,2703,_ZN3MAS25DielectricStrengthElement9set_valueERKd
FN:271,271,_ZN3MAS22DimensionWithToleranceC2Ev
FN:2716,2716,_ZN3MAS16ManufacturerInfoC2Ev
FN:2717,2717,_ZN3MAS16ManufacturerInfoD0Ev
FN:2717,2717,_ZN3MAS16ManufacturerInfoD2Ev
FN:272,272,_ZN3MAS22DimensionWithToleranceD0Ev
FN:272,272,_ZN3MAS22DimensionWithToleranceD2Ev
FN:2733,2733,_ZNK3MAS16ManufacturerInfo8get_costB5cxx11Ev
FN:2734,2734,_ZN3MAS16ManufacturerInfo8set_costESt8optionalINSt7__cxx1112basic_stringIcSt11char_traitsIcESaIcEEEE
FN:2739,2739,_ZNK3MAS16ManufacturerInfo17get_datasheet_urlB5cxx11Ev
FN:2740,2740,_ZN3MAS16ManufacturerInfo17set_datasheet_urlESt8optionalINSt7__cxx1112basic_stringIcSt11char_traitsIcESaIcEEEE
FN:2745,2745,_ZNK3MAS16ManufacturerInfo15get_descriptionB5cxx11Ev
FN:2746,2746,_ZN3MAS16ManufacturerInfo15set_descriptionESt8optionalINSt7__cxx1112basic_stringIcSt11char_traitsIcESaIcEEEE
FN:2751,2751,_ZNK3MAS16ManufacturerInfo10get_familyB5cxx11Ev
FN:2752,2752,_ZN3MAS16ManufacturerInfo10set_familyESt8optionalINSt7__cxx1112basic_stringIcSt11char_traitsIcESaIcEEEE
FN:2757,2757,_ZNK3MAS16ManufacturerInfo8get_nameB5cxx11Ev
FN:2759,2759,_ZN3MAS16ManufacturerInfo8set_nameERKNSt7__cxx1112basic_stringIcSt11char_traitsIcESaIcEEE
FN:2764,2764,_ZNK3MAS16ManufacturerInfo14get_order_codeB5cxx11Ev
FN:2765,2765,_ZN3MAS16ManufacturerInfo14set_order_codeESt8optionalINSt7__cxx1112basic_stringIcSt11char_traitsIcESaIcEEEE
FN:2770,2770,_ZNK3MAS16ManufacturerInfo13get_referenceB5cxx11Ev
FN:2771,2771,_ZN3MAS16ManufacturerInfo13set_referenceESt8optionalINSt7__cxx1112basic_stringIcSt11char_traitsIcESaIcEEEE
FN:2776,2776,_ZNK3MAS16ManufacturerInfo10get_statusEv
FN:2777,2777,_ZN3MAS16ManufacturerInfo10set_statusESt8optionalINS_6StatusEE
FN:2785,2785,_ZN3MAS16ResistivityPointC2Ev
FN:2786,2786,_ZN3MAS16ResistivityPointD0Ev
FN:2786,2786,_ZN3MAS16ResistivityPointD2Ev
FN:2796,2796,_ZNK3MAS16ResistivityPoint15get_temperatureEv
FN:2797,2797,_ZN3MAS16ResistivityPoint15set_temperatureESt8optionalIdE
FN:2802,2802,_ZNK3MAS16ResistivityPoint9get_valueEv
FN:2804,2804,_ZN3MAS16ResistivityPoint9set_valueERKd
FN:2812,2812,_ZN3MAS18InsulationMaterialC2Ev
FN:2813,2813,_ZN3MAS18InsulationMaterialD0Ev
FN:2813,2813,_ZN3MAS18InsulationMaterialD2Ev
FN:2832,2832,_ZNK3MAS18InsulationMaterial11get_aliasesB5cxx11Ev
FN:2833,2833,_ZN3MAS18InsulationMaterial11set_aliasesESt8optionalISt6vectorINSt7__cxx1112basic_stringIcSt11char_traitsIcESaIcEEESaIS8_EEE
FN:2838,2838,_ZNK3MAS18InsulationMaterial15get_compositionB5cxx11Ev
FN:2839,2839,_ZN3MAS18InsulationMaterial15set_compositionESt8optionalINSt7__cxx1112basic_stringIcSt11char_traitsIcESaIcEEEE
FN:2841,2841,_ZNK3MAS18InsulationMaterial23get_dielectric_strengthEv
FN:2843,2843,_ZN3MAS18InsulationMaterial23set_dielectric_strengthERKSt6vectorINS_25DielectricStrengthElementESaIS2_EE
FN:2845,2845,_ZNK3MAS18InsulationMaterial21get_manufacturer_infoEv
FN:2846,2846,_ZN3MAS18InsulationMaterial21set_manufacturer_infoESt8optionalINS_16ManufacturerInfoEE
FN:2851,2851,_ZNK3MAS18InsulationMaterial17get_melting_pointEv
FN:2852,2852,_ZN3MAS18InsulationMaterial17set_melting_pointESt8optionalIdE
FN:2857,2857,_ZNK3MAS18InsulationMaterial8get_nameB5cxx11Ev
FN:2859,2859,_ZN3MAS18InsulationMaterial8set_nameERKNSt7__cxx1112basic_stringIcSt11char_traitsIcESaIcEEE
FN:286,286,_ZNK3MAS22DimensionWithTolerance19get_exclude_maximumEv
FN:2864,2864,_ZNK3MAS18InsulationMaterial25get_relative_permittivityEv
FN:2865,2865,_ZN3MAS18InsulationMaterial25set_relative_permittivityESt8optionalIdE
FN:287,287,_ZN3MAS22DimensionWithTolerance19set_exclude_maximumESt8optionalIbE
FN:2870,2870,_ZNK3MAS18InsulationMaterial15get_resistivityEv
FN:2871,2871,_ZN3MAS18InsulationMaterial15set_resistivityESt8optionalISt6vectorINS_16ResistivityPointESaIS3_EEE
FN:2876,2876,_ZNK3MAS18InsulationMaterial17get_specific_heatEv
FN:2877,2877,_ZN3MAS18InsulationMaterial17set_specific_heatESt8optionalIdE
FN:2882,2882,_ZNK3MAS18InsulationMaterial21get_temperature_classEv
FN:2883,2883,_ZN3MAS18InsulationMaterial21set_temperature_classESt8optionalIdE
FN:2888,2888,_ZNK3MAS18InsulationMaterial24get_thermal_conductivityEv
FN:2889,2889,_ZN3MAS18InsulationMaterial24set_thermal_conductivityESt8optionalIdE
FN:2909,2909,_ZN3MAS3PinC2Ev
FN:2910,2910,_ZN3MAS3PinD0Ev
FN:2910,2910,_ZN3MAS3PinD2Ev
FN:292,292,_ZNK3MAS22DimensionWithTolerance19get_exclude_minimumEv
FN:2924,2924,_ZNK3MAS3Pin15get_coordinatesEv
FN:2925,2925,_ZN3MAS3Pin15set_coordinatesESt8optionalISt6vectorIdSaIdEEE
FN:293,293,_ZN3MAS22DimensionWithTolerance19set_exclude_minimumESt8optionalIbE
FN:2930,2930,_ZNK3MAS3Pin14get_dimensionsEv
FN:2932,2932,_ZN3MAS3Pin14set_dimensionsERKSt6vectorIdSaIdEE
FN:2937,2937,_ZNK3MAS3Pin8get_nameB5cxx11Ev
FN:2938,2938,_ZN3MAS3Pin8set_nameESt8optionalINSt7__cxx1112basic_stringIcSt11char_traitsIcESaIcEEEE
FN:2943,2943,_ZNK3MAS3Pin12get_rotationEv
FN:2944,2944,_ZN3MAS3Pin12set_rotationESt8optionalISt6vectorIdSaIdEEE
FN:2949,2949,_ZNK3MAS3Pin9get_shapeEv
FN:2951,2951,_ZN3MAS3Pin9set_shapeERKNS_8PinShapeE
FN:2956,2956,_ZNK3MAS3Pin8get_typeEv
FN:2958,2958,_ZN3MAS3Pin8set_typeERKNS_18PinDescriptionTypeE
FN:2968,2968,_ZN3MAS6PinoutC2Ev
FN:2969,2969,_ZN3MAS6PinoutD0Ev
FN:2969,2969,_ZN3MAS6PinoutD2Ev
FN:298,298,_ZNK3MAS22DimensionWithTolerance11get_maximumEv
FN:2984,2984,_ZNK3MAS6Pinout17get_central_pitchEv
FN:2985,2985,_ZN3MAS6Pinout17set_central_pitchESt8optionalIdE
FN:299,299,_ZN3MAS22DimensionWithTolerance11set_maximumESt8optionalIdE
FN:2990,2990,_ZNK3MAS6Pinout15get_number_pinsEv
FN:2992,2992,_ZN3MAS6Pinout15set_number_pinsERKl
FN:2997,2997,_ZNK3MAS6Pinout23get_number_pins_per_rowEv
FN:2998,2998,_ZN3MAS6Pinout23set_number_pins_per_rowESt8optionalISt6vectorIlSaIlEEE
FN:3003,3003,_ZNK3MAS6Pinout15get_number_rowsEv
FN:3004,3004,_ZN3MAS6Pinout15set_number_rowsESt8optionalIlE
FN:3006,3006,_ZNK3MAS6Pinout19get_pin_descriptionEv
FN:3008,3008,_ZN3MAS6Pinout19set_pin_descriptionERKNS_3PinE
FN:3010,3010,_ZNK3MAS6Pinout9get_pitchEv
FN:3012,3012,_ZN3MAS6Pinout9set_pitchERKSt7variantIJSt6vectorIdSaIdEEdEE
FN:3017,3017,_ZNK3MAS6Pinout16get_row_distanceEv
FN:3019,3019,_ZN3MAS6Pinout16set_row_distanceERKd
FN:3035,3035,_ZN3MAS27BobbinFunctionalDescriptionC2Ev
FN:3036,3036,_ZN3MAS27BobbinFunctionalDescriptionD0Ev
FN:3036,3036,_ZN3MAS27BobbinFunctionalDescriptionD2Ev
FN:304,304,_ZNK3MAS22DimensionWithTolerance11get_minimumEv
FN:305,305,_ZN3MAS22DimensionWithTolerance11set_minimumESt8optionalIdE
FN:3052,3052,_ZNK3MAS27BobbinFunctionalDescription15get_connectionsEv
FN:3053,3053,_ZN3MAS27BobbinFunctionalDescription15set_connectionsESt8optionalISt6vectorINS_20PinWindingConnectionESaIS3_EEE
FN:3058,3058,_ZNK3MAS27BobbinFunctionalDescription14get_dimensionsB5cxx11Ev
FN:3060,3060,_ZN3MAS27BobbinFunctionalDescription14set_dimensionsERKSt3mapINSt7__cxx1112basic_stringIcSt11char_traitsIcESaIcEEESt7variantIJNS_22DimensionWithToleranceEdEESt4lessIS7_ESaISt4pairIKS7_SA_EEE
FN:3065,3065,_ZNK3MAS27BobbinFunctionalDescription10get_familyEv
FN:3067,3067,_ZN3MAS27BobbinFunctionalDescription10set_familyERKNS_12BobbinFamilyE
FN:3072,3072,_ZNK3MAS27BobbinFunctionalDescription18get_family_subtypeB5cxx11Ev
FN:3073,3073,_ZN3MAS27BobbinFunctionalDescription18set_family_subtypeESt8optionalINSt7__cxx1112basic_stringIcSt11char_traitsIcESaIcEEEE
FN:3075,3075,_ZNK3MAS27BobbinFunctionalDescription12get_materialB5cxx11Ev
FN:3076,3076,_ZN3MAS27BobbinFunctionalDescription12set_materialESt8optionalISt7variantIJNS_18InsulationMaterialENSt7__cxx1112basic_stringIcSt11char_traitsIcESaIcEEEEEE
FN:3078,3078,_ZNK3MAS27BobbinFunctionalDescription10get_pinoutEv
FN:3079,3079,_ZN3MAS27BobbinFunctionalDescription10set_pinoutESt8optionalINS_6PinoutEE
FN:3084,3084,_ZNK3MAS27BobbinFunctionalDescription9get_shapeB5cxx11Ev
FN:3086,3086,_ZN3MAS27BobbinFunctionalDescription9set_shapeERKNSt7__cxx1112basic_stringIcSt11char_traitsIcESaIcEEE
FN:3091,3091,_ZNK3MAS27BobbinFunctionalDescription8get_typeEv
FN:3093,3093,_ZN3MAS27BobbinFunctionalDescription8set_typeERKNS_25FunctionalDescriptionTypeE
FN:310,310,_ZNK3MAS22DimensionWithTolerance11get_nominalEv
FN:311,311,_ZN3MAS22DimensionWithTolerance11set_nominalESt8optionalIdE
FN:3138,3138,_ZN3MAS20WindingWindowElementC2Ev
FN:3139,3139,_ZN3MAS20WindingWindowElementD0Ev
FN:3139,3139,_ZN3MAS20WindingWindowElementD2Ev
FN:3156,3156,_ZNK3MAS20WindingWindowElement8get_areaEv
FN:3157,3157,_ZN3MAS20WindingWindowElement8set_areaESt8optionalIdE
FN:3168,3168,_ZNK3MAS20WindingWindowElement15get_coordinatesEv
FN:3169,3169,_ZN3MAS20WindingWindowElement15set_coordinatesESt8optionalISt6vectorIdSaIdEEE
FN:317,317,_ZNK3MAS22DimensionWithTolerance8get_unitB5cxx11Ev
FN:3174,3174,_ZNK3MAS20WindingWindowElement10get_heightEv
FN:3175,3175,_ZN3MAS20WindingWindowElement10set_heightESt8optionalIdE
FN:318,318,_ZN3MAS22DimensionWithTolerance8set_unitESt8optionalINSt7__cxx1112basic_stringIcSt11char_traitsIcESaIcEEEE
FN:3180,3180,_ZNK3MAS20WindingWindowElement22get_sections_alignmentEv
FN:3181,3181,_ZN3MAS20WindingWindowElement22set_sections_alignmentESt8optionalINS_13CoilAlignmentEE
FN:3186,3186,_ZNK3MAS20WindingWindowElement24get_sections_orientationEv
FN:3187,3187,_ZN3MAS20WindingWindowElement24set_sections_orientationESt8optionalINS_18WindingOrientationEE
FN:3192,3192,_ZNK3MAS20WindingWindowElement9get_shapeEv
FN:3193,3193,_ZN3MAS20WindingWindowElement9set_shapeESt8optionalINS_18WindingWindowShapeEE
FN:3198,3198,_ZNK3MAS20WindingWindowElement9get_widthEv
FN:3199,3199,_ZN3MAS20WindingWindowElement9set_widthESt8optionalIdE
FN:3204,3204,_ZNK3MAS20WindingWindowElement9get_angleEv
FN:3205,3205,_ZN3MAS20WindingWindowElement9set_angleESt8optionalIdE
FN:3210,3210,_ZNK3MAS20WindingWindowElement17get_radial_heightEv
FN:3211,3211,_ZN3MAS20WindingWindowElement17set_radial_heightESt8optionalIdE
FN:3216,3221,_ZN3MAS30CoreBobbinProcessedDescriptionC2Ev
FN:3222,3222,_ZN3MAS30CoreBobbinProcessedDescriptionD0Ev
FN:3222,3222,_ZN3MAS30CoreBobbinProcessedDescriptionD2Ev
FN:3242,3242,_ZNK3MAS30CoreBobbinProcessedDescription16get_column_depthEv
FN:3244,3244,_ZN3MAS30CoreBobbinProcessedDescription16set_column_depthERKd
FN:3246,3246,_ZNK3MAS30CoreBobbinProcessedDescription16get_column_shapeEv
FN:3248,3248,_ZN3MAS30CoreBobbinProcessedDescription16set_column_shapeERKNS_11ColumnShapeE
FN:3253,3253,_ZNK3MAS30CoreBobbinProcessedDescription20get_column_thicknessEv
FN:3255,3255,_ZN3MAS30CoreBobbinProcessedDescription20set_column_thicknessERKd
FN:3260,3260,_ZNK3MAS30CoreBobbinProcessedDescription16get_column_widthEv
FN:3261,3261,_ZN3MAS30CoreBobbinProcessedDescription16set_column_widthESt8optionalIdE
FN:3267,3267,_ZNK3MAS30CoreBobbinProcessedDescription15get_coordinatesEv
FN:3268,3268,_ZN3MAS30CoreBobbinProcessedDescription15set_coordinatesESt8optionalISt6vectorIdSaIdEEE
FN:3273,3273,_ZNK3MAS30CoreBobbinProcessedDescription8get_pinsEv
FN:3274,3274,_ZN3MAS30CoreBobbinProcessedDescription8set_pinsESt8optionalISt6vectorINS_3PinESaIS3_EEE
FN:3279,3279,_ZNK3MAS30CoreBobbinProcessedDescription18get_wall_thicknessEv
FN:3281,3281,_ZN3MAS30CoreBobbinProcessedDescription18set_wall_thicknessERKd
FN:3286,3286,_ZNK3MAS30CoreBobbinProcessedDescription19get_winding_windowsEv
FN:3287,3287,_ZN3MAS30CoreBobbinProcessedDescription27get_mutable_winding_windowsEv
FN:3288,3288,_ZN3MAS30CoreBobbinProcessedDescription19set_winding_windowsERKSt6vectorINS_20WindingWindowElementESaIS2_EE
FN:3296,3296,_ZN3MAS6BobbinC2Ev
FN:3297,3297,_ZN3MAS6BobbinD0Ev
FN:3297,3297,_ZN3MAS6BobbinD2Ev
FN:330,330,_ZN3MAS18BaseOperatingPointC2Ev
FN:331,331,_ZN3MAS18BaseOperatingPointD0Ev
FN:331,331,_ZN3MAS18BaseOperatingPointD2Ev
FN:3310,3310,_ZNK3MAS6Bobbin21get_distributors_infoEv
FN:3311,3311,_ZN3MAS6Bobbin21set_distributors_infoESt8optionalISt6vectorINS_15DistributorInfoESaIS3_EEE
FN:3317,3317,_ZNK3MAS6Bobbin26get_functional_descriptionEv
FN:3318,3318,_ZN3MAS6Bobbin26set_functional_descriptionESt8optionalINS_27BobbinFunctionalDescriptionEE
FN:3320,3320,_ZNK3MAS6Bobbin21get_manufacturer_infoEv
FN:3321,3321,_ZN3MAS6Bobbin21set_manufacturer_infoESt8optionalINS_16ManufacturerInfoEE
FN:3326,3326,_ZNK3MAS6Bobbin8get_nameB5cxx11Ev
FN:3327,3327,_ZN3MAS6Bobbin8set_nameESt8optionalINSt7__cxx1112basic_stringIcSt11char_traitsIcESaIcEEEE
FN:3329,3329,_ZNK3MAS6Bobbin25get_processed_descriptionEv
FN:3330,3330,_ZN3MAS6Bobbin25set_processed_descriptionESt8optionalINS_30CoreBobbinProcessedDescriptionEE
FN:3346,3346,_ZN3MAS17ConnectionElementD0Ev
FN:3346,3346,_ZN3MAS17ConnectionElementD2Ev
FN:3359,3359,_ZNK3MAS17ConnectionElement13get_directionEv
FN:3360,3360,_ZN3MAS17ConnectionElement13set_directionESt8optionalINS_9DirectionEE
FN:3365,3365,_ZNK3MAS17ConnectionElement10get_lengthEv
FN:3366,3366,_ZN3MAS17ConnectionElement10set_lengthESt8optionalIdE
FN:3371,3371,_ZNK3MAS17ConnectionElement10get_metricEv
FN:3372,3372,_ZN3MAS17ConnectionElement10set_metricESt8optionalIlE
FN:3377,3377,_ZNK3MAS17ConnectionElement12get_pin_nameB5cxx11Ev
FN:3378,3378,_ZN3MAS17ConnectionElement12set_pin_nameESt8optionalINSt7__cxx1112basic_stringIcSt11char_traitsIcESaIcEEEE
FN:3380,3380,_ZNK3MAS17ConnectionElement8get_typeEv
FN:3381,3381,_ZN3MAS17ConnectionElement8set_typeESt8optionalINS_14ConnectionTypeEE
FN:3394,3394,_ZN3MAS21InsulationWireCoatingC2Ev
FN:3395,3395,_ZN3MAS21InsulationWireCoatingD0Ev
FN:3395,3395,_ZN3MAS21InsulationWireCoatingD2Ev
FN:3412,3412,_ZNK3MAS21InsulationWireCoating21get_breakdown_voltageEv
FN:3413,3413,_ZN3MAS21InsulationWireCoating21set_breakdown_voltageESt8optionalIdE
FN:3418,3418,_ZNK3MAS21InsulationWireCoating9get_gradeEv
FN:3419,3419,_ZN3MAS21InsulationWireCoating9set_gradeESt8optionalIlE
FN:3421,3421,_ZNK3MAS21InsulationWireCoating12get_materialB5cxx11Ev
FN:3422,3422,_ZN3MAS21InsulationWireCoating12set_materialESt8optionalISt7variantIJNS_18InsulationMaterialENSt7__cxx1112basic_stringIcSt11char_traitsIcESaIcEEEEEE
FN:3427,3427,_ZNK3MAS21InsulationWireCoating17get_number_layersEv
FN:3428,3428,_ZN3MAS21InsulationWireCoating17set_number_layersESt8optionalIlE
FN:343,343,_ZNK3MAS18BaseOperatingPoint23get_ambient_temperatureEv
FN:3433,3433,_ZNK3MAS21InsulationWireCoating22get_temperature_ratingEv
FN:3434,3434,_ZN3MAS21InsulationWireCoating22set_temperature_ratingESt8optionalIdE
FN:3439,3439,_ZNK3MAS21InsulationWireCoating13get_thicknessEv
FN:3440,3440,_ZN3MAS21InsulationWireCoating13set_thicknessESt8optionalINS_22DimensionWithToleranceEE
FN:3445,3445,_ZNK3MAS21InsulationWireCoating20get_thickness_layersEv
FN:3446,3446,_ZN3MAS21InsulationWireCoating20set_thickness_layersESt8optionalIdE
FN:345,345,_ZN3MAS18BaseOperatingPoint23set_ambient_temperatureERKd
FN:3451,3451,_ZNK3MAS21InsulationWireCoating8get_typeEv
FN:3452,3452,_ZN3MAS21InsulationWireCoating8set_typeESt8optionalINS_25InsulationWireCoatingTypeEE
FN:3462,3462,_ZN3MAS11ResistivityC2Ev
FN:3463,3463,_ZN3MAS11ResistivityD0Ev
FN:3463,3463,_ZN3MAS11ResistivityD2Ev
FN:3474,3474,_ZNK3MAS11Resistivity25get_reference_temperatureEv
FN:3476,3476,_ZN3MAS11Resistivity25set_reference_temperatureERKd
FN:3481,3481,_ZNK3MAS11Resistivity19get_reference_valueEv
FN:3483,3483,_ZN3MAS11Resistivity19set_reference_valueERKd
FN:3488,3488,_ZNK3MAS11Resistivity27get_temperature_coefficientEv
FN:3490,3490,_ZN3MAS11Resistivity27set_temperature_coefficientERKd
FN:3498,3498,_ZN3MAS26ThermalConductivityElementC2Ev
FN:3499,3499,_ZN3MAS26ThermalConductivityElementD0Ev
FN:3499,3499,_ZN3MAS26ThermalConductivityElementD2Ev
FN:35,37,_ZN8nlohmann16json_abi_v3_11_314adl_serializerISt8optionalIN3MAS10TopologiesEEvE7to_jsonERNS0_10basic_jsonISt3mapSt6vectorNSt7__cxx1112basic_stringIcSt11char_traitsIcESaIcEEEblmdSaS1_S9_IhSaIhEEvEERKS5_
FN:35,37,_ZN8nlohmann16json_abi_v3_11_314adl_serializerISt8optionalIN3MAS11ApplicationEEvE7to_jsonERNS0_10basic_jsonISt3mapSt6vectorNSt7__cxx1112basic_stringIcSt11char_traitsIcESaIcEEEblmdSaS1_S9_IhSaIhEEvEERKS5_
FN:35,37,_ZN8nlohmann16json_abi_v3_11_314adl_serializerISt8optionalIN3MAS11ColumnShapeEEvE7to_jsonERNS0_10basic_jsonISt3mapSt6vectorNSt7__cxx1112basic_stringIcSt11char_traitsIcESaIcEEEblmdSaS1_S9_IhSaIhEEvEERKS5_
FN:35,37,_ZN8nlohmann16json_abi_v3_11_314adl_serializerISt8optionalIN3MAS11OhmicLossesEEvE7to_jsonERNS0_10basic_jsonISt3mapSt6vectorNSt7__cxx1112basic_stringIcSt11char_traitsIcESaIcEEEblmdSaS1_S9_IhSaIhEEvEERKS5_
FN:35,37,_ZN8nlohmann16json_abi_v3_11_314adl_serializerISt8optionalIN3MAS11VoltageTypeEEvE7to_jsonERNS0_10basic_jsonISt3mapSt6vectorNSt7__cxx1112basic_stringIcSt11char_traitsIcESaIcEEEblmdSaS1_S9_IhSaIhEEvEERKS5_
FN:35,37,_ZN8nlohmann16json_abi_v3_11_314adl_serializerISt8optionalIN3MAS12WindingStyleEEvE7to_jsonERNS0_10basic_jsonISt3mapSt6vectorNSt7__cxx1112basic_stringIcSt11char_traitsIcESaIcEEEblmdSaS1_S9_IhSaIhEEvEERKS5_
FN:35,37,_ZN8nlohmann16json_abi_v3_11_314adl_serializerISt8optionalIN3MAS12WireStandardEEvE7to_jsonERNS0_10basic_jsonISt3mapSt6vectorNSt7__cxx1112basic_stringIcSt11char_traitsIcESaIcEEEblmdSaS1_S9_IhSaIhEEvEERKS5_
FN:35,37,_ZN8nlohmann16json_abi_v3_11_314adl_serializerISt8optionalIN3MAS13CoilAlignmentEEvE7to_jsonERNS0_10basic_jsonISt3mapSt6vectorNSt7__cxx1112basic_stringIcSt11char_traitsIcESaIcEEEblmdSaS1_S9_IhSaIhEEvEERKS5_
FN:35,37,_ZN8nlohmann16json_abi_v3_11_314adl_serializerISt8optionalIN3MAS13WaveformLabelEEvE7to_jsonERNS0_10basic_jsonISt3mapSt6vectorNSt7__cxx1112basic_stringIcSt11char_traitsIcESaIcEEEblmdSaS1_S9_IhSaIhEEvEERKS5_
FN:35,37,_ZN8nlohmann16json_abi_v3_11_314adl_serializerISt8optionalIN3MAS14ConnectionTypeEEvE7to_jsonERNS0_10basic_jsonISt3mapSt6vectorNSt7__cxx1112basic_stringIcSt11char_traitsIcESaIcEEEblmdSaS1_S9_IhSaIhEEvEERKS5_
FN:35,37,_ZN8nlohmann16json_abi_v3_11_314adl_serializerISt8optionalIN3MAS14InsulationTypeEEvE7to_jsonERNS0_10basic_jsonISt3mapSt6vectorNSt7__cxx1112basic_stringIcSt11char_traitsIcESaIcEEEblmdSaS1_S9_IhSaIhEEvEERKS5_
FN:35,37,_ZN8nlohmann16json_abi_v3_11_314adl_serializerISt8optionalIN3MAS14OperatingPointEEvE7to_jsonERNS0_10basic_jsonISt3mapSt6vectorNSt7__cxx1112basic_stringIcSt11char_traitsIcESaIcEEEblmdSaS1_S9_IhSaIhEEvEERKS5_
FN:35,37,_ZN8nlohmann16json_abi_v3_11_314adl_serializerISt8optionalIN3MAS14SubApplicationEEvE7to_jsonERNS0_10basic_jsonISt3mapSt6vectorNSt7__cxx1112basic_stringIcSt11char_traitsIcESaIcEEEblmdSaS1_S9_IhSaIhEEvEERKS5_
FN:35,37,_ZN8nlohmann16json_abi_v3_11_314adl_serializerISt8optionalIN3MAS15FrequencyFactorEEvE7to_jsonERNS0_10basic_jsonISt3mapSt6vectorNSt7__cxx1112basic_stringIcSt11char_traitsIcESaIcEEEblmdSaS1_S9_IhSaIhEEvEERKS5_
FN:35,37,_ZN8nlohmann16json_abi_v3_11_314adl_serializerISt8optionalIN3MAS15ImpedanceOutputEEvE7to_jsonERNS0_10basic_jsonISt3mapSt6vectorNSt7__cxx1112basic_stringIcSt11char_traitsIcESaIcEEEblmdSaS1_S9_IhSaIhEEvEERKS5_
FN:35,37,_ZN8nlohmann16json_abi_v3_11_314adl_serializerISt8optionalIN3MAS15MagneticCircuitEEvE7to_jsonERNS0_10basic_jsonISt3mapSt6vectorNSt7__cxx1112basic_stringIcSt11char_traitsIcESaIcEEEblmdSaS1_S9_IhSaIhEEvEERKS5_
FN:35,37,_ZN8nlohmann16json_abi_v3_11_314adl_serializerISt8optionalIN3MAS15PollutionDegreeEEvE7to_jsonERNS0_10basic_jsonISt3mapSt6vectorNSt7__cxx1112basic_stringIcSt11char_traitsIcESaIcEEEblmdSaS1_S9_IhSaIhEEvEERKS5_
FN:35,37,_ZN8nlohmann16json_abi_v3_11_314adl_serializerISt8optionalIN3MAS15TurnOrientationEEvE7to_jsonERNS0_10basic_jsonISt3mapSt6vectorNSt7__cxx1112basic_stringIcSt11char_traitsIcESaIcEEEblmdSaS1_S9_IhSaIhEEvEERKS5_
FN:35,37,_ZN8nlohmann16json_abi_v3_11_314adl_serializerISt8optionalIN3MAS16CoordinateSystemEEvE7to_jsonERNS0_10basic_jsonISt3mapSt6vectorNSt7__cxx1112basic_stringIcSt11char_traitsIcESaIcEEEblmdSaS1_S9_IhSaIhEEvEERKS5_
FN:35,37,_ZN8nlohmann16json_abi_v3_11_314adl_serializerISt8optionalIN3MAS16CoreLossesOutputEEvE7to_jsonERNS0_10basic_jsonISt3mapSt6vectorNSt7__cxx1112basic_stringIcSt11char_traitsIcESaIcEEEblmdSaS1_S9_IhSaIhEEvEERKS5_
FN:35,37,_ZN8nlohmann16json_abi_v3_11_314adl_serializerISt8optionalIN3MAS16InductanceOutputEEvE7to_jsonERNS0_10basic_jsonISt3mapSt6vectorNSt7__cxx1112basic_stringIcSt11char_traitsIcESaIcEEEblmdSaS1_S9_IhSaIhEEvEERKS5_
FN:35,37,_ZN8nlohmann16json_abi_v3_11_314adl_serializerISt8optionalIN3MAS16ManufacturerInfoEEvE7to_jsonERNS0_10basic_jsonISt3mapSt6vectorNSt7__cxx1112basic_stringIcSt11char_traitsIcESaIcEEEblmdSaS1_S9_IhSaIhEEvEERKS5_
FN:35,37,_ZN8nlohmann16json_abi_v3_11_314adl_serializerISt8optionalIN3MAS16SignalDescriptorEEvE7to_jsonERNS0_10basic_jsonISt3mapSt6vectorNSt7__cxx1112basic_stringIcSt11char_traitsIcESaIcEEEblmdSaS1_S9_IhSaIhEEvEERKS5_
FN:35,37,_ZN8nlohmann16json_abi_v3_11_314adl_serializerISt8optionalIN3MAS16TemperaturePointEEvE7to_jsonERNS0_10basic_jsonISt3mapSt6vectorNSt7__cxx1112basic_stringIcSt11char_traitsIcESaIcEEEblmdSaS1_S9_IhSaIhEEvEERKS5_
FN:35,37,_ZN8nlohmann16json_abi_v3_11_314adl_serializerISt8optionalIN3MAS16WiringTechnologyEEvE7to_jsonERNS0_10basic_jsonISt3mapSt6vectorNSt7__cxx1112basic_stringIcSt11char_traitsIcESaIcEEEblmdSaS1_S9_IhSaIhEEvEERKS5_
FN:35,37,_ZN8nlohmann16json_abi_v3_11_314adl_serializerISt8optionalIN3MAS17MaximumDimensionsEEvE7to_jsonERNS0_10basic_jsonISt3mapSt6vectorNSt7__cxx1112basic_stringIcSt11char_traitsIcESaIcEEEblmdSaS1_S9_IhSaIhEEvEERKS5_
FN:35,37,_ZN8nlohmann16json_abi_v3_11_314adl_serializerISt8optionalIN3MAS17TemperatureFactorEEvE7to_jsonERNS0_10basic_jsonISt3mapSt6vectorNSt7__cxx1112basic_stringIcSt11char_traitsIcESaIcEEEblmdSaS1_S9_IhSaIhEEvEERKS5_
FN:35,37,_ZN8nlohmann16json_abi_v3_11_314adl_serializerISt8optionalIN3MAS17TemperatureOutputEEvE7to_jsonERNS0_10basic_jsonISt3mapSt6vectorNSt7__cxx1112basic_stringIcSt11char_traitsIcESaIcEEEblmdSaS1_S9_IhSaIhEEvEERKS5_
FN:35,37,_ZN8nlohmann16json_abi_v3_11_314adl_serializerISt8optionalIN3MAS18WindingLossElementEEvE7to_jsonERNS0_10basic_jsonISt3mapSt6vectorNSt7__cxx1112basic_stringIcSt11char_traitsIcESaIcEEEblmdSaS1_S9_IhSaIhEEvEERKS5_
FN:35,37,_ZN8nlohmann16json_abi_v3_11_314adl_serializerISt8optionalIN3MAS18WindingOrientationEEvE7to_jsonERNS0_10basic_jsonISt3mapSt6vectorNSt7__cxx1112basic_stringIcSt11char_traitsIcESaIcEEEblmdSaS1_S9_IhSaIhEEvEERKS5_
FN:35,37,_ZN8nlohmann16json_abi_v3_11_314adl_serializerISt8optionalIN3MAS18WindingWindowShapeEEvE7to_jsonERNS0_10basic_jsonISt3mapSt6vectorNSt7__cxx1112basic_stringIcSt11char_traitsIcESaIcEEEblmdSaS1_S9_IhSaIhEEvEERKS5_
FN:35,37,_ZN8nlohmann16json_abi_v3_11_314adl_serializerISt8optionalIN3MAS19MaterialCompositionEEvE7to_jsonERNS0_10basic_jsonISt3mapSt6vectorNSt7__cxx1112basic_stringIcSt11char_traitsIcESaIcEEEblmdSaS1_S9_IhSaIhEEvEERKS5_
FN:35,37,_ZN8nlohmann16json_abi_v3_11_314adl_serializerISt8optionalIN3MAS19OvervoltageCategoryEEvE7to_jsonERNS0_10basic_jsonISt3mapSt6vectorNSt7__cxx1112basic_stringIcSt11char_traitsIcESaIcEEEblmdSaS1_S9_IhSaIhEEvEERKS5_
FN:35,37,_ZN8nlohmann16json_abi_v3_11_314adl_serializerISt8optionalIN3MAS19WindingLossesOutputEEvE7to_jsonERNS0_10basic_jsonISt3mapSt6vectorNSt7__cxx1112basic_stringIcSt11char_traitsIcESaIcEEEblmdSaS1_S9_IhSaIhEEvEERKS5_
FN:35,37,_ZN8nlohmann16json_abi_v3_11_314adl_serializerISt8optionalIN3MAS22DimensionWithToleranceEEvE7to_jsonERNS0_10basic_jsonISt3mapSt6vectorNSt7__cxx1112basic_stringIcSt11char_traitsIcESaIcEEEblmdSaS1_S9_IhSaIhEEvEERKS5_
FN:35,37,_ZN8nlohmann16json_abi_v3_11_314adl_serializerISt8optionalIN3MAS22InsulationRequirementsEEvE7to_jsonERNS0_10basic_jsonISt3mapSt6vectorNSt7__cxx1112basic_stringIcSt11char_traitsIcESaIcEEEblmdSaS1_S9_IhSaIhEEvEERKS5_
FN:35,37,_ZN8nlohmann16json_abi_v3_11_314adl_serializerISt8optionalIN3MAS23ComplexPermeabilityDataEEvE7to_jsonERNS0_10basic_jsonISt3mapSt6vectorNSt7__cxx1112basic_stringIcSt11char_traitsIcESaIcEEEblmdSaS1_S9_IhSaIhEEvEERKS5_
FN:35,37,_ZN8nlohmann16json_abi_v3_11_314adl_serializerISt8optionalIN3MAS23LeakageInductanceOutputEEvE7to_jsonERNS0_10basic_jsonISt3mapSt6vectorNSt7__cxx1112basic_stringIcSt11char_traitsIcESaIcEEEblmdSaS1_S9_IhSaIhEEvEERKS5_
FN:35,37,_ZN8nlohmann16json_abi_v3_11_314adl_serializerISt8optionalIN3MAS23TurnCrossSectionalShapeEEvE7to_jsonERNS0_10basic_jsonISt3mapSt6vectorNSt7__cxx1112basic_stringIcSt11char_traitsIcESaIcEEEblmdSaS1_S9_IhSaIhEEvEERKS5_
FN:35,37,_ZN8nlohmann16json_abi_v3_11_314adl_serializerISt8optionalIN3MAS24CoreProcessedDescriptionEEvE7to_jsonERNS0_10basic_jsonISt3mapSt6vectorNSt7__cxx1112basic_stringIcSt11char_traitsIcESaIcEEEblmdSaS1_S9_IhSaIhEEvEERKS5_
FN:35,37,_ZN8nlohmann16json_abi_v3_11_314adl_serializerISt8optionalIN3MAS24MagneticManufacturerInfoEEvE7to_jsonERNS0_10basic_jsonISt3mapSt6vectorNSt7__cxx1112basic_stringIcSt11char_traitsIcESaIcEEEblmdSaS1_S9_IhSaIhEEvEERKS5_
FN:35,37,_ZN8nlohmann16json_abi_v3_11_314adl_serializerISt8optionalIN3MAS25InsulationWireCoatingTypeEEvE7to_jsonERNS0_10basic_jsonISt3mapSt6vectorNSt7__cxx1112basic_stringIcSt11char_traitsIcESaIcEEEblmdSaS1_S9_IhSaIhEEvEERKS5_
FN:35,37,_ZN8nlohmann16json_abi_v3_11_314adl_serializerISt8optionalIN3MAS25MagneticFieldDcBiasFactorEEvE7to_jsonERNS0_10basic_jsonISt3mapSt6vectorNSt7__cxx1112basic_stringIcSt11char_traitsIcESaIcEEEblmdSaS1_S9_IhSaIhEEvEERKS5_
FN:35,37,_ZN8nlohmann16json_abi_v3_11_314adl_serializerISt8optionalIN3MAS25MagneticFluxDensityFactorEEvE7to_jsonERNS0_10basic_jsonISt3mapSt6vectorNSt7__cxx1112basic_stringIcSt11char_traitsIcESaIcEEEblmdSaS1_S9_IhSaIhEEvEERKS5_
FN:35,37,_ZN8nlohmann16json_abi_v3_11_314adl_serializerISt8optionalIN3MAS27BobbinFunctionalDescriptionEEvE7to_jsonERNS0_10basic_jsonISt3mapSt6vectorNSt7__cxx1112basic_stringIcSt11char_traitsIcESaIcEEEblmdSaS1_S9_IhSaIhEEvEERKS5_
FN:35,37,_ZN8nlohmann16json_abi_v3_11_314adl_serializerISt8optionalIN3MAS27CoreMaterialRecommendationsEEvE7to_jsonERNS0_10basic_jsonISt3mapSt6vectorNSt7__cxx1112basic_stringIcSt11char_traitsIcESaIcEEEblmdSaS1_S9_IhSaIhEEvEERKS5_
FN:35,37,_ZN8nlohmann16json_abi_v3_11_314adl_serializerISt8optionalIN3MAS28InsulationCoordinationOutputEEvE7to_jsonERNS0_10basic_jsonISt3mapSt6vectorNSt7__cxx1112basic_stringIcSt11char_traitsIcESaIcEEEblmdSaS1_S9_IhSaIhEEvEERKS5_
FN:35,37,_ZN8nlohmann16json_abi_v3_11_314adl_serializerISt8optionalIN3MAS28RoshenAdditionalCoefficientsEEvE7to_jsonERNS0_10basic_jsonISt3mapSt6vectorNSt7__cxx1112basic_stringIcSt11char_traitsIcESaIcEEEblmdSaS1_S9_IhSaIhEEvEERKS5_
FN:35,37,_ZN8nlohmann16json_abi_v3_11_314adl_serializerISt8optionalIN3MAS30CoreBobbinProcessedDescriptionEEvE7to_jsonERNS0_10basic_jsonISt3mapSt6vectorNSt7__cxx1112basic_stringIcSt11char_traitsIcESaIcEEEblmdSaS1_S9_IhSaIhEEvEERKS5_
FN:35,37,_ZN8nlohmann16json_abi_v3_11_314adl_serializerISt8optionalIN3MAS31WindingWindowCurrentFieldOutputEEvE7to_jsonERNS0_10basic_jsonISt3mapSt6vectorNSt7__cxx1112basic_stringIcSt11char_traitsIcESaIcEEEblmdSaS1_S9_IhSaIhEEvEERKS5_
FN:35,37,_ZN8nlohmann16json_abi_v3_11_314adl_serializerISt8optionalIN3MAS32InitialPermeabilitModifierMethodEEvE7to_jsonERNS0_10basic_jsonISt3mapSt6vectorNSt7__cxx1112basic_stringIcSt11char_traitsIcESaIcEEEblmdSaS1_S9_IhSaIhEEvEERKS5_
FN:35,37,_ZN8nlohmann16json_abi_v3_11_314adl_serializerISt8optionalIN3MAS35MagneticManufacturerRecommendationsEEvE7to_jsonERNS0_10basic_jsonISt3mapSt6vectorNSt7__cxx1112basic_stringIcSt11char_traitsIcESaIcEEEblmdSaS1_S9_IhSaIhEEvEERKS5_
FN:35,37,_ZN8nlohmann16json_abi_v3_11_314adl_serializerISt8optionalIN3MAS38WindingWindowCurrentDensityFieldOutputEEvE7to_jsonERNS0_10basic_jsonISt3mapSt6vectorNSt7__cxx1112basic_stringIcSt11char_traitsIcESaIcEEEblmdSaS1_S9_IhSaIhEEvEERKS5_
FN:35,37,_ZN8nlohmann16json_abi_v3_11_314adl_serializerISt8optionalIN3MAS3CtiEEvE7to_jsonERNS0_10basic_jsonISt3mapSt6vectorNSt7__cxx1112basic_stringIcSt11char_traitsIcESaIcEEEblmdSaS1_S9_IhSaIhEEvEERKS5_
FN:35,37,_ZN8nlohmann16json_abi_v3_11_314adl_serializerISt8optionalIN3MAS40WindingWindowMagneticStrengthFieldOutputEEvE7to_jsonERNS0_10basic_jsonISt3mapSt6vectorNSt7__cxx1112basic_stringIcSt11char_traitsIcESaIcEEEblmdSaS1_S9_IhSaIhEEvEERKS5_
FN:35,37,_ZN8nlohmann16json_abi_v3_11_314adl_serializerISt8optionalIN3MAS6MarketEEvE7to_jsonERNS0_10basic_jsonISt3mapSt6vectorNSt7__cxx1112basic_stringIcSt11char_traitsIcESaIcEEEblmdSaS1_S9_IhSaIhEEvEERKS5_
FN:35,37,_ZN8nlohmann16json_abi_v3_11_314adl_serializerISt8optionalIN3MAS6PinoutEEvE7to_jsonERNS0_10basic_jsonISt3mapSt6vectorNSt7__cxx1112basic_stringIcSt11char_traitsIcESaIcEEEblmdSaS1_S9_IhSaIhEEvEERKS5_
FN:35,37,_ZN8nlohmann16json_abi_v3_11_314adl_serializerISt8optionalIN3MAS6StatusEEvE7to_jsonERNS0_10basic_jsonISt3mapSt6vectorNSt7__cxx1112basic_stringIcSt11char_traitsIcESaIcEEEblmdSaS1_S9_IhSaIhEEvEERKS5_
FN:35,37,_ZN8nlohmann16json_abi_v3_11_314adl_serializerISt8optionalIN3MAS7CoatingEEvE7to_jsonERNS0_10basic_jsonISt3mapSt6vectorNSt7__cxx1112basic_stringIcSt11char_traitsIcESaIcEEEblmdSaS1_S9_IhSaIhEEvEERKS5_
FN:35,37,_ZN8nlohmann16json_abi_v3_11_314adl_serializerISt8optionalIN3MAS7CoolingEEvE7to_jsonERNS0_10basic_jsonISt3mapSt6vectorNSt7__cxx1112basic_stringIcSt11char_traitsIcESaIcEEEblmdSaS1_S9_IhSaIhEEvEERKS5_
FN:35,37,_ZN8nlohmann16json_abi_v3_11_314adl_serializerISt8optionalIN3MAS8WaveformEEvE7to_jsonERNS0_10basic_jsonISt3mapSt6vectorNSt7__cxx1112basic_stringIcSt11char_traitsIcESaIcEEEblmdSaS1_S9_IhSaIhEEvEERKS5_
FN:35,37,_ZN8nlohmann16json_abi_v3_11_314adl_serializerISt8optionalIN3MAS9DirectionEEvE7to_jsonERNS0_10basic_jsonISt3mapSt6vectorNSt7__cxx1112basic_stringIcSt11char_traitsIcESaIcEEEblmdSaS1_S9_IhSaIhEEvEERKS5_
FN:35,37,_ZN8nlohmann16json_abi_v3_11_314adl_serializerISt8optionalIN3MAS9HarmonicsEEvE7to_jsonERNS0_10basic_jsonISt3mapSt6vectorNSt7__cxx1112basic_stringIcSt11char_traitsIcESaIcEEEblmdSaS1_S9_IhSaIhEEvEERKS5_
FN:35,37,_ZN8nlohmann16json_abi_v3_11_314adl_serializerISt8optionalIN3MAS9ProcessedEEvE7to_jsonERNS0_10basic_jsonISt3mapSt6vectorNSt7__cxx1112basic_stringIcSt11char_traitsIcESaIcEEEblmdSaS1_S9_IhSaIhEEvEERKS5_
FN:35,37,_ZN8nlohmann16json_abi_v3_11_314adl_serializerISt8optionalINSt7__cxx1112basic_stringIcSt11char_traitsIcESaIcEEEEvE7to_jsonERNS0_10basic_jsonISt3mapSt6vectorS8_blmdSaS1_SD_IhSaIhEEvEERKS9_
FN:35,37,_ZN8nlohmann16json_abi_v3_11_314adl_serializerISt8optionalISt3mapINSt7__cxx1112basic_stringIcSt11char_traitsIcESaIcEEEN3MAS26InitialPermeabilitModifierESt4lessIS9_ESaISt4pairIKS9_SB_EEEEvE7to_jsonERNS0_10basic_jsonIS3_St6vectorS9_blmdSaS1_SM_IhSaIhEEvEERKSJ_
FN:35,37,_ZN8nlohmann16json_abi_v3_11_314adl_serializerISt8optionalISt3mapINSt7__cxx1112basic_stringIcSt11char_traitsIcESaIcEEES3_IS9_N3MAS23ScalarMatrixAtFrequencyESt4lessIS9_ESaISt4pairIKS9_SB_EEESD_SaISE_ISF_SI_EEEEvE7to_jsonERNS0_10basic_jsonIS3_St6vectorS9_blmdSaS1_SP_IhSaIhEEvEERKSM_
FN:35,37,_ZN8nlohmann16json_abi_v3_11_314adl_serializerISt8optionalISt3mapINSt7__cxx1112basic_stringIcSt11char_traitsIcESaIcEEES3_IS9_N3MAS28TripoleCapacitancePerWindingESt4lessIS9_ESaISt4pairIKS9_SB_EEESD_SaISE_ISF_SI_EEEEvE7to_jsonERNS0_10basic_jsonIS3_St6vectorS9_blmdSaS1_SP_IhSaIhEEvEERKSM_
FN:35,37,_ZN8nlohmann16json_abi_v3_11_314adl_serializerISt8optionalISt3mapINSt7__cxx1112basic_stringIcSt11char_traitsIcESaIcEEES3_IS9_N3MAS29SixCapacitorNetworkPerWindingESt4lessIS9_ESaISt4pairIKS9_SB_EEESD_SaISE_ISF_SI_EEEEvE7to_jsonERNS0_10basic_jsonIS3_St6vectorS9_blmdSaS1_SP_IhSaIhEEvEERKSM_
FN:35,37,_ZN8nlohmann16json_abi_v3_11_314adl_serializerISt8optionalISt3mapINSt7__cxx1112basic_stringIcSt11char_traitsIcESaIcEEES3_IS9_dSt4lessIS9_ESaISt4pairIKS9_dEEESB_SaISC_ISD_SG_EEEEvE7to_jsonERNS0_10basic_jsonIS3_St6vectorS9_blmdSaS1_SN_IhSaIhEEvEERKSK_
FN:35,37,_ZN8nlohmann16json_abi_v3_11_314adl_serializerISt8optionalISt3mapINSt7__cxx1112basic_stringIcSt11char_traitsIcESaIcEEESt6vectorISt7variantIJSA_IN3MAS15MassLossesPointESaISD_EENSC_28MagnetecCoreLossesMethodDataEEESaISH_EESt4lessIS9_ESaISt4pairIKS9_SJ_EEEEvE7to_jsonERNS0_10basic_jsonIS3_SA_S9_blmdSaS1_SA_IhSaIhEEvEERKSR_
FN:35,37,_ZN8nlohmann16json_abi_v3_11_314adl_serializerISt8optionalISt3mapINSt7__cxx1112basic_stringIcSt11char_traitsIcESaIcEEESt7variantIJN3MAS22DimensionWithToleranceEdEESt4lessIS9_ESaISt4pairIKS9_SD_EEEEvE7to_jsonERNS0_10basic_jsonIS3_St6vectorS9_blmdSaS1_SO_IhSaIhEEvEERKSL_
FN:35,37,_ZN8nlohmann16json_abi_v3_11_314adl_serializerISt8optionalISt6vectorIN3MAS13IsolationSideESaIS5_EEEvE7to_jsonERNS0_10basic_jsonISt3mapS3_NSt7__cxx1112basic_stringIcSt11char_traitsIcESaIcEEEblmdSaS1_S3_IhSaIhEEvEERKS8_
FN:35,37,_ZN8nlohmann16json_abi_v3_11_314adl_serializerISt8optionalISt6vectorIN3MAS14BhCycleElementESaIS5_EEEvE7to_jsonERNS0_10basic_jsonISt3mapS3_NSt7__cxx1112basic_stringIcSt11char_traitsIcESaIcEEEblmdSaS1_S3_IhSaIhEEvEERKS8_
FN:35,37,_ZN8nlohmann16json_abi_v3_11_314adl_serializerISt8optionalISt6vectorIN3MAS14ConnectionTypeESaIS5_EEEvE7to_jsonERNS0_10basic_jsonISt3mapS3_NSt7__cxx1112basic_stringIcSt11char_traitsIcESaIcEEEblmdSaS1_S3_IhSaIhEEvEERKS8_
FN:35,37,_ZN8nlohmann16json_abi_v3_11_314adl_serializerISt8optionalISt6vectorIN3MAS15DistributorInfoESaIS5_EEEvE7to_jsonERNS0_10basic_jsonISt3mapS3_NSt7__cxx1112basic_stringIcSt11char_traitsIcESaIcEEEblmdSaS1_S3_IhSaIhEEvEERKS8_
FN:35,37,_ZN8nlohmann16json_abi_v3_11_314adl_serializerISt8optionalISt6vectorIN3MAS15LossFactorPointESaIS5_EEEvE7to_jsonERNS0_10basic_jsonISt3mapS3_NSt7__cxx1112basic_stringIcSt11char_traitsIcESaIcEEEblmdSaS1_S3_IhSaIhEEvEERKS8_
FN:35,37,_ZN8nlohmann16json_abi_v3_11_314adl_serializerISt8optionalISt6vectorIN3MAS16ResistivityPointESaIS5_EEEvE7to_jsonERNS0_10basic_jsonISt3mapS3_NSt7__cxx1112basic_stringIcSt11char_traitsIcESaIcEEEblmdSaS1_S3_IhSaIhEEvEERKS8_
FN:35,37,_ZN8nlohmann16json_abi_v3_11_314adl_serializerISt8optionalISt6vectorIN3MAS17ConnectionElementESaIS5_EEEvE7to_jsonERNS0_10basic_jsonISt3mapS3_NSt7__cxx1112basic_stringIcSt11char_traitsIcESaIcEEEblmdSaS1_S3_IhSaIhEEvEERKS8_
FN:35,37,_ZN8nlohmann16json_abi_v3_11_314adl_serializerISt8optionalISt6vectorIN3MAS17DielectricVoltageESaIS5_EEEvE7to_jsonERNS0_10basic_jsonISt3mapS3_NSt7__cxx1112basic_stringIcSt11char_traitsIcESaIcEEEblmdSaS1_S3_IhSaIhEEvEERKS8_
FN:35,37,_ZN8nlohmann16json_abi_v3_11_314adl_serializerISt8optionalISt6vectorIN3MAS19InsulationStandardsESaIS5_EEEvE7to_jsonERNS0_10basic_jsonISt3mapS3_NSt7__cxx1112basic_stringIcSt11char_traitsIcESaIcEEEblmdSaS1_S3_IhSaIhEEvEERKS8_
FN:35,37,_ZN8nlohmann16json_abi_v3_11_314adl_serializerISt8optionalISt6vectorIN3MAS20ImpedanceAtFrequencyESaIS5_EEEvE7to_jsonERNS0_10basic_jsonISt3mapS3_NSt7__cxx1112basic_stringIcSt11char_traitsIcESaIcEEEblmdSaS1_S3_IhSaIhEEvEERKS8_
FN:35,37,_ZN8nlohmann16json_abi_v3_11_314adl_serializerISt8optionalISt6vectorIN3MAS20PinWindingConnectionESaIS5_EEEvE7to_jsonERNS0_10basic_jsonISt3mapS3_NSt7__cxx1112basic_stringIcSt11char_traitsIcESaIcEEEblmdSaS1_S3_IhSaIhEEvEERKS8_
FN:35,37,_ZN8nlohmann16json_abi_v3_11_314adl_serializerISt8optionalISt6vectorIN3MAS21VolumetricLossesPointESaIS5_EEEvE7to_jsonERNS0_10basic_jsonISt3mapS3_NSt7__cxx1112basic_stringIcSt11char_traitsIcESaIcEEEblmdSaS1_S3_IhSaIhEEvEERKS8_
FN:35,37,_ZN8nlohmann16json_abi_v3_11_314adl_serializerISt8optionalISt6vectorIN3MAS22AirGapReluctanceOutputESaIS5_EEEvE7to_jsonERNS0_10basic_jsonISt3mapS3_NSt7__cxx1112basic_stringIcSt11char_traitsIcESaIcEEEblmdSaS1_S3_IhSaIhEEvEERKS8_
FN:35,37,_ZN8nlohmann16json_abi_v3_11_314adl_serializerISt8optionalISt6vectorIN3MAS22DimensionWithToleranceESaIS5_EEEvE7to_jsonERNS0_10basic_jsonISt3mapS3_NSt7__cxx1112basic_stringIcSt11char_traitsIcESaIcEEEblmdSaS1_S3_IhSaIhEEvEERKS8_
FN:35,37,_ZN8nlohmann16json_abi_v3_11_314adl_serializerISt8optionalISt6vectorIN3MAS22StrayCapacitanceOutputESaIS5_EEEvE7to_jsonERNS0_10basic_jsonISt3mapS3_NSt7__cxx1112basic_stringIcSt11char_traitsIcESaIcEEEblmdSaS1_S3_IhSaIhEEvEERKS8_
FN:35,37,_ZN8nlohmann16json_abi_v3_11_314adl_serializerISt8optionalISt6vectorIN3MAS23ScalarMatrixAtFrequencyESaIS5_EEEvE7to_jsonERNS0_10basic_jsonISt3mapS3_NSt7__cxx1112basic_stringIcSt11char_traitsIcESaIcEEEblmdSaS1_S3_IhSaIhEEvEERKS8_
FN:35,37,_ZN8nlohmann16json_abi_v3_11_314adl_serializerISt8optionalISt6vectorIN3MAS23WindingLossesPerElementESaIS5_EEEvE7to_jsonERNS0_10basic_jsonISt3mapS3_NSt7__cxx1112basic_stringIcSt11char_traitsIcESaIcEEEblmdSaS1_S3_IhSaIhEEvEERKS8_
FN:35,37,_ZN8nlohmann16json_abi_v3_11_314adl_serializerISt8optionalISt6vectorIN3MAS24ComplexMatrixAtFrequencyESaIS5_EEEvE7to_jsonERNS0_10basic_jsonISt3mapS3_NSt7__cxx1112basic_stringIcSt11char_traitsIcESaIcEEEblmdSaS1_S3_IhSaIhEEvEERKS8_
FN:35,37,_ZN8nlohmann16json_abi_v3_11_314adl_serializerISt8optionalISt6vectorIN3MAS26ThermalConductivityElementESaIS5_EEEvE7to_jsonERNS0_10basic_jsonISt3mapS3_NSt7__cxx1112basic_stringIcSt11char_traitsIcESaIcEEEblmdSaS1_S3_IhSaIhEEvEERKS8_
FN:35,37,_ZN8nlohmann16json_abi_v3_11_314adl_serializerISt8optionalISt6vectorIN3MAS33CoreGeometricalDescriptionElementESaIS5_EEEvE7to_jsonERNS0_10basic_jsonISt3mapS3_NSt7__cxx1112basic_stringIcSt11char_traitsIcESaIcEEEblmdSaS1_S3_IhSaIhEEvEERKS8_
FN:35,37,_ZN8nlohmann16json_abi_v3_11_314adl_serializerISt8optionalISt6vectorIN3MAS35SteinmetzCoreLossesMethodRangeDatumESaIS5_EEEvE7to_jsonERNS0_10basic_jsonISt3mapS3_NSt7__cxx1112basic_stringIcSt11char_traitsIcESaIcEEEblmdSaS1_S3_IhSaIhEEvEERKS8_
FN:35,37,_ZN8nlohmann16json_abi_v3_11_314adl_serializerISt8optionalISt6vectorIN3MAS3PinESaIS5_EEEvE7to_jsonERNS0_10basic_jsonISt3mapS3_NSt7__cxx1112basic_stringIcSt11char_traitsIcESaIcEEEblmdSaS1_S3_IhSaIhEEvEERKS8_
FN:35,37,_ZN8nlohmann16json_abi_v3_11_314adl_serializerISt8optionalISt6vectorIN3MAS4TurnESaIS5_EEEvE7to_jsonERNS0_10basic_jsonISt3mapS3_NSt7__cxx1112basic_stringIcSt11char_traitsIcESaIcEEEblmdSaS1_S3_IhSaIhEEvEERKS8_
FN:35,37,_ZN8nlohmann16json_abi_v3_11_314adl_serializerISt8optionalISt6vectorIN3MAS5GroupESaIS5_EEEvE7to_jsonERNS0_10basic_jsonISt3mapS3_NSt7__cxx1112basic_stringIcSt11char_traitsIcESaIcEEEblmdSaS1_S3_IhSaIhEEvEERKS8_
FN:35,37,_ZN8nlohmann16json_abi_v3_11_314adl_serializerISt8optionalISt6vectorIN3MAS5LayerESaIS5_EEEvE7to_jsonERNS0_10basic_jsonISt3mapS3_NSt7__cxx1112basic_stringIcSt11char_traitsIcESaIcEEEblmdSaS1_S3_IhSaIhEEvEERKS8_
FN:35,37,_ZN8nlohmann16json_abi_v3_11_314adl_serializerISt8optionalISt6vectorIN3MAS7SectionESaIS5_EEEvE7to_jsonERNS0_10basic_jsonISt3mapS3_NSt7__cxx1112basic_stringIcSt11char_traitsIcESaIcEEEblmdSaS1_S3_IhSaIhEEvEERKS8_
FN:35,37,_ZN8nlohmann16json_abi_v3_11_314adl_serializerISt8optionalISt6vectorIN3MAS9MachiningESaIS5_EEEvE7to_jsonERNS0_10basic_jsonISt3mapS3_NSt7__cxx1112basic_stringIcSt11char_traitsIcESaIcEEEblmdSaS1_S3_IhSaIhEEvEERKS8_
FN:35,37,_ZN8nlohmann16json_abi_v3_11_314adl_serializerISt8optionalISt6vectorINSt7__cxx1112basic_stringIcSt11char_traitsIcESaIcEEESaIS9_EEEvE7to_jsonERNS0_10basic_jsonISt3mapS3_S9_blmdSaS1_S3_IhSaIhEEvEERKSC_
FN:35,37,_ZN8nlohmann16json_abi_v3_11_314adl_serializerISt8optionalISt6vectorIS3_IdSaIdEESaIS5_EEEvE7to_jsonERNS0_10basic_jsonISt3mapS3_NSt7__cxx1112basic_stringIcSt11char_traitsIcESaIcEEEblmdSaS1_S3_IhSaIhEEvEERKS8_
FN:35,37,_ZN8nlohmann16json_abi_v3_11_314adl_serializerISt8optionalISt6vectorIdSaIdEEEvE7to_jsonERNS0_10basic_jsonISt3mapS3_NSt7__cxx1112basic_stringIcSt11char_traitsIcESaIcEEEblmdSaS1_S3_IhSaIhEEvEERKS6_
FN:35,37,_ZN8nlohmann16json_abi_v3_11_314adl_serializerISt8optionalISt6vectorIlSaIlEEEvE7to_jsonERNS0_10basic_jsonISt3mapS3_NSt7__cxx1112basic_stringIcSt11char_traitsIcESaIcEEEblmdSaS1_S3_IhSaIhEEvEERKS6_
FN:35,37,_ZN8nlohmann16json_abi_v3_11_314adl_serializerISt8optionalISt7variantIJN3MAS12CoreMaterialENSt7__cxx1112basic_stringIcSt11char_traitsIcESaIcEEEEEEvE7to_jsonERNS0_10basic_jsonISt3mapSt6vectorSB_blmdSaS1_SH_IhSaIhEEvEERKSD_
FN:35,37,_ZN8nlohmann16json_abi_v3_11_314adl_serializerISt8optionalISt7variantIJN3MAS12WireMaterialENSt7__cxx1112basic_stringIcSt11char_traitsIcESaIcEEEEEEvE7to_jsonERNS0_10basic_jsonISt3mapSt6vectorSB_blmdSaS1_SH_IhSaIhEEvEERKSD_
FN:35,37,_ZN8nlohmann16json_abi_v3_11_314adl_serializerISt8optionalISt7variantIJN3MAS18InsulationMaterialENSt7__cxx1112basic_stringIcSt11char_traitsIcESaIcEEEEEEvE7to_jsonERNS0_10basic_jsonISt3mapSt6vectorSB_blmdSaS1_SH_IhSaIhEEvEERKSD_
FN:35,37,_ZN8nlohmann16json_abi_v3_11_314adl_serializerISt8optionalISt7variantIJN3MAS21InsulationWireCoatingENSt7__cxx1112basic_stringIcSt11char_traitsIcESaIcEEEEEEvE7to_jsonERNS0_10basic_jsonISt3mapSt6vectorSB_blmdSaS1_SH_IhSaIhEEvEERKSD_
FN:35,37,_ZN8nlohmann16json_abi_v3_11_314adl_serializerISt8optionalISt7variantIJN3MAS9CoreShapeENSt7__cxx1112basic_stringIcSt11char_traitsIcESaIcEEEEEEvE7to_jsonERNS0_10basic_jsonISt3mapSt6vectorSB_blmdSaS1_SH_IhSaIhEEvEERKSD_
FN:35,37,_ZN8nlohmann16json_abi_v3_11_314adl_serializerISt8optionalISt7variantIJN3MAS9WireRoundENSt7__cxx1112basic_stringIcSt11char_traitsIcESaIcEEEEEEvE7to_jsonERNS0_10basic_jsonISt3mapSt6vectorSB_blmdSaS1_SH_IhSaIhEEvEERKSD_
FN:35,37,_ZN8nlohmann16json_abi_v3_11_314adl_serializerISt8optionalISt7variantIJSt6vectorIN3MAS17PermeabilityPointESaIS6_EES6_EEEvE7to_jsonERNS0_10basic_jsonISt3mapS4_NSt7__cxx1112basic_stringIcSt11char_traitsIcESaIcEEEblmdSaS1_S4_IhSaIhEEvEERKSA_
FN:35,37,_ZN8nlohmann16json_abi_v3_11_314adl_serializerISt8optionalISt7variantIJSt6vectorIdSaIdEEN3MAS10MarginInfoEEEEvE7to_jsonERNS0_10basic_jsonISt3mapS4_NSt7__cxx1112basic_stringIcSt11char_traitsIcESaIcEEEblmdSaS1_S4_IhSaIhEEvEERKSA_
FN:35,37,_ZN8nlohmann16json_abi_v3_11_314adl_serializerISt8optionalIbEvE7to_jsonERNS0_10basic_jsonISt3mapSt6vectorNSt7__cxx1112basic_stringIcSt11char_traitsIcESaIcEEEblmdSaS1_S7_IhSaIhEEvEERKS3_
FN:35,37,_ZN8nlohmann16json_abi_v3_11_314adl_serializerISt8optionalIdEvE7to_jsonERNS0_10basic_jsonISt3mapSt6vectorNSt7__cxx1112basic_stringIcSt11char_traitsIcESaIcEEEblmdSaS1_S7_IhSaIhEEvEERKS3_
FN:35,37,_ZN8nlohmann16json_abi_v3_11_314adl_serializerISt8optionalIlEvE7to_jsonERNS0_10basic_jsonISt3mapSt6vectorNSt7__cxx1112basic_stringIcSt11char_traitsIcESaIcEEEblmdSaS1_S7_IhSaIhEEvEERKS3_
FN:350,350,_ZNK3MAS18BaseOperatingPoint19get_output_currentsEv
FN:3509,3509,_ZNK3MAS26ThermalConductivityElement15get_temperatureEv
FN:3511,3511,_ZN3MAS26ThermalConductivityElement15set_temperatureERKd
FN:3516,3516,_ZNK3MAS26ThermalConductivityElement9get_valueEv
FN:3518,3518,_ZN3MAS26ThermalConductivityElement9set_valueERKd
FN:352,352,_ZN3MAS18BaseOperatingPoint19set_output_currentsERKSt6vectorIdSaIdEE
FN:3526,3526,_ZN3MAS12WireMaterialC2Ev
FN:3527,3527,_ZN3MAS12WireMaterialD0Ev
FN:3527,3527,_ZN3MAS12WireMaterialD2Ev
FN:3539,3539,_ZNK3MAS12WireMaterial8get_nameB5cxx11Ev
FN:3541,3541,_ZN3MAS12WireMaterial8set_nameERKNSt7__cxx1112basic_stringIcSt11char_traitsIcESaIcEEE
FN:3546,3546,_ZNK3MAS12WireMaterial16get_permeabilityEv
FN:3548,3548,_ZN3MAS12WireMaterial16set_permeabilityERKd
FN:3550,3550,_ZNK3MAS12WireMaterial15get_resistivityEv
FN:3552,3552,_ZN3MAS12WireMaterial15set_resistivityERKNS_11ResistivityE
FN:3554,3554,_ZNK3MAS12WireMaterial24get_thermal_conductivityEv
FN:3555,3555,_ZN3MAS12WireMaterial24set_thermal_conductivityESt8optionalISt6vectorINS_26ThermalConductivityElementESaIS3_EEE
FN:357,357,_ZNK3MAS18BaseOperatingPoint19get_output_voltagesEv
FN:3577,3577,_ZN3MAS9WireRoundC2Ev
FN:3578,3578,_ZN3MAS9WireRoundD0Ev
FN:3578,3578,_ZN3MAS9WireRoundD2Ev
FN:359,359,_ZN3MAS18BaseOperatingPoint19set_output_voltagesERKSt6vectorIdSaIdEE
FN:3597,3597,_ZNK3MAS9WireRound23get_conducting_diameterEv
FN:3599,3599,_ZN3MAS9WireRound23set_conducting_diameterERKNS_22DimensionWithToleranceE
FN:3601,3601,_ZNK3MAS9WireRound12get_materialB5cxx11Ev
FN:3602,3602,_ZN3MAS9WireRound12set_materialESt8optionalISt7variantIJNS_12WireMaterialENSt7__cxx1112basic_stringIcSt11char_traitsIcESaIcEEEEEE
FN:3607,3607,_ZNK3MAS9WireRound18get_outer_diameterEv
FN:3608,3608,_ZN3MAS9WireRound18set_outer_diameterESt8optionalINS_22DimensionWithToleranceEE
FN:3610,3610,_ZNK3MAS9WireRound11get_coatingB5cxx11Ev
FN:3611,3611,_ZN3MAS9WireRound11set_coatingESt8optionalISt7variantIJNS_21InsulationWireCoatingENSt7__cxx1112basic_stringIcSt11char_traitsIcESaIcEEEEEE
FN:3617,3617,_ZNK3MAS9WireRound19get_conducting_areaEv
FN:3618,3618,_ZN3MAS9WireRound19set_conducting_areaESt8optionalINS_22DimensionWithToleranceEE
FN:3620,3620,_ZNK3MAS9WireRound21get_manufacturer_infoEv
FN:3621,3621,_ZN3MAS9WireRound21set_manufacturer_infoESt8optionalINS_16ManufacturerInfoEE
FN:3626,3626,_ZNK3MAS9WireRound8get_nameB5cxx11Ev
FN:3627,3627,_ZN3MAS9WireRound8set_nameESt8optionalINSt7__cxx1112basic_stringIcSt11char_traitsIcESaIcEEEE
FN:3632,3632,_ZNK3MAS9WireRound21get_number_conductorsEv
FN:3633,3633,_ZN3MAS9WireRound21set_number_conductorsESt8optionalIlE
FN:3638,3638,_ZNK3MAS9WireRound12get_standardEv
FN:3639,3639,_ZN3MAS9WireRound12set_standardESt8optionalINS_12WireStandardEE
FN:364,364,_ZNK3MAS18BaseOperatingPoint23get_switching_frequencyEv
FN:3644,3644,_ZNK3MAS9WireRound17get_standard_nameB5cxx11Ev
FN:3645,3645,_ZN3MAS9WireRound17set_standard_nameESt8optionalINSt7__cxx1112basic_stringIcSt11char_traitsIcESaIcEEEE
FN:3647,3647,_ZNK3MAS9WireRound8get_typeEv
FN:3649,3649,_ZN3MAS9WireRound8set_typeERKNS_8WireTypeE
FN:366,366,_ZN3MAS18BaseOperatingPoint23set_switching_frequencyERKd
FN:3669,3669,_ZN3MAS4WireC2Ev
FN:3670,3670,_ZN3MAS4WireD0Ev
FN:3670,3670,_ZN3MAS4WireD2Ev
FN:3695,3695,_ZNK3MAS4Wire23get_conducting_diameterEv
FN:3696,3696,_ZN3MAS4Wire23set_conducting_diameterESt8optionalINS_22DimensionWithToleranceEE
FN:3698,3698,_ZNK3MAS4Wire12get_materialB5cxx11Ev
FN:3699,3699,_ZN3MAS4Wire12set_materialESt8optionalISt7variantIJNS_12WireMaterialENSt7__cxx1112basic_stringIcSt11char_traitsIcESaIcEEEEEE
FN:3704,3704,_ZNK3MAS4Wire18get_outer_diameterEv
FN:3705,3705,_ZN3MAS4Wire18set_outer_diameterESt8optionalINS_22DimensionWithToleranceEE
FN:3707,3707,_ZNK3MAS4Wire11get_coatingB5cxx11Ev
FN:3708,3708,_ZN3MAS4Wire11set_coatingESt8optionalISt7variantIJNS_21InsulationWireCoatingENSt7__cxx1112basic_stringIcSt11char_traitsIcESaIcEEEEEE
FN:3714,3714,_ZNK3MAS4Wire19get_conducting_areaEv
FN:3715,3715,_ZN3MAS4Wire19set_conducting_areaESt8optionalINS_22DimensionWithToleranceEE
FN:3717,3717,_ZNK3MAS4Wire21get_manufacturer_infoEv
FN:3718,3718,_ZN3MAS4Wire21set_manufacturer_infoESt8optionalINS_16ManufacturerInfoEE
FN:3723,3723,_ZNK3MAS4Wire8get_nameB5cxx11Ev
FN:3724,3724,_ZN3MAS4Wire8set_nameESt8optionalINSt7__cxx1112basic_stringIcSt11char_traitsIcESaIcEEEE
FN:3729,3729,_ZNK3MAS4Wire21get_number_conductorsEv
FN:3730,3730,_ZN3MAS4Wire21set_number_conductorsESt8optionalIlE
FN:3735,3735,_ZNK3MAS4Wire12get_standardEv
FN:3736,3736,_ZN3MAS4Wire12set_standardESt8optionalINS_12WireStandardEE
FN:374,374,_ZN3MAS5BoostC2Ev
FN:3741,3741,_ZNK3MAS4Wire17get_standard_nameB5cxx11Ev
FN:3742,3742,_ZN3MAS4Wire17set_standard_nameESt8optionalINSt7__cxx1112basic_stringIcSt11char_traitsIcESaIcEEEE
FN:3744,3744,_ZNK3MAS4Wire8get_typeEv
FN:3746,3746,_ZN3MAS4Wire8set_typeERKNS_8WireTypeE
FN:375,375,_ZN3MAS5BoostD0Ev
FN:375,375,_ZN3MAS5BoostD2Ev
FN:3751,3751,_ZNK3MAS4Wire21get_conducting_heightEv
FN:3752,3752,_ZN3MAS4Wire21set_conducting_heightESt8optionalINS_22DimensionWithToleranceEE
FN:3757,3757,_ZNK3MAS4Wire20get_conducting_widthEv
FN:3758,3758,_ZN3MAS4Wire20set_conducting_widthESt8optionalINS_22DimensionWithToleranceEE
FN:3763,3763,_ZNK3MAS4Wire16get_outer_heightEv
FN:3764,3764,_ZN3MAS4Wire16set_outer_heightESt8optionalINS_22DimensionWithToleranceEE
FN:3769,3769,_ZNK3MAS4Wire15get_outer_widthEv
FN:3770,3770,_ZN3MAS4Wire15set_outer_widthESt8optionalINS_22DimensionWithToleranceEE
FN:3775,3775,_ZNK3MAS4Wire15get_edge_radiusEv
FN:3776,3776,_ZN3MAS4Wire15set_edge_radiusESt8optionalINS_22DimensionWithToleranceEE
FN:3781,3781,_ZNK3MAS4Wire10get_strandB5cxx11Ev
FN:3782,3782,_ZN3MAS4Wire10set_strandESt8optionalISt7variantIJNS_9WireRoundENSt7__cxx1112basic_stringIcSt11char_traitsIcESaIcEEEEEE
FN:3792,3792,_ZN3MAS25CoilFunctionalDescriptionC2Ev
FN:3793,3793,_ZN3MAS25CoilFunctionalDescriptionD0Ev
FN:3793,3793,_ZN3MAS25CoilFunctionalDescriptionD2Ev
FN:3808,3808,_ZNK3MAS25CoilFunctionalDescription15get_connectionsEv
FN:3809,3809,_ZN3MAS25CoilFunctionalDescription15set_connectionsESt8optionalISt6vectorINS_17ConnectionElementESaIS3_EEE
FN:3811,3811,_ZNK3MAS25CoilFunctionalDescription18get_isolation_sideEv
FN:3813,3813,_ZN3MAS25CoilFunctionalDescription18set_isolation_sideERKNS_13IsolationSideE
FN:3818,3818,_ZNK3MAS25CoilFunctionalDescription8get_nameB5cxx11Ev
FN:3820,3820,_ZN3MAS25CoilFunctionalDescription8set_nameERKNSt7__cxx1112basic_stringIcSt11char_traitsIcESaIcEEE
FN:3825,3825,_ZNK3MAS25CoilFunctionalDescription20get_number_parallelsEv
FN:3827,3827,_ZN3MAS25CoilFunctionalDescription20set_number_parallelsERKl
FN:3832,3832,_ZNK3MAS25CoilFunctionalDescription16get_number_turnsEv
FN:3834,3834,_ZN3MAS25CoilFunctionalDescription16set_number_turnsERKl
FN:3836,3836,_ZNK3MAS25CoilFunctionalDescription8get_wireB5cxx11Ev
FN:3838,3838,_ZN3MAS25CoilFunctionalDescription8set_wireERKSt7variantIJNS_4WireENSt7__cxx1112basic_stringIcSt11char_traitsIcESaIcEEEEE
FN:3843,3843,_ZNK3MAS25CoilFunctionalDescription14get_wound_withB5cxx11Ev
FN:3844,3844,_ZN3MAS25CoilFunctionalDescription14set_wound_withESt8optionalISt6vectorINSt7__cxx1112basic_stringIcSt11char_traitsIcESaIcEEESaIS8_EEE
FN:3858,3858,_ZN3MAS14PartialWindingC2Ev
FN:3859,3859,_ZN3MAS14PartialWindingD0Ev
FN:3859,3859,_ZN3MAS14PartialWindingD2Ev
FN:3871,3871,_ZNK3MAS14PartialWinding15get_connectionsEv
FN:3872,3872,_ZN3MAS14PartialWinding15set_connectionsESt8optionalISt6vectorINS_17ConnectionElementESaIS3_EEE
FN:3877,3877,_ZNK3MAS14PartialWinding24get_parallels_proportionEv
FN:3879,3879,_ZN3MAS14PartialWinding24set_parallels_proportionERKSt6vectorIdSaIdEE
FN:3884,3884,_ZNK3MAS14PartialWinding11get_windingB5cxx11Ev
FN:3886,3886,_ZN3MAS14PartialWinding11set_windingERKNSt7__cxx1112basic_stringIcSt11char_traitsIcESaIcEEE
FN:389,389,_ZNK3MAS5Boost24get_current_ripple_ratioEv
FN:3895,3895,_ZN3MAS5GroupC2Ev
FN:3896,3896,_ZN3MAS5GroupD0Ev
FN:3896,3896,_ZN3MAS5GroupD2Ev
FN:39,41,_ZN8nlohmann16json_abi_v3_11_314adl_serializerISt8optionalIN3MAS10TopologiesEEvE9from_jsonERKNS0_10basic_jsonISt3mapSt6vectorNSt7__cxx1112basic_stringIcSt11char_traitsIcESaIcEEEblmdSaS1_S9_IhSaIhEEvEE
FN:39,41,_ZN8nlohmann16json_abi_v3_11_314adl_serializerISt8optionalIN3MAS11ApplicationEEvE9from_jsonERKNS0_10basic_jsonISt3mapSt6vectorNSt7__cxx1112basic_stringIcSt11char_traitsIcESaIcEEEblmdSaS1_S9_IhSaIhEEvEE
FN:39,41,_ZN8nlohmann16json_abi_v3_11_314adl_serializerISt8optionalIN3MAS11ColumnShapeEEvE9from_jsonERKNS0_10basic_jsonISt3mapSt6vectorNSt7__cxx1112basic_stringIcSt11char_traitsIcESaIcEEEblmdSaS1_S9_IhSaIhEEvEE
FN:39,41,_ZN8nlohmann16json_abi_v3_11_314adl_serializerISt8optionalIN3MAS11LlcResonantEEvE9from_jsonERKNS0_10basic_jsonISt3mapSt6vectorNSt7__cxx1112basic_stringIcSt11char_traitsIcESaIcEEEblmdSaS1_S9_IhSaIhEEvEE
FN:39,41,_ZN8nlohmann16json_abi_v3_11_314adl_serializerISt8optionalIN3MAS11OhmicLossesEEvE9from_jsonERKNS0_10basic_jsonISt3mapSt6vectorNSt7__cxx1112basic_stringIcSt11char_traitsIcESaIcEEEblmdSaS1_S9_IhSaIhEEvEE
FN:39,41,_ZN8nlohmann16json_abi_v3_11_314adl_serializerISt8optionalIN3MAS11VoltageTypeEEvE9from_jsonERKNS0_10basic_jsonISt3mapSt6vectorNSt7__cxx1112basic_stringIcSt11char_traitsIcESaIcEEEblmdSaS1_S9_IhSaIhEEvEE
FN:39,41,_ZN8nlohmann16json_abi_v3_11_314adl_serializerISt8optionalIN3MAS12CllcResonantEEvE9from_jsonERKNS0_10basic_jsonISt3mapSt6vectorNSt7__cxx1112basic_stringIcSt11char_traitsIcESaIcEEEblmdSaS1_S9_IhSaIhEEvEE
FN:39,41,_ZN8nlohmann16json_abi_v3_11_314adl_serializerISt8optionalIN3MAS12FlybackModesEEvE9from_jsonERKNS0_10basic_jsonISt3mapSt6vectorNSt7__cxx1112basic_stringIcSt11char_traitsIcESaIcEEEblmdSaS1_S9_IhSaIhEEvEE
FN:39,41,_ZN8nlohmann16json_abi_v3_11_314adl_serializerISt8optionalIN3MAS12IsolatedBuckEEvE9from_jsonERKNS0_10basic_jsonISt3mapSt6vectorNSt7__cxx1112basic_stringIcSt11char_traitsIcESaIcEEEblmdSaS1_S9_IhSaIhEEvEE
FN:39,41,_ZN8nlohmann16json_abi_v3_11_314adl_serializerISt8optionalIN3MAS12WindingStyleEEvE9from_jsonERKNS0_10basic_jsonISt3mapSt6vectorNSt7__cxx1112basic_stringIcSt11char_traitsIcESaIcEEEblmdSaS1_S9_IhSaIhEEvEE
FN:39,41,_ZN8nlohmann16json_abi_v3_11_314adl_serializerISt8optionalIN3MAS12WireStandardEEvE9from_jsonERKNS0_10basic_jsonISt3mapSt6vectorNSt7__cxx1112basic_stringIcSt11char_traitsIcESaIcEEEblmdSaS1_S9_IhSaIhEEvEE
FN:39,41,_ZN8nlohmann16json_abi_v3_11_314adl_serializerISt8optionalIN3MAS13CoilAlignmentEEvE9from_jsonERKNS0_10basic_jsonISt3mapSt6vectorNSt7__cxx1112basic_stringIcSt11char_traitsIcESaIcEEEblmdSaS1_S9_IhSaIhEEvEE
FN:39,41,_ZN8nlohmann16json_abi_v3_11_314adl_serializerISt8optionalIN3MAS13LlcBridgeTypeEEvE9from_jsonERKNS0_10basic_jsonISt3mapSt6vectorNSt7__cxx1112basic_stringIcSt11char_traitsIcESaIcEEEblmdSaS1_S9_IhSaIhEEvEE
FN:39,41,_ZN8nlohmann16json_abi_v3_11_314adl_serializerISt8optionalIN3MAS13WaveformLabelEEvE9from_jsonERKNS0_10basic_jsonISt3mapSt6vectorNSt7__cxx1112basic_stringIcSt11char_traitsIcESaIcEEEblmdSaS1_S9_IhSaIhEEvEE
FN:39,41,_ZN8nlohmann16json_abi_v3_11_314adl_serializerISt8optionalIN3MAS14ConnectionTypeEEvE9from_jsonERKNS0_10basic_jsonISt3mapSt6vectorNSt7__cxx1112basic_stringIcSt11char_traitsIcESaIcEEEblmdSaS1_S9_IhSaIhEEvEE
FN:39,41,_ZN8nlohmann16json_abi_v3_11_314adl_serializerISt8optionalIN3MAS14InsulationTypeEEvE9from_jsonERKNS0_10basic_jsonISt3mapSt6vectorNSt7__cxx1112basic_stringIcSt11char_traitsIcESaIcEEEblmdSaS1_S9_IhSaIhEEvEE
FN:39,41,_ZN8nlohmann16json_abi_v3_11_314adl_serializerISt8optionalIN3MAS14ModulationTypeEEvE9from_jsonERKNS0_10basic_jsonISt3mapSt6vectorNSt7__cxx1112basic_stringIcSt11char_traitsIcESaIcEEEblmdSaS1_S9_IhSaIhEEvEE
FN:39,41,_ZN8nlohmann16json_abi_v3_11_314adl_serializerISt8optionalIN3MAS14OperatingPointEEvE9from_jsonERKNS0_10basic_jsonISt3mapSt6vectorNSt7__cxx1112basic_stringIcSt11char_traitsIcESaIcEEEblmdSaS1_S9_IhSaIhEEvEE
FN:39,41,_ZN8nlohmann16json_abi_v3_11_314adl_serializerISt8optionalIN3MAS14SubApplicationEEvE9from_jsonERKNS0_10basic_jsonISt3mapSt6vectorNSt7__cxx1112basic_stringIcSt11char_traitsIcESaIcEEEblmdSaS1_S9_IhSaIhEEvEE
FN:39,41,_ZN8nlohmann16json_abi_v3_11_314adl_serializerISt8optionalIN3MAS15FrequencyFactorEEvE9from_jsonERKNS0_10basic_jsonISt3mapSt6vectorNSt7__cxx1112basic_stringIcSt11char_traitsIcESaIcEEEblmdSaS1_S9_IhSaIhEEvEE
FN:39,41,_ZN8nlohmann16json_abi_v3_11_314adl_serializerISt8optionalIN3MAS15ImpedanceOutputEEvE9from_jsonERKNS0_10basic_jsonISt3mapSt6vectorNSt7__cxx1112basic_stringIcSt11char_traitsIcESaIcEEEblmdSaS1_S9_IhSaIhEEvEE
FN:39,41,_ZN8nlohmann16json_abi_v3_11_314adl_serializerISt8optionalIN3MAS15MagneticCircuitEEvE9from_jsonERKNS0_10basic_jsonISt3mapSt6vectorNSt7__cxx1112basic_stringIcSt11char_traitsIcESaIcEEEblmdSaS1_S9_IhSaIhEEvEE
FN:39,41,_ZN8nlohmann16json_abi_v3_11_314adl_serializerISt8optionalIN3MAS15PollutionDegreeEEvE9from_jsonERKNS0_10basic_jsonISt3mapSt6vectorNSt7__cxx1112basic_stringIcSt11char_traitsIcESaIcEEEblmdSaS1_S9_IhSaIhEEvEE
FN:39,41,_ZN8nlohmann16json_abi_v3_11_314adl_serializerISt8optionalIN3MAS15TurnOrientationEEvE9from_jsonERKNS0_10basic_jsonISt3mapSt6vectorNSt7__cxx1112basic_stringIcSt11char_traitsIcESaIcEEEblmdSaS1_S9_IhSaIhEEvEE
FN:39,41,_ZN8nlohmann16json_abi_v3_11_314adl_serializerISt8optionalIN3MAS16CoordinateSystemEEvE9from_jsonERKNS0_10basic_jsonISt3mapSt6vectorNSt7__cxx1112basic_stringIcSt11char_traitsIcESaIcEEEblmdSaS1_S9_IhSaIhEEvEE
FN:39,41,_ZN8nlohmann16json_abi_v3_11_314adl_serializerISt8optionalIN3MAS16CoreLossesOutputEEvE9from_jsonERKNS0_10basic_jsonISt3mapSt6vectorNSt7__cxx1112basic_stringIcSt11char_traitsIcESaIcEEEblmdSaS1_S9_IhSaIhEEvEE
FN:39,41,_ZN8nlohmann16json_abi_v3_11_314adl_serializerISt8optionalIN3MAS16DualActiveBridgeEEvE9from_jsonERKNS0_10basic_jsonISt3mapSt6vectorNSt7__cxx1112basic_stringIcSt11char_traitsIcESaIcEEEblmdSaS1_S9_IhSaIhEEvEE
FN:39,41,_ZN8nlohmann16json_abi_v3_11_314adl_serializerISt8optionalIN3MAS16InductanceOutputEEvE9from_jsonERKNS0_10basic_jsonISt3mapSt6vectorNSt7__cxx1112basic_stringIcSt11char_traitsIcESaIcEEEblmdSaS1_S9_IhSaIhEEvEE
FN:39,41,_ZN8nlohmann16json_abi_v3_11_314adl_serializerISt8optionalIN3MAS16ManufacturerInfoEEvE9from_jsonERKNS0_10basic_jsonISt3mapSt6vectorNSt7__cxx1112basic_stringIcSt11char_traitsIcESaIcEEEblmdSaS1_S9_IhSaIhEEvEE
FN:39,41,_ZN8nlohmann16json_abi_v3_11_314adl_serializerISt8optionalIN3MAS16SignalDescriptorEEvE9from_jsonERKNS0_10basic_jsonISt3mapSt6vectorNSt7__cxx1112basic_stringIcSt11char_traitsIcESaIcEEEblmdSaS1_S9_IhSaIhEEvEE
FN:39,41,_ZN8nlohmann16json_abi_v3_11_314adl_serializerISt8optionalIN3MAS16TemperaturePointEEvE9from_jsonERKNS0_10basic_jsonISt3mapSt6vectorNSt7__cxx1112basic_stringIcSt11char_traitsIcESaIcEEEblmdSaS1_S9_IhSaIhEEvEE
FN:39,41,_ZN8nlohmann16json_abi_v3_11_314adl_serializerISt8optionalIN3MAS16WiringTechnologyEEvE9from_jsonERKNS0_10basic_jsonISt3mapSt6vectorNSt7__cxx1112basic_stringIcSt11char_traitsIcESaIcEEEblmdSaS1_S9_IhSaIhEEvEE
FN:39,41,_ZN8nlohmann16json_abi_v3_11_314adl_serializerISt8optionalIN3MAS17IsolatedBuckBoostEEvE9from_jsonERKNS0_10basic_jsonISt3mapSt6vectorNSt7__cxx1112basic_stringIcSt11char_traitsIcESaIcEEEblmdSaS1_S9_IhSaIhEEvEE
FN:39,41,_ZN8nlohmann16json_abi_v3_11_314adl_serializerISt8optionalIN3MAS17MaximumDimensionsEEvE9from_jsonERKNS0_10basic_jsonISt3mapSt6vectorNSt7__cxx1112basic_stringIcSt11char_traitsIcESaIcEEEblmdSaS1_S9_IhSaIhEEvEE
FN:39,41,_ZN8nlohmann16json_abi_v3_11_314adl_serializerISt8optionalIN3MAS17PsfbRectifierTypeEEvE9from_jsonERKNS0_10basic_jsonISt3mapSt6vectorNSt7__cxx1112basic_stringIcSt11char_traitsIcESaIcEEEblmdSaS1_S9_IhSaIhEEvEE
FN:39,41,_ZN8nlohmann16json_abi_v3_11_314adl_serializerISt8optionalIN3MAS17TemperatureFactorEEvE9from_jsonERKNS0_10basic_jsonISt3mapSt6vectorNSt7__cxx1112basic_stringIcSt11char_traitsIcESaIcEEEblmdSaS1_S9_IhSaIhEEvEE
FN:39,41,_ZN8nlohmann16json_abi_v3_11_314adl_serializerISt8optionalIN3MAS17TemperatureOutputEEvE9from_jsonERKNS0_10basic_jsonISt3mapSt6vectorNSt7__cxx1112basic_stringIcSt11char_traitsIcESaIcEEEblmdSaS1_S9_IhSaIhEEvEE
FN:39,41,_ZN8nlohmann16json_abi_v3_11_314adl_serializerISt8optionalIN3MAS18CurrentTransformerEEvE9from_jsonERKNS0_10basic_jsonISt3mapSt6vectorNSt7__cxx1112basic_stringIcSt11char_traitsIcESaIcEEEblmdSaS1_S9_IhSaIhEEvEE
FN:39,41,_ZN8nlohmann16json_abi_v3_11_314adl_serializerISt8optionalIN3MAS18WindingLossElementEEvE9from_jsonERKNS0_10basic_jsonISt3mapSt6vectorNSt7__cxx1112basic_stringIcSt11char_traitsIcESaIcEEEblmdSaS1_S9_IhSaIhEEvEE
FN:39,41,_ZN8nlohmann16json_abi_v3_11_314adl_serializerISt8optionalIN3MAS18WindingOrientationEEvE9from_jsonERKNS0_10basic_jsonISt3mapSt6vectorNSt7__cxx1112basic_stringIcSt11char_traitsIcESaIcEEEblmdSaS1_S9_IhSaIhEEvEE
FN:39,41,_ZN8nlohmann16json_abi_v3_11_314adl_serializerISt8optionalIN3MAS18WindingWindowShapeEEvE9from_jsonERKNS0_10basic_jsonISt3mapSt6vectorNSt7__cxx1112basic_stringIcSt11char_traitsIcESaIcEEEblmdSaS1_S9_IhSaIhEEvEE
FN:39,41,_ZN8nlohmann16json_abi_v3_11_314adl_serializerISt8optionalIN3MAS19MaterialCompositionEEvE9from_jsonERKNS0_10basic_jsonISt3mapSt6vectorNSt7__cxx1112basic_stringIcSt11char_traitsIcESaIcEEEblmdSaS1_S9_IhSaIhEEvEE
FN:39,41,_ZN8nlohmann16json_abi_v3_11_314adl_serializerISt8optionalIN3MAS19OvervoltageCategoryEEvE9from_jsonERKNS0_10basic_jsonISt3mapSt6vectorNSt7__cxx1112basic_stringIcSt11char_traitsIcESaIcEEEblmdSaS1_S9_IhSaIhEEvEE
FN:39,41,_ZN8nlohmann16json_abi_v3_11_314adl_serializerISt8optionalIN3MAS19SupportedTopologiesEEvE9from_jsonERKNS0_10basic_jsonISt3mapSt6vectorNSt7__cxx1112basic_stringIcSt11char_traitsIcESaIcEEEblmdSaS1_S9_IhSaIhEEvEE
FN:39,41,_ZN8nlohmann16json_abi_v3_11_314adl_serializerISt8optionalIN3MAS19WindingLossesOutputEEvE9from_jsonERKNS0_10basic_jsonISt3mapSt6vectorNSt7__cxx1112basic_stringIcSt11char_traitsIcESaIcEEEblmdSaS1_S9_IhSaIhEEvEE
FN:39,41,_ZN8nlohmann16json_abi_v3_11_314adl_serializerISt8optionalIN3MAS20ConverterInformationEEvE9from_jsonERKNS0_10basic_jsonISt3mapSt6vectorNSt7__cxx1112basic_stringIcSt11char_traitsIcESaIcEEEblmdSaS1_S9_IhSaIhEEvEE
FN:39,41,_ZN8nlohmann16json_abi_v3_11_314adl_serializerISt8optionalIN3MAS20PhaseShiftFullBridgeEEvE9from_jsonERKNS0_10basic_jsonISt3mapSt6vectorNSt7__cxx1112basic_stringIcSt11char_traitsIcESaIcEEEblmdSaS1_S9_IhSaIhEEvEE
FN:39,41,_ZN8nlohmann16json_abi_v3_11_314adl_serializerISt8optionalIN3MAS22DimensionWithToleranceEEvE9from_jsonERKNS0_10basic_jsonISt3mapSt6vectorNSt7__cxx1112basic_stringIcSt11char_traitsIcESaIcEEEblmdSaS1_S9_IhSaIhEEvEE
FN:39,41,_ZN8nlohmann16json_abi_v3_11_314adl_serializerISt8optionalIN3MAS22InsulationRequirementsEEvE9from_jsonERKNS0_10basic_jsonISt3mapSt6vectorNSt7__cxx1112basic_stringIcSt11char_traitsIcESaIcEEEblmdSaS1_S9_IhSaIhEEvEE
FN:39,41,_ZN8nlohmann16json_abi_v3_11_314adl_serializerISt8optionalIN3MAS23ComplexPermeabilityDataEEvE9from_jsonERKNS0_10basic_jsonISt3mapSt6vectorNSt7__cxx1112basic_stringIcSt11char_traitsIcESaIcEEEblmdSaS1_S9_IhSaIhEEvEE
FN:39,41,_ZN8nlohmann16json_abi_v3_11_314adl_serializerISt8optionalIN3MAS23LeakageInductanceOutputEEvE9from_jsonERKNS0_10basic_jsonISt3mapSt6vectorNSt7__cxx1112basic_stringIcSt11char_traitsIcESaIcEEEblmdSaS1_S9_IhSaIhEEvEE
FN:39,41,_ZN8nlohmann16json_abi_v3_11_314adl_serializerISt8optionalIN3MAS23TurnCrossSectionalShapeEEvE9from_jsonERKNS0_10basic_jsonISt3mapSt6vectorNSt7__cxx1112basic_stringIcSt11char_traitsIcESaIcEEEblmdSaS1_S9_IhSaIhEEvEE
FN:39,41,_ZN8nlohmann16json_abi_v3_11_314adl_serializerISt8optionalIN3MAS24CoreProcessedDescriptionEEvE9from_jsonERKNS0_10basic_jsonISt3mapSt6vectorNSt7__cxx1112basic_stringIcSt11char_traitsIcESaIcEEEblmdSaS1_S9_IhSaIhEEvEE
FN:39,41,_ZN8nlohmann16json_abi_v3_11_314adl_serializerISt8optionalIN3MAS24MagneticManufacturerInfoEEvE9from_jsonERKNS0_10basic_jsonISt3mapSt6vectorNSt7__cxx1112basic_stringIcSt11char_traitsIcESaIcEEEblmdSaS1_S9_IhSaIhEEvEE
FN:39,41,_ZN8nlohmann16json_abi_v3_11_314adl_serializerISt8optionalIN3MAS25InsulationWireCoatingTypeEEvE9from_jsonERKNS0_10basic_jsonISt3mapSt6vectorNSt7__cxx1112basic_stringIcSt11char_traitsIcESaIcEEEblmdSaS1_S9_IhSaIhEEvEE
FN:39,41,_ZN8nlohmann16json_abi_v3_11_314adl_serializerISt8optionalIN3MAS25MagneticFieldDcBiasFactorEEvE9from_jsonERKNS0_10basic_jsonISt3mapSt6vectorNSt7__cxx1112basic_stringIcSt11char_traitsIcESaIcEEEblmdSaS1_S9_IhSaIhEEvEE
FN:39,41,_ZN8nlohmann16json_abi_v3_11_314adl_serializerISt8optionalIN3MAS25MagneticFluxDensityFactorEEvE9from_jsonERKNS0_10basic_jsonISt3mapSt6vectorNSt7__cxx1112basic_stringIcSt11char_traitsIcESaIcEEEblmdSaS1_S9_IhSaIhEEvEE
FN:39,41,_ZN8nlohmann16json_abi_v3_11_314adl_serializerISt8optionalIN3MAS27BobbinFunctionalDescriptionEEvE9from_jsonERKNS0_10basic_jsonISt3mapSt6vectorNSt7__cxx1112basic_stringIcSt11char_traitsIcESaIcEEEblmdSaS1_S9_IhSaIhEEvEE
FN:39,41,_ZN8nlohmann16json_abi_v3_11_314adl_serializerISt8optionalIN3MAS27CoreMaterialRecommendationsEEvE9from_jsonERKNS0_10basic_jsonISt3mapSt6vectorNSt7__cxx1112basic_stringIcSt11char_traitsIcESaIcEEEblmdSaS1_S9_IhSaIhEEvEE
FN:39,41,_ZN8nlohmann16json_abi_v3_11_314adl_serializerISt8optionalIN3MAS28InsulationCoordinationOutputEEvE9from_jsonERKNS0_10basic_jsonISt3mapSt6vectorNSt7__cxx1112basic_stringIcSt11char_traitsIcESaIcEEEblmdSaS1_S9_IhSaIhEEvEE
FN:39,41,_ZN8nlohmann16json_abi_v3_11_314adl_serializerISt8optionalIN3MAS28RoshenAdditionalCoefficientsEEvE9from_jsonERKNS0_10basic_jsonISt3mapSt6vectorNSt7__cxx1112basic_stringIcSt11char_traitsIcESaIcEEEblmdSaS1_S9_IhSaIhEEvEE
FN:39,41,_ZN8nlohmann16json_abi_v3_11_314adl_serializerISt8optionalIN3MAS30CoreBobbinProcessedDescriptionEEvE9from_jsonERKNS0_10basic_jsonISt3mapSt6vectorNSt7__cxx1112basic_stringIcSt11char_traitsIcESaIcEEEblmdSaS1_S9_IhSaIhEEvEE
FN:39,41,_ZN8nlohmann16json_abi_v3_11_314adl_serializerISt8optionalIN3MAS31WindingWindowCurrentFieldOutputEEvE9from_jsonERKNS0_10basic_jsonISt3mapSt6vectorNSt7__cxx1112basic_stringIcSt11char_traitsIcESaIcEEEblmdSaS1_S9_IhSaIhEEvEE
FN:39,41,_ZN8nlohmann16json_abi_v3_11_314adl_serializerISt8optionalIN3MAS32InitialPermeabilitModifierMethodEEvE9from_jsonERKNS0_10basic_jsonISt3mapSt6vectorNSt7__cxx1112basic_stringIcSt11char_traitsIcESaIcEEEblmdSaS1_S9_IhSaIhEEvEE
FN:39,41,_ZN8nlohmann16json_abi_v3_11_314adl_serializerISt8optionalIN3MAS35MagneticManufacturerRecommendationsEEvE9from_jsonERKNS0_10basic_jsonISt3mapSt6vectorNSt7__cxx1112basic_stringIcSt11char_traitsIcESaIcEEEblmdSaS1_S9_IhSaIhEEvEE
FN:39,41,_ZN8nlohmann16json_abi_v3_11_314adl_serializerISt8optionalIN3MAS38WindingWindowCurrentDensityFieldOutputEEvE9from_jsonERKNS0_10basic_jsonISt3mapSt6vectorNSt7__cxx1112basic_stringIcSt11char_traitsIcESaIcEEEblmdSaS1_S9_IhSaIhEEvEE
FN:39,41,_ZN8nlohmann16json_abi_v3_11_314adl_serializerISt8optionalIN3MAS3CtiEEvE9from_jsonERKNS0_10basic_jsonISt3mapSt6vectorNSt7__cxx1112basic_stringIcSt11char_traitsIcESaIcEEEblmdSaS1_S9_IhSaIhEEvEE
FN:39,41,_ZN8nlohmann16json_abi_v3_11_314adl_serializerISt8optionalIN3MAS40WindingWindowMagneticStrengthFieldOutputEEvE9from_jsonERKNS0_10basic_jsonISt3mapSt6vectorNSt7__cxx1112basic_stringIcSt11char_traitsIcESaIcEEEblmdSaS1_S9_IhSaIhEEvEE
FN:39,41,_ZN8nlohmann16json_abi_v3_11_314adl_serializerISt8optionalIN3MAS4BuckEEvE9from_jsonERKNS0_10basic_jsonISt3mapSt6vectorNSt7__cxx1112basic_stringIcSt11char_traitsIcESaIcEEEblmdSaS1_S9_IhSaIhEEvEE
FN:39,41,_ZN8nlohmann16json_abi_v3_11_314adl_serializerISt8optionalIN3MAS5BoostEEvE9from_jsonERKNS0_10basic_jsonISt3mapSt6vectorNSt7__cxx1112basic_stringIcSt11char_traitsIcESaIcEEEblmdSaS1_S9_IhSaIhEEvEE
FN:39,41,_ZN8nlohmann16json_abi_v3_11_314adl_serializerISt8optionalIN3MAS6MarketEEvE9from_jsonERKNS0_10basic_jsonISt3mapSt6vectorNSt7__cxx1112basic_stringIcSt11char_traitsIcESaIcEEEblmdSaS1_S9_IhSaIhEEvEE
FN:39,41,_ZN8nlohmann16json_abi_v3_11_314adl_serializerISt8optionalIN3MAS6PinoutEEvE9from_jsonERKNS0_10basic_jsonISt3mapSt6vectorNSt7__cxx1112basic_stringIcSt11char_traitsIcESaIcEEEblmdSaS1_S9_IhSaIhEEvEE
FN:39,41,_ZN8nlohmann16json_abi_v3_11_314adl_serializerISt8optionalIN3MAS6StatusEEvE9from_jsonERKNS0_10basic_jsonISt3mapSt6vectorNSt7__cxx1112basic_stringIcSt11char_traitsIcESaIcEEEblmdSaS1_S9_IhSaIhEEvEE
FN:39,41,_ZN8nlohmann16json_abi_v3_11_314adl_serializerISt8optionalIN3MAS7CoatingEEvE9from_jsonERKNS0_10basic_jsonISt3mapSt6vectorNSt7__cxx1112basic_stringIcSt11char_traitsIcESaIcEEEblmdSaS1_S9_IhSaIhEEvEE
FN:39,41,_ZN8nlohmann16json_abi_v3_11_314adl_serializerISt8optionalIN3MAS7CoolingEEvE9from_jsonERKNS0_10basic_jsonISt3mapSt6vectorNSt7__cxx1112basic_stringIcSt11char_traitsIcESaIcEEEblmdSaS1_S9_IhSaIhEEvEE
FN:39,41,_ZN8nlohmann16json_abi_v3_11_314adl_serializerISt8optionalIN3MAS7FlybackEEvE9from_jsonERKNS0_10basic_jsonISt3mapSt6vectorNSt7__cxx1112basic_stringIcSt11char_traitsIcESaIcEEEblmdSaS1_S9_IhSaIhEEvEE
FN:39,41,_ZN8nlohmann16json_abi_v3_11_314adl_serializerISt8optionalIN3MAS7ForwardEEvE9from_jsonERKNS0_10basic_jsonISt3mapSt6vectorNSt7__cxx1112basic_stringIcSt11char_traitsIcESaIcEEEblmdSaS1_S9_IhSaIhEEvEE
FN:39,41,_ZN8nlohmann16json_abi_v3_11_314adl_serializerISt8optionalIN3MAS8PushPullEEvE9from_jsonERKNS0_10basic_jsonISt3mapSt6vectorNSt7__cxx1112basic_stringIcSt11char_traitsIcESaIcEEEblmdSaS1_S9_IhSaIhEEvEE
FN:39,41,_ZN8nlohmann16json_abi_v3_11_314adl_serializerISt8optionalIN3MAS8WaveformEEvE9from_jsonERKNS0_10basic_jsonISt3mapSt6vectorNSt7__cxx1112basic_stringIcSt11char_traitsIcESaIcEEEblmdSaS1_S9_IhSaIhEEvEE
FN:39,41,_ZN8nlohmann16json_abi_v3_11_314adl_serializerISt8optionalIN3MAS9DirectionEEvE9from_jsonERKNS0_10basic_jsonISt3mapSt6vectorNSt7__cxx1112basic_stringIcSt11char_traitsIcESaIcEEEblmdSaS1_S9_IhSaIhEEvEE
FN:39,41,_ZN8nlohmann16json_abi_v3_11_314adl_serializerISt8optionalIN3MAS9HarmonicsEEvE9from_jsonERKNS0_10basic_jsonISt3mapSt6vectorNSt7__cxx1112basic_stringIcSt11char_traitsIcESaIcEEEblmdSaS1_S9_IhSaIhEEvEE
FN:39,41,_ZN8nlohmann16json_abi_v3_11_314adl_serializerISt8optionalIN3MAS9ProcessedEEvE9from_jsonERKNS0_10basic_jsonISt3mapSt6vectorNSt7__cxx1112basic_stringIcSt11char_traitsIcESaIcEEEblmdSaS1_S9_IhSaIhEEvEE
FN:39,41,_ZN8nlohmann16json_abi_v3_11_314adl_serializerISt8optionalINSt7__cxx1112basic_stringIcSt11char_traitsIcESaIcEEEEvE9from_jsonERKNS0_10basic_jsonISt3mapSt6vectorS8_blmdSaS1_SD_IhSaIhEEvEE
FN:39,41,_ZN8nlohmann16json_abi_v3_11_314adl_serializerISt8optionalISt3mapINSt7__cxx1112basic_stringIcSt11char_traitsIcESaIcEEEN3MAS26InitialPermeabilitModifierESt4lessIS9_ESaISt4pairIKS9_SB_EEEEvE9from_jsonERKNS0_10basic_jsonIS3_St6vectorS9_blmdSaS1_SM_IhSaIhEEvEE
FN:39,41,_ZN8nlohmann16json_abi_v3_11_314adl_serializerISt8optionalISt3mapINSt7__cxx1112basic_stringIcSt11char_traitsIcESaIcEEES3_IS9_N3MAS23ScalarMatrixAtFrequencyESt4lessIS9_ESaISt4pairIKS9_SB_EEESD_SaISE_ISF_SI_EEEEvE9from_jsonERKNS0_10basic_jsonIS3_St6vectorS9_blmdSaS1_SP_IhSaIhEEvEE
FN:39,41,_ZN8nlohmann16json_abi_v3_11_314adl_serializerISt8optionalISt3mapINSt7__cxx1112basic_stringIcSt11char_traitsIcESaIcEEES3_IS9_N3MAS28TripoleCapacitancePerWindingESt4lessIS9_ESaISt4pairIKS9_SB_EEESD_SaISE_ISF_SI_EEEEvE9from_jsonERKNS0_10basic_jsonIS3_St6vectorS9_blmdSaS1_SP_IhSaIhEEvEE
FN:39,41,_ZN8nlohmann16json_abi_v3_11_314adl_serializerISt8optionalISt3mapINSt7__cxx1112basic_stringIcSt11char_traitsIcESaIcEEES3_IS9_N3MAS29SixCapacitorNetworkPerWindingESt4lessIS9_ESaISt4pairIKS9_SB_EEESD_SaISE_ISF_SI_EEEEvE9from_jsonERKNS0_10basic_jsonIS3_St6vectorS9_blmdSaS1_SP_IhSaIhEEvEE
FN:39,41,_ZN8nlohmann16json_abi_v3_11_314adl_serializerISt8optionalISt3mapINSt7__cxx1112basic_stringIcSt11char_traitsIcESaIcEEES3_IS9_dSt4lessIS9_ESaISt4pairIKS9_dEEESB_SaISC_ISD_SG_EEEEvE9from_jsonERKNS0_10basic_jsonIS3_St6vectorS9_blmdSaS1_SN_IhSaIhEEvEE
FN:39,41,_ZN8nlohmann16json_abi_v3_11_314adl_serializerISt8optionalISt3mapINSt7__cxx1112basic_stringIcSt11char_traitsIcESaIcEEESt6vectorISt7variantIJSA_IN3MAS15MassLossesPointESaISD_EENSC_28MagnetecCoreLossesMethodDataEEESaISH_EESt4lessIS9_ESaISt4pairIKS9_SJ_EEEEvE9from_jsonERKNS0_10basic_jsonIS3_SA_S9_blmdSaS1_SA_IhSaIhEEvEE
FN:39,41,_ZN8nlohmann16json_abi_v3_11_314adl_serializerISt8optionalISt3mapINSt7__cxx1112basic_stringIcSt11char_traitsIcESaIcEEESt7variantIJN3MAS22DimensionWithToleranceEdEESt4lessIS9_ESaISt4pairIKS9_SD_EEEEvE9from_jsonERKNS0_10basic_jsonIS3_St6vectorS9_blmdSaS1_SO_IhSaIhEEvEE
FN:39,41,_ZN8nlohmann16json_abi_v3_11_314adl_serializerISt8optionalISt6vectorIN3MAS13IsolationSideESaIS5_EEEvE9from_jsonERKNS0_10basic_jsonISt3mapS3_NSt7__cxx1112basic_stringIcSt11char_traitsIcESaIcEEEblmdSaS1_S3_IhSaIhEEvEE
FN:39,41,_ZN8nlohmann16json_abi_v3_11_314adl_serializerISt8optionalISt6vectorIN3MAS14BhCycleElementESaIS5_EEEvE9from_jsonERKNS0_10basic_jsonISt3mapS3_NSt7__cxx1112basic_stringIcSt11char_traitsIcESaIcEEEblmdSaS1_S3_IhSaIhEEvEE
FN:39,41,_ZN8nlohmann16json_abi_v3_11_314adl_serializerISt8optionalISt6vectorIN3MAS14ConnectionTypeESaIS5_EEEvE9from_jsonERKNS0_10basic_jsonISt3mapS3_NSt7__cxx1112basic_stringIcSt11char_traitsIcESaIcEEEblmdSaS1_S3_IhSaIhEEvEE
FN:39,41,_ZN8nlohmann16json_abi_v3_11_314adl_serializerISt8optionalISt6vectorIN3MAS15DistributorInfoESaIS5_EEEvE9from_jsonERKNS0_10basic_jsonISt3mapS3_NSt7__cxx1112basic_stringIcSt11char_traitsIcESaIcEEEblmdSaS1_S3_IhSaIhEEvEE
FN:39,41,_ZN8nlohmann16json_abi_v3_11_314adl_serializerISt8optionalISt6vectorIN3MAS15LossFactorPointESaIS5_EEEvE9from_jsonERKNS0_10basic_jsonISt3mapS3_NSt7__cxx1112basic_stringIcSt11char_traitsIcESaIcEEEblmdSaS1_S3_IhSaIhEEvEE
FN:39,41,_ZN8nlohmann16json_abi_v3_11_314adl_serializerISt8optionalISt6vectorIN3MAS16ResistivityPointESaIS5_EEEvE9from_jsonERKNS0_10basic_jsonISt3mapS3_NSt7__cxx1112basic_stringIcSt11char_traitsIcESaIcEEEblmdSaS1_S3_IhSaIhEEvEE
FN:39,41,_ZN8nlohmann16json_abi_v3_11_314adl_serializerISt8optionalISt6vectorIN3MAS17ConnectionElementESaIS5_EEEvE9from_jsonERKNS0_10basic_jsonISt3mapS3_NSt7__cxx1112basic_stringIcSt11char_traitsIcESaIcEEEblmdSaS1_S3_IhSaIhEEvEE
FN:39,41,_ZN8nlohmann16json_abi_v3_11_314adl_serializerISt8optionalISt6vectorIN3MAS17DielectricVoltageESaIS5_EEEvE9from_jsonERKNS0_10basic_jsonISt3mapS3_NSt7__cxx1112basic_stringIcSt11char_traitsIcESaIcEEEblmdSaS1_S3_IhSaIhEEvEE
FN:39,41,_ZN8nlohmann16json_abi_v3_11_314adl_serializerISt8optionalISt6vectorIN3MAS19InsulationStandardsESaIS5_EEEvE9from_jsonERKNS0_10basic_jsonISt3mapS3_NSt7__cxx1112basic_stringIcSt11char_traitsIcESaIcEEEblmdSaS1_S3_IhSaIhEEvEE
FN:39,41,_ZN8nlohmann16json_abi_v3_11_314adl_serializerISt8optionalISt6vectorIN3MAS20ImpedanceAtFrequencyESaIS5_EEEvE9from_jsonERKNS0_10basic_jsonISt3mapS3_NSt7__cxx1112basic_stringIcSt11char_traitsIcESaIcEEEblmdSaS1_S3_IhSaIhEEvEE
FN:39,41,_ZN8nlohmann16json_abi_v3_11_314adl_serializerISt8optionalISt6vectorIN3MAS20PinWindingConnectionESaIS5_EEEvE9from_jsonERKNS0_10basic_jsonISt3mapS3_NSt7__cxx1112basic_stringIcSt11char_traitsIcESaIcEEEblmdSaS1_S3_IhSaIhEEvEE
FN:39,41,_ZN8nlohmann16json_abi_v3_11_314adl_serializerISt8optionalISt6vectorIN3MAS21VolumetricLossesPointESaIS5_EEEvE9from_jsonERKNS0_10basic_jsonISt3mapS3_NSt7__cxx1112basic_stringIcSt11char_traitsIcESaIcEEEblmdSaS1_S3_IhSaIhEEvEE
FN:39,41,_ZN8nlohmann16json_abi_v3_11_314adl_serializerISt8optionalISt6vectorIN3MAS22AirGapReluctanceOutputESaIS5_EEEvE9from_jsonERKNS0_10basic_jsonISt3mapS3_NSt7__cxx1112basic_stringIcSt11char_traitsIcESaIcEEEblmdSaS1_S3_IhSaIhEEvEE
FN:39,41,_ZN8nlohmann16json_abi_v3_11_314adl_serializerISt8optionalISt6vectorIN3MAS22DimensionWithToleranceESaIS5_EEEvE9from_jsonERKNS0_10basic_jsonISt3mapS3_NSt7__cxx1112basic_stringIcSt11char_traitsIcESaIcEEEblmdSaS1_S3_IhSaIhEEvEE
FN:39,41,_ZN8nlohmann16json_abi_v3_11_314adl_serializerISt8optionalISt6vectorIN3MAS22StrayCapacitanceOutputESaIS5_EEEvE9from_jsonERKNS0_10basic_jsonISt3mapS3_NSt7__cxx1112basic_stringIcSt11char_traitsIcESaIcEEEblmdSaS1_S3_IhSaIhEEvEE
FN:39,41,_ZN8nlohmann16json_abi_v3_11_314adl_serializerISt8optionalISt6vectorIN3MAS23ScalarMatrixAtFrequencyESaIS5_EEEvE9from_jsonERKNS0_10basic_jsonISt3mapS3_NSt7__cxx1112basic_stringIcSt11char_traitsIcESaIcEEEblmdSaS1_S3_IhSaIhEEvEE
FN:39,41,_ZN8nlohmann16json_abi_v3_11_314adl_serializerISt8optionalISt6vectorIN3MAS23WindingLossesPerElementESaIS5_EEEvE9from_jsonERKNS0_10basic_jsonISt3mapS3_NSt7__cxx1112basic_stringIcSt11char_traitsIcESaIcEEEblmdSaS1_S3_IhSaIhEEvEE
FN:39,41,_ZN8nlohmann16json_abi_v3_11_314adl_serializerISt8optionalISt6vectorIN3MAS24ComplexMatrixAtFrequencyESaIS5_EEEvE9from_jsonERKNS0_10basic_jsonISt3mapS3_NSt7__cxx1112basic_stringIcSt11char_traitsIcESaIcEEEblmdSaS1_S3_IhSaIhEEvEE
FN:39,41,_ZN8nlohmann16json_abi_v3_11_314adl_serializerISt8optionalISt6vectorIN3MAS26ThermalConductivityElementESaIS5_EEEvE9from_jsonERKNS0_10basic_jsonISt3mapS3_NSt7__cxx1112basic_stringIcSt11char_traitsIcESaIcEEEblmdSaS1_S3_IhSaIhEEvEE
FN:39,41,_ZN8nlohmann16json_abi_v3_11_314adl_serializerISt8optionalISt6vectorIN3MAS33CoreGeometricalDescriptionElementESaIS5_EEEvE9from_jsonERKNS0_10basic_jsonISt3mapS3_NSt7__cxx1112basic_stringIcSt11char_traitsIcESaIcEEEblmdSaS1_S3_IhSaIhEEvEE
FN:39,41,_ZN8nlohmann16json_abi_v3_11_314adl_serializerISt8optionalISt6vectorIN3MAS35SteinmetzCoreLossesMethodRangeDatumESaIS5_EEEvE9from_jsonERKNS0_10basic_jsonISt3mapS3_NSt7__cxx1112basic_stringIcSt11char_traitsIcESaIcEEEblmdSaS1_S3_IhSaIhEEvEE
FN:39,41,_ZN8nlohmann16json_abi_v3_11_314adl_serializerISt8optionalISt6vectorIN3MAS3PinESaIS5_EEEvE9from_jsonERKNS0_10basic_jsonISt3mapS3_NSt7__cxx1112basic_stringIcSt11char_traitsIcESaIcEEEblmdSaS1_S3_IhSaIhEEvEE
FN:39,41,_ZN8nlohmann16json_abi_v3_11_314adl_serializerISt8optionalISt6vectorIN3MAS4TurnESaIS5_EEEvE9from_jsonERKNS0_10basic_jsonISt3mapS3_NSt7__cxx1112basic_stringIcSt11char_traitsIcESaIcEEEblmdSaS1_S3_IhSaIhEEvEE
FN:39,41,_ZN8nlohmann16json_abi_v3_11_314adl_serializerISt8optionalISt6vectorIN3MAS5GroupESaIS5_EEEvE9from_jsonERKNS0_10basic_jsonISt3mapS3_NSt7__cxx1112basic_stringIcSt11char_traitsIcESaIcEEEblmdSaS1_S3_IhSaIhEEvEE
FN:39,41,_ZN8nlohmann16json_abi_v3_11_314adl_serializerISt8optionalISt6vectorIN3MAS5LayerESaIS5_EEEvE9from_jsonERKNS0_10basic_jsonISt3mapS3_NSt7__cxx1112basic_stringIcSt11char_traitsIcESaIcEEEblmdSaS1_S3_IhSaIhEEvEE
FN:39,41,_ZN8nlohmann16json_abi_v3_11_314adl_serializerISt8optionalISt6vectorIN3MAS7SectionESaIS5_EEEvE9from_jsonERKNS0_10basic_jsonISt3mapS3_NSt7__cxx1112basic_stringIcSt11char_traitsIcESaIcEEEblmdSaS1_S3_IhSaIhEEvEE
FN:39,41,_ZN8nlohmann16json_abi_v3_11_314adl_serializerISt8optionalISt6vectorIN3MAS9MachiningESaIS5_EEEvE9from_jsonERKNS0_10basic_jsonISt3mapS3_NSt7__cxx1112basic_stringIcSt11char_traitsIcESaIcEEEblmdSaS1_S3_IhSaIhEEvEE
FN:39,41,_ZN8nlohmann16json_abi_v3_11_314adl_serializerISt8optionalISt6vectorINSt7__cxx1112basic_stringIcSt11char_traitsIcESaIcEEESaIS9_EEEvE9from_jsonERKNS0_10basic_jsonISt3mapS3_S9_blmdSaS1_S3_IhSaIhEEvEE
FN:39,41,_ZN8nlohmann16json_abi_v3_11_314adl_serializerISt8optionalISt6vectorIS3_IdSaIdEESaIS5_EEEvE9from_jsonERKNS0_10basic_jsonISt3mapS3_NSt7__cxx1112basic_stringIcSt11char_traitsIcESaIcEEEblmdSaS1_S3_IhSaIhEEvEE
FN:39,41,_ZN8nlohmann16json_abi_v3_11_314adl_serializerISt8optionalISt6vectorIdSaIdEEEvE9from_jsonERKNS0_10basic_jsonISt3mapS3_NSt7__cxx1112basic_stringIcSt11char_traitsIcESaIcEEEblmdSaS1_S3_IhSaIhEEvEE
FN:39,41,_ZN8nlohmann16json_abi_v3_11_314adl_serializerISt8optionalISt6vectorIlSaIlEEEvE9from_jsonERKNS0_10basic_jsonISt3mapS3_NSt7__cxx1112basic_stringIcSt11char_traitsIcESaIcEEEblmdSaS1_S3_IhSaIhEEvEE
FN:39,41,_ZN8nlohmann16json_abi_v3_11_314adl_serializerISt8optionalISt7variantIJN3MAS12CoreMaterialENSt7__cxx1112basic_stringIcSt11char_traitsIcESaIcEEEEEEvE9from_jsonERKNS0_10basic_jsonISt3mapSt6vectorSB_blmdSaS1_SH_IhSaIhEEvEE
FN:39,41,_ZN8nlohmann16json_abi_v3_11_314adl_serializerISt8optionalISt7variantIJN3MAS12WireMaterialENSt7__cxx1112basic_stringIcSt11char_traitsIcESaIcEEEEEEvE9from_jsonERKNS0_10basic_jsonISt3mapSt6vectorSB_blmdSaS1_SH_IhSaIhEEvEE
FN:39,41,_ZN8nlohmann16json_abi_v3_11_314adl_serializerISt8optionalISt7variantIJN3MAS18InsulationMaterialENSt7__cxx1112basic_stringIcSt11char_traitsIcESaIcEEEEEEvE9from_jsonERKNS0_10basic_jsonISt3mapSt6vectorSB_blmdSaS1_SH_IhSaIhEEvEE
FN:39,41,_ZN8nlohmann16json_abi_v3_11_314adl_serializerISt8optionalISt7variantIJN3MAS21InsulationWireCoatingENSt7__cxx1112basic_stringIcSt11char_traitsIcESaIcEEEEEEvE9from_jsonERKNS0_10basic_jsonISt3mapSt6vectorSB_blmdSaS1_SH_IhSaIhEEvEE
FN:39,41,_ZN8nlohmann16json_abi_v3_11_314adl_serializerISt8optionalISt7variantIJN3MAS9CoreShapeENSt7__cxx1112basic_stringIcSt11char_traitsIcESaIcEEEEEEvE9from_jsonERKNS0_10basic_jsonISt3mapSt6vectorSB_blmdSaS1_SH_IhSaIhEEvEE
FN:39,41,_ZN8nlohmann16json_abi_v3_11_314adl_serializerISt8optionalISt7variantIJN3MAS9WireRoundENSt7__cxx1112basic_stringIcSt11char_traitsIcESaIcEEEEEEvE9from_jsonERKNS0_10basic_jsonISt3mapSt6vectorSB_blmdSaS1_SH_IhSaIhEEvEE
FN:39,41,_ZN8nlohmann16json_abi_v3_11_314adl_serializerISt8optionalISt7variantIJSt6vectorIN3MAS17PermeabilityPointESaIS6_EES6_EEEvE9from_jsonERKNS0_10basic_jsonISt3mapS4_NSt7__cxx1112basic_stringIcSt11char_traitsIcESaIcEEEblmdSaS1_S4_IhSaIhEEvEE
FN:39,41,_ZN8nlohmann16json_abi_v3_11_314adl_serializerISt8optionalISt7variantIJSt6vectorIdSaIdEEN3MAS10MarginInfoEEEEvE9from_jsonERKNS0_10basic_jsonISt3mapS4_NSt7__cxx1112basic_stringIcSt11char_traitsIcESaIcEEEblmdSaS1_S4_IhSaIhEEvEE
FN:39,41,_ZN8nlohmann16json_abi_v3_11_314adl_serializerISt8optionalIbEvE9from_jsonERKNS0_10basic_jsonISt3mapSt6vectorNSt7__cxx1112basic_stringIcSt11char_traitsIcESaIcEEEblmdSaS1_S7_IhSaIhEEvEE
FN:39,41,_ZN8nlohmann16json_abi_v3_11_314adl_serializerISt8optionalIdEvE9from_jsonERKNS0_10basic_jsonISt3mapSt6vectorNSt7__cxx1112basic_stringIcSt11char_traitsIcESaIcEEEblmdSaS1_S7_IhSaIhEEvEE
FN:39,41,_ZN8nlohmann16json_abi_v3_11_314adl_serializerISt8optionalIlEvE9from_jsonERKNS0_10basic_jsonISt3mapSt6vectorNSt7__cxx1112basic_stringIcSt11char_traitsIcESaIcEEEblmdSaS1_S7_IhSaIhEEvEE
FN:390,390,_ZN3MAS5Boost24set_current_ripple_ratioESt8optionalIdE
FN:3911,3911,_ZNK3MAS5Group15get_coordinatesEv
FN:3913,3913,_ZN3MAS5Group15set_coordinatesERKSt6vectorIdSaIdEE
FN:3918,3918,_ZNK3MAS5Group21get_coordinate_systemEv
FN:3919,3919,_ZN3MAS5Group21set_coordinate_systemESt8optionalINS_16CoordinateSystemEE
FN:3924,3924,_ZNK3MAS5Group14get_dimensionsEv
FN:3926,3926,_ZN3MAS5Group14set_dimensionsERKSt6vectorIdSaIdEE
FN:3931,3931,_ZNK3MAS5Group8get_nameB5cxx11Ev
FN:3933,3933,_ZN3MAS5Group8set_nameERKNSt7__cxx1112basic_stringIcSt11char_traitsIcESaIcEEE
FN:3938,3938,_ZNK3MAS5Group20get_partial_windingsEv
FN:3940,3940,_ZN3MAS5Group20set_partial_windingsERKSt6vectorINS_14PartialWindingESaIS2_EE
FN:3945,3945,_ZNK3MAS5Group24get_sections_orientationEv
FN:3947,3947,_ZN3MAS5Group24set_sections_orientationERKNS_18WindingOrientationE
FN:395,395,_ZNK3MAS5Boost22get_diode_voltage_dropEv
FN:3952,3952,_ZNK3MAS5Group8get_typeEv
FN:3954,3954,_ZN3MAS5Group8set_typeERKNS_16WiringTechnologyE
FN:397,397,_ZN3MAS5Boost22set_diode_voltage_dropERKd
FN:3974,3976,_ZN3MAS5LayerC2Ev
FN:3977,3977,_ZN3MAS5LayerD0Ev
FN:3977,3977,_ZN3MAS5LayerD2Ev
FN:4000,4000,_ZNK3MAS5Layer26get_additional_coordinatesEv
FN:4001,4001,_ZN3MAS5Layer26set_additional_coordinatesESt8optionalISt6vectorIS2_IdSaIdEESaIS4_EEE
FN:4006,4006,_ZNK3MAS5Layer15get_coordinatesEv
FN:4008,4008,_ZN3MAS5Layer15set_coordinatesERKSt6vectorIdSaIdEE
FN:4013,4013,_ZNK3MAS5Layer21get_coordinate_systemEv
FN:4014,4014,_ZN3MAS5Layer21set_coordinate_systemESt8optionalINS_16CoordinateSystemEE
FN:4019,4019,_ZNK3MAS5Layer14get_dimensionsEv
FN:402,402,_ZNK3MAS5Boost14get_efficiencyEv
FN:4021,4021,_ZN3MAS5Layer14set_dimensionsERKSt6vectorIdSaIdEE
FN:4026,4026,_ZNK3MAS5Layer18get_filling_factorEv
FN:4027,4027,_ZN3MAS5Layer18set_filling_factorESt8optionalIdE
FN:403,403,_ZN3MAS5Boost14set_efficiencyESt8optionalIdE
FN:4032,4032,_ZNK3MAS5Layer23get_insulation_materialB5cxx11Ev
FN:4033,4033,_ZN3MAS5Layer23set_insulation_materialESt8optionalISt7variantIJNS_18InsulationMaterialENSt7__cxx1112basic_stringIcSt11char_traitsIcESaIcEEEEEE
FN:4038,4038,_ZNK3MAS5Layer8get_nameB5cxx11Ev
FN:4040,4040,_ZN3MAS5Layer8set_nameERKNSt7__cxx1112basic_stringIcSt11char_traitsIcESaIcEEE
FN:4045,4045,_ZNK3MAS5Layer15get_orientationEv
FN:4047,4047,_ZN3MAS5Layer15set_orientationERKNS_18WindingOrientationE
FN:4052,4052,_ZNK3MAS5Layer20get_partial_windingsEv
FN:4054,4054,_ZN3MAS5Layer20set_partial_windingsERKSt6vectorINS_14PartialWindingESaIS2_EE
FN:4059,4059,_ZNK3MAS5Layer11get_sectionB5cxx11Ev
FN:4060,4060,_ZN3MAS5Layer11set_sectionESt8optionalINSt7__cxx1112basic_stringIcSt11char_traitsIcESaIcEEEE
FN:4065,4065,_ZNK3MAS5Layer19get_turns_alignmentEv
FN:4066,4066,_ZN3MAS5Layer19set_turns_alignmentESt8optionalINS_13CoilAlignmentEE
FN:4071,4071,_ZNK3MAS5Layer8get_typeEv
FN:4073,4073,_ZN3MAS5Layer8set_typeERKNS_14ElectricalTypeE
FN:4078,4078,_ZNK3MAS5Layer17get_winding_styleEv
FN:4079,4079,_ZN3MAS5Layer17set_winding_styleESt8optionalINS_12WindingStyleEE
FN:408,408,_ZNK3MAS5Boost17get_input_voltageEv
FN:4087,4087,_ZN3MAS10MarginInfoC2Ev
FN:4088,4088,_ZN3MAS10MarginInfoD0Ev
FN:4088,4088,_ZN3MAS10MarginInfoD2Ev
FN:410,410,_ZN3MAS5Boost17set_input_voltageERKNS_22DimensionWithToleranceE
FN:4102,4102,_ZNK3MAS10MarginInfo25get_bottom_or_right_widthEv
FN:4104,4104,_ZN3MAS10MarginInfo25set_bottom_or_right_widthERKd
FN:4109,4109,_ZNK3MAS10MarginInfo23get_insulation_materialB5cxx11Ev
FN:4110,4110,_ZN3MAS10MarginInfo23set_insulation_materialESt8optionalISt7variantIJNS_18InsulationMaterialENSt7__cxx1112basic_stringIcSt11char_traitsIcESaIcEEEEEE
FN:4115,4115,_ZNK3MAS10MarginInfo19get_layer_thicknessEv
FN:4117,4117,_ZN3MAS10MarginInfo19set_layer_thicknessERKd
FN:4122,4122,_ZNK3MAS10MarginInfo17get_number_layersEv
FN:4124,4124,_ZN3MAS10MarginInfo17set_number_layersERKl
FN:4130,4130,_ZNK3MAS10MarginInfo21get_top_or_left_widthEv
FN:4132,4132,_ZN3MAS10MarginInfo21set_top_or_left_widthERKd
FN:4142,4145,_ZN3MAS7SectionC2Ev
FN:4146,4146,_ZN3MAS7SectionD0Ev
FN:4146,4146,_ZN3MAS7SectionD2Ev
FN:415,415,_ZNK3MAS5Boost26get_maximum_switch_currentEv
FN:416,416,_ZN3MAS5Boost26set_maximum_switch_currentESt8optionalIdE
FN:4169,4169,_ZNK3MAS7Section15get_coordinatesEv
FN:4171,4171,_ZN3MAS7Section15set_coordinatesERKSt6vectorIdSaIdEE
FN:4176,4176,_ZNK3MAS7Section21get_coordinate_systemEv
FN:4177,4177,_ZN3MAS7Section21set_coordinate_systemESt8optionalINS_16CoordinateSystemEE
FN:4182,4182,_ZNK3MAS7Section14get_dimensionsEv
FN:4184,4184,_ZN3MAS7Section14set_dimensionsERKSt6vectorIdSaIdEE
FN:4189,4189,_ZNK3MAS7Section18get_filling_factorEv
FN:4190,4190,_ZN3MAS7Section18set_filling_factorESt8optionalIdE
FN:4195,4195,_ZNK3MAS7Section9get_groupB5cxx11Ev
FN:4196,4196,_ZN3MAS7Section9set_groupESt8optionalINSt7__cxx1112basic_stringIcSt11char_traitsIcESaIcEEEE
FN:4201,4201,_ZNK3MAS7Section20get_layers_alignmentEv
FN:4202,4202,_ZN3MAS7Section20set_layers_alignmentESt8optionalINS_13CoilAlignmentEE
FN:4207,4207,_ZNK3MAS7Section22get_layers_orientationEv
FN:4209,4209,_ZN3MAS7Section22set_layers_orientationERKNS_18WindingOrientationE
FN:421,421,_ZNK3MAS5Boost20get_operating_pointsEv
FN:4215,4215,_ZNK3MAS7Section10get_marginEv
FN:4216,4216,_ZN3MAS7Section10set_marginESt8optionalISt7variantIJSt6vectorIdSaIdEENS_10MarginInfoEEEE
FN:4221,4221,_ZNK3MAS7Section8get_nameB5cxx11Ev
FN:4223,4223,_ZN3MAS7Section8set_nameERKNSt7__cxx1112basic_stringIcSt11char_traitsIcESaIcEEE
FN:4228,4228,_ZNK3MAS7Section17get_number_layersEv
FN:4229,4229,_ZN3MAS7Section17set_number_layersESt8optionalIdE
FN:423,423,_ZN3MAS5Boost20set_operating_pointsERKSt6vectorINS_18BaseOperatingPointESaIS2_EE
FN:4234,4234,_ZNK3MAS7Section20get_partial_windingsEv
FN:4236,4236,_ZN3MAS7Section20set_partial_windingsERKSt6vectorINS_14PartialWindingESaIS2_EE
FN:4241,4241,_ZNK3MAS7Section8get_typeEv
FN:4243,4243,_ZN3MAS7Section8set_typeERKNS_14ElectricalTypeE
FN:4248,4248,_ZNK3MAS7Section17get_winding_styleEv
FN:4249,4249,_ZN3MAS7Section17set_winding_styleESt8optionalINS_12WindingStyleEE
FN:4264,4264,_ZN3MAS4TurnC2Ev
FN:4265,4265,_ZN3MAS4TurnD0Ev
FN:4265,4265,_ZN3MAS4TurnD2Ev
FN:4288,4288,_ZNK3MAS4Turn26get_additional_coordinatesEv
FN:4289,4289,_ZN3MAS4Turn26set_additional_coordinatesESt8optionalISt6vectorIS2_IdSaIdEESaIS4_EEE
FN:4294,4294,_ZNK3MAS4Turn9get_angleEv
FN:4295,4295,_ZN3MAS4Turn9set_angleESt8optionalIdE
FN:4300,4300,_ZNK3MAS4Turn15get_coordinatesEv
FN:4302,4302,_ZN3MAS4Turn15set_coordinatesERKSt6vectorIdSaIdEE
FN:4307,4307,_ZNK3MAS4Turn21get_coordinate_systemEv
FN:4308,4308,_ZN3MAS4Turn21set_coordinate_systemESt8optionalINS_16CoordinateSystemEE
FN:431,431,_ZN3MAS4BuckC2Ev
FN:4310,4310,_ZNK3MAS4Turn25get_cross_sectional_shapeEv
FN:4311,4311,_ZN3MAS4Turn25set_cross_sectional_shapeESt8optionalINS_23TurnCrossSectionalShapeEE
FN:4316,4316,_ZNK3MAS4Turn14get_dimensionsEv
FN:4317,4317,_ZN3MAS4Turn14set_dimensionsESt8optionalISt6vectorIdSaIdEEE
FN:432,432,_ZN3MAS4BuckD0Ev
FN:432,432,_ZN3MAS4BuckD2Ev
FN:4322,4322,_ZNK3MAS4Turn9get_layerB5cxx11Ev
FN:4323,4323,_ZN3MAS4Turn9set_layerESt8optionalINSt7__cxx1112basic_stringIcSt11char_traitsIcESaIcEEEE
FN:4328,4328,_ZNK3MAS4Turn10get_lengthEv
FN:4330,4330,_ZN3MAS4Turn10set_lengthERKd
FN:4335,4335,_ZNK3MAS4Turn8get_nameB5cxx11Ev
FN:4337,4337,_ZN3MAS4Turn8set_nameERKNSt7__cxx1112basic_stringIcSt11char_traitsIcESaIcEEE
FN:4342,4342,_ZNK3MAS4Turn15get_orientationEv
FN:4343,4343,_ZN3MAS4Turn15set_orientationESt8optionalINS_15TurnOrientationEE
FN:4348,4348,_ZNK3MAS4Turn12get_parallelEv
FN:4350,4350,_ZN3MAS4Turn12set_parallelERKl
FN:4355,4355,_ZNK3MAS4Turn12get_rotationEv
FN:4356,4356,_ZN3MAS4Turn12set_rotationESt8optionalIdE
FN:4361,4361,_ZNK3MAS4Turn11get_sectionB5cxx11Ev
FN:4362,4362,_ZN3MAS4Turn11set_sectionESt8optionalINSt7__cxx1112basic_stringIcSt11char_traitsIcESaIcEEEE
FN:4367,4367,_ZNK3MAS4Turn11get_windingB5cxx11Ev
FN:4369,4369,_ZN3MAS4Turn11set_windingERKNSt7__cxx1112basic_stringIcSt11char_traitsIcESaIcEEE
FN:4379,4379,_ZN3MAS4CoilC2Ev
FN:4380,4380,_ZN3MAS4CoilD0Ev
FN:4380,4380,_ZN3MAS4CoilD2Ev
FN:4391,4391,_ZNK3MAS4Coil10get_bobbinB5cxx11Ev
FN:4393,4393,_ZN3MAS4Coil10set_bobbinERKSt7variantIJNS_6BobbinENSt7__cxx1112basic_stringIcSt11char_traitsIcESaIcEEEEE
FN:4399,4399,_ZNK3MAS4Coil26get_functional_descriptionEv
FN:4401,4401,_ZN3MAS4Coil26set_functional_descriptionERKSt6vectorINS_25CoilFunctionalDescriptionESaIS2_EE
FN:4407,4407,_ZNK3MAS4Coil22get_groups_descriptionEv
FN:4408,4408,_ZN3MAS4Coil22set_groups_descriptionESt8optionalISt6vectorINS_5GroupESaIS3_EEE
FN:4414,4414,_ZNK3MAS4Coil22get_layers_descriptionEv
FN:4415,4415,_ZN3MAS4Coil22set_layers_descriptionESt8optionalISt6vectorINS_5LayerESaIS3_EEE
FN:4421,4421,_ZNK3MAS4Coil24get_sections_descriptionEv
FN:4422,4422,_ZN3MAS4Coil24set_sections_descriptionESt8optionalISt6vectorINS_7SectionESaIS3_EEE
FN:4428,4428,_ZNK3MAS4Coil21get_turns_descriptionEv
FN:4429,4429,_ZN3MAS4Coil21set_turns_descriptionESt8optionalISt6vectorINS_4TurnESaIS3_EEE
FN:4447,4450,_ZN3MAS7CoreGapC2Ev
FN:4451,4451,_ZN3MAS7CoreGapD0Ev
FN:4451,4451,_ZN3MAS7CoreGapD2Ev
FN:446,446,_ZNK3MAS4Buck24get_current_ripple_ratioEv
FN:4469,4469,_ZNK3MAS7CoreGap8get_areaEv
FN:447,447,_ZN3MAS4Buck24set_current_ripple_ratioESt8optionalIdE
FN:4470,4470,_ZN3MAS7CoreGap8set_areaESt8optionalIdE
FN:4475,4475,_ZNK3MAS7CoreGap15get_coordinatesEv
FN:4476,4476,_ZN3MAS7CoreGap15set_coordinatesESt8optionalISt6vectorIdSaIdEEE
FN:4482,4482,_ZNK3MAS7CoreGap35get_distance_closest_normal_surfaceEv
FN:4483,4483,_ZN3MAS7CoreGap35set_distance_closest_normal_surfaceESt8optionalIdE
FN:4489,4489,_ZNK3MAS7CoreGap37get_distance_closest_parallel_surfaceEv
FN:4490,4490,_ZN3MAS7CoreGap37set_distance_closest_parallel_surfaceESt8optionalIdE
FN:4495,4495,_ZNK3MAS7CoreGap10get_lengthEv
FN:4497,4497,_ZN3MAS7CoreGap10set_lengthERKd
FN:4502,4502,_ZNK3MAS7CoreGap22get_section_dimensionsEv
FN:4503,4503,_ZN3MAS7CoreGap22set_section_dimensionsESt8optionalISt6vectorIdSaIdEEE
FN:4505,4505,_ZNK3MAS7CoreGap9get_shapeEv
FN:4506,4506,_ZN3MAS7CoreGap9set_shapeESt8optionalINS_11ColumnShapeEE
FN:4511,4511,_ZNK3MAS7CoreGap8get_typeEv
FN:4513,4513,_ZN3MAS7CoreGap8set_typeERKNS_7GapTypeE
FN:452,452,_ZNK3MAS4Buck22get_diode_voltage_dropEv
FN:4521,4521,_ZN3MAS14BhCycleElementC2Ev
FN:4522,4522,_ZN3MAS14BhCycleElementD0Ev
FN:4522,4522,_ZN3MAS14BhCycleElementD2Ev
FN:4533,4533,_ZNK3MAS14BhCycleElement18get_magnetic_fieldEv
FN:4535,4535,_ZN3MAS14BhCycleElement18set_magnetic_fieldERKd
FN:454,454,_ZN3MAS4Buck22set_diode_voltage_dropERKd
FN:4540,4540,_ZNK3MAS14BhCycleElement25get_magnetic_flux_densityEv
FN:4542,4542,_ZN3MAS14BhCycleElement25set_magnetic_flux_densityERKd
FN:4547,4547,_ZNK3MAS14BhCycleElement15get_temperatureEv
FN:4549,4549,_ZN3MAS14BhCycleElement15set_temperatureERKd
FN:4560,4560,_ZN3MAS15MassLossesPointC2Ev
FN:4561,4561,_ZN3MAS15MassLossesPointD0Ev
FN:4561,4561,_ZN3MAS15MassLossesPointD2Ev
FN:4570,4570,_ZNK3MAS15MassLossesPoint25get_magnetic_flux_densityEv
FN:4572,4572,_ZN3MAS15MassLossesPoint25set_magnetic_flux_densityERKNS_24OperatingPointExcitationE
FN:4577,4577,_ZNK3MAS15MassLossesPoint10get_originB5cxx11Ev
FN:4579,4579,_ZN3MAS15MassLossesPoint10set_originERKNSt7__cxx1112basic_stringIcSt11char_traitsIcESaIcEEE
FN:4584,4584,_ZNK3MAS15MassLossesPoint15get_temperatureEv
FN:4586,4586,_ZN3MAS15MassLossesPoint15set_temperatureERKd
FN:459,459,_ZNK3MAS4Buck14get_efficiencyEv
FN:4591,4591,_ZNK3MAS15MassLossesPoint9get_valueEv
FN:4593,4593,_ZN3MAS15MassLossesPoint9set_valueERKd
FN:460,460,_ZN3MAS4Buck14set_efficiencyESt8optionalIdE
FN:4603,4603,_ZN3MAS28MagnetecCoreLossesMethodDataC2Ev
FN:4604,4604,_ZN3MAS28MagnetecCoreLossesMethodDataD0Ev
FN:4604,4604,_ZN3MAS28MagnetecCoreLossesMethodDataD2Ev
FN:4613,4613,_ZNK3MAS28MagnetecCoreLossesMethodData10get_methodEv
FN:4615,4615,_ZN3MAS28MagnetecCoreLossesMethodData10set_methodERKNS_24MassCoreLossesMethodTypeE
FN:4639,4639,_ZN3MAS15FrequencyFactorC2Ev
FN:4640,4640,_ZN3MAS15FrequencyFactorD0Ev
FN:4640,4640,_ZN3MAS15FrequencyFactorD2Ev
FN:465,465,_ZNK3MAS4Buck17get_input_voltageEv
FN:4650,4650,_ZNK3MAS15FrequencyFactor5get_aEv
FN:4652,4652,_ZN3MAS15FrequencyFactor5set_aERKd
FN:4654,4654,_ZNK3MAS15FrequencyFactor5get_bEv
FN:4656,4656,_ZN3MAS15FrequencyFactor5set_bERKd
FN:4658,4658,_ZNK3MAS15FrequencyFactor5get_cEv
FN:4660,4660,_ZN3MAS15FrequencyFactor5set_cERKd
FN:4662,4662,_ZNK3MAS15FrequencyFactor5get_dEv
FN:4664,4664,_ZN3MAS15FrequencyFactor5set_dERKd
FN:4666,4666,_ZNK3MAS15FrequencyFactor5get_eEv
FN:4667,4667,_ZN3MAS15FrequencyFactor5set_eESt8optionalIdE
FN:467,467,_ZN3MAS4Buck17set_input_voltageERKNS_22DimensionWithToleranceE
FN:4682,4682,_ZN3MAS25MagneticFieldDcBiasFactorC2Ev
FN:4683,4683,_ZN3MAS25MagneticFieldDcBiasFactorD0Ev
FN:4683,4683,_ZN3MAS25MagneticFieldDcBiasFactorD2Ev
FN:4692,4692,_ZNK3MAS25MagneticFieldDcBiasFactor5get_aEv
FN:4694,4694,_ZN3MAS25MagneticFieldDcBiasFactor5set_aERKd
FN:4696,4696,_ZNK3MAS25MagneticFieldDcBiasFactor5get_bEv
FN:4698,4698,_ZN3MAS25MagneticFieldDcBiasFactor5set_bERKd
FN:4700,4700,_ZNK3MAS25MagneticFieldDcBiasFactor5get_cEv
FN:4702,4702,_ZN3MAS25MagneticFieldDcBiasFactor5set_cERKd
FN:4704,4704,_ZNK3MAS25MagneticFieldDcBiasFactor5get_dEv
FN:4705,4705,_ZN3MAS25MagneticFieldDcBiasFactor5set_dESt8optionalIdE
FN:4714,4714,_ZN3MAS25MagneticFluxDensityFactorC2Ev
FN:4715,4715,_ZN3MAS25MagneticFluxDensityFactorD0Ev
FN:4715,4715,_ZN3MAS25MagneticFluxDensityFactorD2Ev
FN:472,472,_ZNK3MAS4Buck26get_maximum_switch_currentEv
FN:4726,4726,_ZNK3MAS25MagneticFluxDensityFactor5get_aEv
FN:4728,4728,_ZN3MAS25MagneticFluxDensityFactor5set_aERKd
FN:473,473,_ZN3MAS4Buck26set_maximum_switch_currentESt8optionalIdE
FN:4730,4730,_ZNK3MAS25MagneticFluxDensityFactor5get_bEv
FN:4732,4732,_ZN3MAS25MagneticFluxDensityFactor5set_bERKd
FN:4734,4734,_ZNK3MAS25MagneticFluxDensityFactor5get_cEv
FN:4736,4736,_ZN3MAS25MagneticFluxDensityFactor5set_cERKd
FN:4738,4738,_ZNK3MAS25MagneticFluxDensityFactor5get_dEv
FN:4740,4740,_ZN3MAS25MagneticFluxDensityFactor5set_dERKd
FN:4742,4742,_ZNK3MAS25MagneticFluxDensityFactor5get_eEv
FN:4744,4744,_ZN3MAS25MagneticFluxDensityFactor5set_eERKd
FN:4746,4746,_ZNK3MAS25MagneticFluxDensityFactor5get_fEv
FN:4748,4748,_ZN3MAS25MagneticFluxDensityFactor5set_fERKd
FN:4766,4766,_ZN3MAS17TemperatureFactorC2Ev
FN:4767,4767,_ZN3MAS17TemperatureFactorD0Ev
FN:4767,4767,_ZN3MAS17TemperatureFactorD2Ev
FN:4777,4777,_ZNK3MAS17TemperatureFactor5get_aEv
FN:4779,4779,_ZN3MAS17TemperatureFactor5set_aERKd
FN:478,478,_ZNK3MAS4Buck20get_operating_pointsEv
FN:4781,4781,_ZNK3MAS17TemperatureFactor5get_bEv
FN:4782,4782,_ZN3MAS17TemperatureFactor5set_bESt8optionalIdE
FN:4784,4784,_ZNK3MAS17TemperatureFactor5get_cEv
FN:4785,4785,_ZN3MAS17TemperatureFactor5set_cESt8optionalIdE
FN:4787,4787,_ZNK3MAS17TemperatureFactor5get_dEv
FN:4788,4788,_ZN3MAS17TemperatureFactor5set_dESt8optionalIdE
FN:4790,4790,_ZNK3MAS17TemperatureFactor5get_eEv
FN:4791,4791,_ZN3MAS17TemperatureFactor5set_eESt8optionalIdE
FN:480,480,_ZN3MAS4Buck20set_operating_pointsERKSt6vectorINS_18BaseOperatingPointESaIS2_EE
FN:4811,4811,_ZN3MAS26InitialPermeabilitModifierC2Ev
FN:4812,4812,_ZN3MAS26InitialPermeabilitModifierD0Ev
FN:4812,4812,_ZN3MAS26InitialPermeabilitModifierD2Ev
FN:4829,4829,_ZNK3MAS26InitialPermeabilitModifier20get_frequency_factorEv
FN:4830,4830,_ZN3MAS26InitialPermeabilitModifier20set_frequency_factorESt8optionalINS_15FrequencyFactorEE
FN:4842,4842,_ZNK3MAS26InitialPermeabilitModifier33get_magnetic_field_dc_bias_factorEv
FN:4843,4843,_ZN3MAS26InitialPermeabilitModifier33set_magnetic_field_dc_bias_factorESt8optionalINS_25MagneticFieldDcBiasFactorEE
FN:4848,4848,_ZNK3MAS26InitialPermeabilitModifier10get_methodEv
FN:4849,4849,_ZN3MAS26InitialPermeabilitModifier10set_methodESt8optionalINS_32InitialPermeabilitModifierMethodEE
FN:4862,4862,_ZNK3MAS26InitialPermeabilitModifier22get_temperature_factorEv
FN:4863,4863,_ZN3MAS26InitialPermeabilitModifier22set_temperature_factorESt8optionalINS_17TemperatureFactorEE
FN:4869,4869,_ZNK3MAS26InitialPermeabilitModifier32get_magnetic_flux_density_factorEv
FN:4870,4870,_ZN3MAS26InitialPermeabilitModifier32set_magnetic_flux_density_factorESt8optionalINS_25MagneticFluxDensityFactorEE
FN:4878,4878,_ZN3MAS17PermeabilityPointC2Ev
FN:4879,4879,_ZN3MAS17PermeabilityPointD0Ev
FN:4879,4879,_ZN3MAS17PermeabilityPointD2Ev
FN:4894,4894,_ZNK3MAS17PermeabilityPoint13get_frequencyEv
FN:4895,4895,_ZN3MAS17PermeabilityPoint13set_frequencyESt8optionalIdE
FN:4900,4900,_ZNK3MAS17PermeabilityPoint26get_magnetic_field_dc_biasEv
FN:4901,4901,_ZN3MAS17PermeabilityPoint26set_magnetic_field_dc_biasESt8optionalIdE
FN:4906,4906,_ZNK3MAS17PermeabilityPoint30get_magnetic_flux_density_peakEv
FN:4907,4907,_ZN3MAS17PermeabilityPoint30set_magnetic_flux_density_peakESt8optionalIdE
FN:4912,4912,_ZNK3MAS17PermeabilityPoint13get_modifiersB5cxx11Ev
FN:4913,4913,_ZN3MAS17PermeabilityPoint13set_modifiersESt8optionalISt3mapINSt7__cxx1112basic_stringIcSt11char_traitsIcESaIcEEENS_26InitialPermeabilitModifierESt4lessIS8_ESaISt4pairIKS8_S9_EEEE
FN:4918,4918,_ZNK3MAS17PermeabilityPoint15get_temperatureEv
FN:4919,4919,_ZN3MAS17PermeabilityPoint15set_temperatureESt8optionalIdE
FN:4924,4924,_ZNK3MAS17PermeabilityPoint13get_toleranceEv
FN:4925,4925,_ZN3MAS17PermeabilityPoint13set_toleranceESt8optionalIdE
FN:493,493,_ZN3MAS18CllcOperatingPointC2Ev
FN:4930,4930,_ZNK3MAS17PermeabilityPoint9get_valueEv
FN:4932,4932,_ZN3MAS17PermeabilityPoint9set_valueERKd
FN:494,494,_ZN3MAS18CllcOperatingPointD0Ev
FN:494,494,_ZN3MAS18CllcOperatingPointD2Ev
FN:4942,4942,_ZN3MAS23ComplexPermeabilityDataC2Ev
FN:4943,4943,_ZN3MAS23ComplexPermeabilityDataD0Ev
FN:4943,4943,_ZN3MAS23ComplexPermeabilityDataD2Ev
FN:4950,4950,_ZNK3MAS23ComplexPermeabilityData13get_imaginaryEv
FN:4952,4952,_ZN3MAS23ComplexPermeabilityData13set_imaginaryERKSt7variantIJSt6vectorINS_17PermeabilityPointESaIS3_EES3_EE
FN:4954,4954,_ZNK3MAS23ComplexPermeabilityData8get_realEv
FN:4956,4956,_ZN3MAS23ComplexPermeabilityData8set_realERKSt7variantIJSt6vectorINS_17PermeabilityPointESaIS3_EES3_EE
FN:4964,4964,_ZN3MAS14PermeabilitiesC2Ev
FN:4965,4965,_ZN3MAS14PermeabilitiesD0Ev
FN:4965,4965,_ZN3MAS14PermeabilitiesD2Ev
FN:4973,4973,_ZNK3MAS14Permeabilities13get_amplitudeEv
FN:4974,4974,_ZN3MAS14Permeabilities13set_amplitudeESt8optionalISt7variantIJSt6vectorINS_17PermeabilityPointESaIS4_EES4_EEE
FN:4979,4979,_ZNK3MAS14Permeabilities11get_complexEv
FN:4980,4980,_ZN3MAS14Permeabilities11set_complexESt8optionalINS_23ComplexPermeabilityDataEE
FN:4982,4982,_ZNK3MAS14Permeabilities11get_initialEv
FN:4984,4984,_ZN3MAS14Permeabilities11set_initialERKSt7variantIJSt6vectorINS_17PermeabilityPointESaIS3_EES3_EE
FN:4992,4994,_ZN3MAS27CoreMaterialRecommendationsC2Ev
FN:4995,4995,_ZN3MAS27CoreMaterialRecommendationsD0Ev
FN:4995,4995,_ZN3MAS27CoreMaterialRecommendationsD2Ev
FN:5010,5010,_ZNK3MAS27CoreMaterialRecommendations21get_maximum_frequencyEv
FN:5011,5011,_ZN3MAS27CoreMaterialRecommendations21set_maximum_frequencyESt8optionalIdE
FN:5016,5016,_ZNK3MAS27CoreMaterialRecommendations33get_maximum_magnetic_flux_densityEv
FN:5017,5017,_ZN3MAS27CoreMaterialRecommendations33set_maximum_magnetic_flux_densityESt8optionalIdE
FN:5022,5022,_ZNK3MAS27CoreMaterialRecommendations33get_maximum_operating_temperatureEv
FN:5023,5023,_ZN3MAS27CoreMaterialRecommendations33set_maximum_operating_temperatureESt8optionalIdE
FN:5028,5028,_ZNK3MAS27CoreMaterialRecommendations21get_minimum_frequencyEv
FN:5029,5029,_ZN3MAS27CoreMaterialRecommendations21set_minimum_frequencyESt8optionalIdE
FN:5034,5034,_ZNK3MAS27CoreMaterialRecommendations24get_typical_applicationsB5cxx11Ev
FN:5035,5035,_ZN3MAS27CoreMaterialRecommendations24set_typical_applicationsESt8optionalISt6vectorINSt7__cxx1112basic_stringIcSt11char_traitsIcESaIcEEESaIS8_EEE
FN:5040,5040,_ZNK3MAS27CoreMaterialRecommendations22get_typical_topologiesB5cxx11Ev
FN:5041,5041,_ZN3MAS27CoreMaterialRecommendations22set_typical_topologiesESt8optionalISt6vectorINSt7__cxx1112basic_stringIcSt11char_traitsIcESaIcEEESaIS8_EEE
FN:5057,5057,_ZN3MAS21VolumetricLossesPointC2Ev
FN:5058,5058,_ZN3MAS21VolumetricLossesPointD0Ev
FN:5058,5058,_ZN3MAS21VolumetricLossesPointD2Ev
FN:5067,5067,_ZNK3MAS21VolumetricLossesPoint25get_magnetic_flux_densityEv
FN:5069,5069,_ZN3MAS21VolumetricLossesPoint25set_magnetic_flux_densityERKNS_24OperatingPointExcitationE
FN:507,507,_ZNK3MAS18CllcOperatingPoint23get_ambient_temperatureEv
FN:5074,5074,_ZNK3MAS21VolumetricLossesPoint10get_originB5cxx11Ev
FN:5076,5076,_ZN3MAS21VolumetricLossesPoint10set_originERKNSt7__cxx1112basic_stringIcSt11char_traitsIcESaIcEEE
FN:5081,5081,_ZNK3MAS21VolumetricLossesPoint15get_temperatureEv
FN:5083,5083,_ZN3MAS21VolumetricLossesPoint15set_temperatureERKd
FN:5088,5088,_ZNK3MAS21VolumetricLossesPoint9get_valueEv
FN:509,509,_ZN3MAS18CllcOperatingPoint23set_ambient_temperatureERKd
FN:5090,5090,_ZN3MAS21VolumetricLossesPoint9set_valueERKd
FN:5099,5099,_ZN3MAS28RoshenAdditionalCoefficientsC2Ev
FN:5100,5100,_ZN3MAS28RoshenAdditionalCoefficientsD0Ev
FN:5100,5100,_ZN3MAS28RoshenAdditionalCoefficientsD2Ev
FN:5110,5110,_ZNK3MAS28RoshenAdditionalCoefficients29get_excess_losses_coefficientEv
FN:5112,5112,_ZN3MAS28RoshenAdditionalCoefficients29set_excess_losses_coefficientERKd
FN:5114,5114,_ZNK3MAS28RoshenAdditionalCoefficients37get_resistivity_frequency_coefficientEv
FN:5116,5116,_ZN3MAS28RoshenAdditionalCoefficients37set_resistivity_frequency_coefficientERKd
FN:5118,5118,_ZNK3MAS28RoshenAdditionalCoefficients49get_resistivity_magnetic_flux_density_coefficientEv
FN:5120,5120,_ZN3MAS28RoshenAdditionalCoefficients49set_resistivity_magnetic_flux_density_coefficientERKd
FN:5122,5122,_ZNK3MAS28RoshenAdditionalCoefficients22get_resistivity_offsetEv
FN:5124,5124,_ZN3MAS28RoshenAdditionalCoefficients22set_resistivity_offsetERKd
FN:5126,5126,_ZNK3MAS28RoshenAdditionalCoefficients39get_resistivity_temperature_coefficientEv
FN:5128,5128,_ZN3MAS28RoshenAdditionalCoefficients39set_resistivity_temperature_coefficientERKd
FN:5136,5136,_ZN3MAS15LossFactorPointC2Ev
FN:5137,5137,_ZN3MAS15LossFactorPointD0Ev
FN:5137,5137,_ZN3MAS15LossFactorPointD2Ev
FN:514,514,_ZNK3MAS18CllcOperatingPoint19get_output_currentsEv
FN:5148,5148,_ZNK3MAS15LossFactorPoint13get_frequencyEv
FN:5149,5149,_ZN3MAS15LossFactorPoint13set_frequencyESt8optionalIdE
FN:5154,5154,_ZNK3MAS15LossFactorPoint15get_temperatureEv
FN:5155,5155,_ZN3MAS15LossFactorPoint15set_temperatureESt8optionalIdE
FN:516,516,_ZN3MAS18CllcOperatingPoint19set_output_currentsERKSt6vectorIdSaIdEE
FN:5160,5160,_ZNK3MAS15LossFactorPoint9get_valueEv
FN:5162,5162,_ZN3MAS15LossFactorPoint9set_valueERKd
FN:5169,5169,_ZN3MAS35SteinmetzCoreLossesMethodRangeDatumC2Ev
FN:5170,5170,_ZN3MAS35SteinmetzCoreLossesMethodRangeDatumD0Ev
FN:5170,5170,_ZN3MAS35SteinmetzCoreLossesMethodRangeDatumD2Ev
FN:5186,5186,_ZNK3MAS35SteinmetzCoreLossesMethodRangeDatum9get_alphaEv
FN:5188,5188,_ZN3MAS35SteinmetzCoreLossesMethodRangeDatum9set_alphaERKd
FN:5193,5193,_ZNK3MAS35SteinmetzCoreLossesMethodRangeDatum8get_betaEv
FN:5195,5195,_ZN3MAS35SteinmetzCoreLossesMethodRangeDatum8set_betaERKd
FN:5200,5200,_ZNK3MAS35SteinmetzCoreLossesMethodRangeDatum7get_ct0Ev
FN:5201,5201,_ZN3MAS35SteinmetzCoreLossesMethodRangeDatum7set_ct0ESt8optionalIdE
FN:5206,5206,_ZNK3MAS35SteinmetzCoreLossesMethodRangeDatum7get_ct1Ev
FN:5207,5207,_ZN3MAS35SteinmetzCoreLossesMethodRangeDatum7set_ct1ESt8optionalIdE
FN:521,521,_ZNK3MAS18CllcOperatingPoint19get_output_voltagesEv
FN:5212,5212,_ZNK3MAS35SteinmetzCoreLossesMethodRangeDatum7get_ct2Ev
FN:5213,5213,_ZN3MAS35SteinmetzCoreLossesMethodRangeDatum7set_ct2ESt8optionalIdE
FN:5218,5218,_ZNK3MAS35SteinmetzCoreLossesMethodRangeDatum5get_kEv
FN:5220,5220,_ZN3MAS35SteinmetzCoreLossesMethodRangeDatum5set_kERKd
FN:5225,5225,_ZNK3MAS35SteinmetzCoreLossesMethodRangeDatum21get_maximum_frequencyEv
FN:5226,5226,_ZN3MAS35SteinmetzCoreLossesMethodRangeDatum21set_maximum_frequencyESt8optionalIdE
FN:523,523,_ZN3MAS18CllcOperatingPoint19set_output_voltagesERKSt6vectorIdSaIdEE
FN:5231,5231,_ZNK3MAS35SteinmetzCoreLossesMethodRangeDatum21get_minimum_frequencyEv
FN:5232,5232,_ZN3MAS35SteinmetzCoreLossesMethodRangeDatum21set_minimum_frequencyESt8optionalIdE
FN:5252,5252,_ZN3MAS20CoreLossesMethodDataC2Ev
FN:5253,5253,_ZN3MAS20CoreLossesMethodDataD0Ev
FN:5253,5253,_ZN3MAS20CoreLossesMethodDataD2Ev
FN:5270,5270,_ZNK3MAS20CoreLossesMethodData10get_methodEv
FN:5272,5272,_ZN3MAS20CoreLossesMethodData10set_methodERKNS_30VolumetricCoreLossesMethodTypeE
FN:5274,5274,_ZNK3MAS20CoreLossesMethodData10get_rangesEv
FN:5275,5275,_ZN3MAS20CoreLossesMethodData10set_rangesESt8optionalISt6vectorINS_35SteinmetzCoreLossesMethodRangeDatumESaIS3_EEE
FN:528,528,_ZNK3MAS18CllcOperatingPoint14get_power_flowEv
FN:5281,5281,_ZNK3MAS20CoreLossesMethodData16get_coefficientsEv
FN:5282,5282,_ZN3MAS20CoreLossesMethodData16set_coefficientsESt8optionalINS_28RoshenAdditionalCoefficientsEE
FN:5287,5287,_ZNK3MAS20CoreLossesMethodData31get_reference_volumetric_lossesEv
FN:5288,5288,_ZN3MAS20CoreLossesMethodData31set_reference_volumetric_lossesESt8optionalISt6vectorINS_21VolumetricLossesPointESaIS3_EEE
FN:5290,5290,_ZNK3MAS20CoreLossesMethodData5get_aEv
FN:5291,5291,_ZN3MAS20CoreLossesMethodData5set_aESt8optionalIdE
FN:5293,5293,_ZNK3MAS20CoreLossesMethodData5get_bEv
FN:5294,5294,_ZN3MAS20CoreLossesMethodData5set_bESt8optionalIdE
FN:5296,5296,_ZNK3MAS20CoreLossesMethodData5get_cEv
FN:5297,5297,_ZN3MAS20CoreLossesMethodData5set_cESt8optionalIdE
FN:5299,5299,_ZNK3MAS20CoreLossesMethodData5get_dEv
FN:530,530,_ZN3MAS18CllcOperatingPoint14set_power_flowERKNS_13CllcPowerFlowE
FN:5300,5300,_ZN3MAS20CoreLossesMethodData5set_dESt8optionalIdE
FN:5302,5302,_ZNK3MAS20CoreLossesMethodData11get_factorsEv
FN:5303,5303,_ZN3MAS20CoreLossesMethodData11set_factorsESt8optionalISt6vectorINS_15LossFactorPointESaIS3_EEE
FN:5313,5313,_ZN3MAS12CoreMaterialC2Ev
FN:5314,5314,_ZN3MAS12CoreMaterialD0Ev
FN:5314,5314,_ZN3MAS12CoreMaterialD2Ev
FN:5344,5344,_ZNK3MAS12CoreMaterial16get_alternativesB5cxx11Ev
FN:5345,5345,_ZN3MAS12CoreMaterial16set_alternativesESt8optionalISt6vectorINSt7__cxx1112basic_stringIcSt11char_traitsIcESaIcEEESaIS8_EEE
FN:5347,5347,_ZNK3MAS12CoreMaterial15get_applicationEv
FN:5348,5348,_ZN3MAS12CoreMaterial15set_applicationESt8optionalINS_11ApplicationEE
FN:535,535,_ZNK3MAS18CllcOperatingPoint23get_switching_frequencyEv
FN:5350,5350,_ZNK3MAS12CoreMaterial12get_bh_cycleEv
FN:5351,5351,_ZN3MAS12CoreMaterial12set_bh_cycleESt8optionalISt6vectorINS_14BhCycleElementESaIS3_EEE
FN:5356,5356,_ZNK3MAS12CoreMaterial18get_coercive_forceEv
FN:5357,5357,_ZN3MAS12CoreMaterial18set_coercive_forceESt8optionalISt6vectorINS_14BhCycleElementESaIS3_EEE
FN:5362,5362,_ZNK3MAS12CoreMaterial19get_commercial_nameB5cxx11Ev
FN:5363,5363,_ZN3MAS12CoreMaterial19set_commercial_nameESt8optionalINSt7__cxx1112basic_stringIcSt11char_traitsIcESaIcEEEE
FN:5368,5368,_ZNK3MAS12CoreMaterial21get_curie_temperatureEv
FN:5369,5369,_ZN3MAS12CoreMaterial21set_curie_temperatureESt8optionalIdE
FN:537,537,_ZN3MAS18CllcOperatingPoint23set_switching_frequencyERKd
FN:5374,5374,_ZNK3MAS12CoreMaterial11get_densityEv
FN:5375,5375,_ZN3MAS12CoreMaterial11set_densityESt8optionalIdE
FN:5380,5380,_ZNK3MAS12CoreMaterial10get_familyB5cxx11Ev
FN:5381,5381,_ZN3MAS12CoreMaterial10set_familyESt8optionalINSt7__cxx1112basic_stringIcSt11char_traitsIcESaIcEEEE
FN:5386,5386,_ZNK3MAS12CoreMaterial17get_heat_capacityEv
FN:5387,5387,_ZN3MAS12CoreMaterial17set_heat_capacityESt8optionalINS_22DimensionWithToleranceEE
FN:5392,5392,_ZNK3MAS12CoreMaterial21get_heat_conductivityEv
FN:5393,5393,_ZN3MAS12CoreMaterial21set_heat_conductivityESt8optionalINS_22DimensionWithToleranceEE
FN:5395,5395,_ZNK3MAS12CoreMaterial21get_manufacturer_infoEv
FN:5397,5397,_ZN3MAS12CoreMaterial21set_manufacturer_infoERKNS_16ManufacturerInfoE
FN:5402,5402,_ZNK3MAS12CoreMaterial15get_mass_lossesB5cxx11Ev
FN:5403,5403,_ZN3MAS12CoreMaterial15set_mass_lossesESt8optionalISt3mapINSt7__cxx1112basic_stringIcSt11char_traitsIcESaIcEEESt6vectorISt7variantIJS9_INS_15MassLossesPointESaISB_EENS_28MagnetecCoreLossesMethodDataEEESaISF_EESt4lessIS8_ESaISt4pairIKS8_SH_EEEE
FN:5408,5408,_ZNK3MAS12CoreMaterial12get_materialEv
FN:5410,5410,_ZN3MAS12CoreMaterial12set_materialERKNS_12MaterialTypeE
FN:5415,5415,_ZNK3MAS12CoreMaterial24get_material_compositionEv
FN:5416,5416,_ZN3MAS12CoreMaterial24set_material_compositionESt8optionalINS_19MaterialCompositionEE
FN:5421,5421,_ZNK3MAS12CoreMaterial8get_nameB5cxx11Ev
FN:5423,5423,_ZN3MAS12CoreMaterial8set_nameERKNSt7__cxx1112basic_stringIcSt11char_traitsIcESaIcEEE
FN:5428,5428,_ZNK3MAS12CoreMaterial16get_permeabilityEv
FN:5429,5429,_ZN3MAS12CoreMaterial24get_mutable_permeabilityEv
FN:5430,5430,_ZN3MAS12CoreMaterial16set_permeabilityERKNS_14PermeabilitiesE
FN:5435,5435,_ZNK3MAS12CoreMaterial19get_recommendationsEv
FN:5436,5436,_ZN3MAS12CoreMaterial19set_recommendationsESt8optionalINS_27CoreMaterialRecommendationsEE
FN:5441,5441,_ZNK3MAS12CoreMaterial13get_remanenceEv
FN:5442,5442,_ZN3MAS12CoreMaterial13set_remanenceESt8optionalISt6vectorINS_14BhCycleElementESaIS3_EEE
FN:5447,5447,_ZNK3MAS12CoreMaterial15get_resistivityEv
FN:5449,5449,_ZN3MAS12CoreMaterial15set_resistivityERKSt6vectorINS_16ResistivityPointESaIS2_EE
FN:545,545,_ZN3MAS12CllcResonantC2Ev
FN:5455,5455,_ZNK3MAS12CoreMaterial14get_saturationEv
FN:5457,5457,_ZN3MAS12CoreMaterial14set_saturationERKSt6vectorINS_14BhCycleElementESaIS2_EE
FN:546,546,_ZN3MAS12CllcResonantD0Ev
FN:546,546,_ZN3MAS12CllcResonantD2Ev
FN:5462,5462,_ZNK3MAS12CoreMaterial8get_typeEv
FN:5464,5464,_ZN3MAS12CoreMaterial8set_typeERKNS_16CoreMaterialTypeE
FN:5469,5469,_ZNK3MAS12CoreMaterial21get_volumetric_lossesB5cxx11Ev
FN:5470,5470,_ZN3MAS12CoreMaterial29get_mutable_volumetric_lossesB5cxx11Ev
FN:5471,5471,_ZN3MAS12CoreMaterial21set_volumetric_lossesERKSt3mapINSt7__cxx1112basic_stringIcSt11char_traitsIcESaIcEEESt6vectorISt7variantIJS8_INS_21VolumetricLossesPointESaISA_EENS_20CoreLossesMethodDataEEESaISE_EESt4lessIS7_ESaISt4pairIKS7_SG_EEE
FN:5492,5492,_ZN3MAS9CoreShapeC2Ev
FN:5493,5493,_ZN3MAS9CoreShapeD0Ev
FN:5493,5493,_ZN3MAS9CoreShapeD2Ev
FN:5508,5508,_ZNK3MAS9CoreShape11get_aliasesB5cxx11Ev
FN:5509,5509,_ZN3MAS9CoreShape11set_aliasesESt8optionalISt6vectorINSt7__cxx1112basic_stringIcSt11char_traitsIcESaIcEEESaIS8_EEE
FN:5514,5514,_ZNK3MAS9CoreShape14get_dimensionsB5cxx11Ev
FN:5515,5515,_ZN3MAS9CoreShape14set_dimensionsESt8optionalISt3mapINSt7__cxx1112basic_stringIcSt11char_traitsIcESaIcEEESt7variantIJNS_22DimensionWithToleranceEdEESt4lessIS8_ESaISt4pairIKS8_SB_EEEE
FN:5520,5520,_ZNK3MAS9CoreShape10get_familyEv
FN:5522,5522,_ZN3MAS9CoreShape10set_familyERKNS_15CoreShapeFamilyE
FN:5527,5527,_ZNK3MAS9CoreShape18get_family_subtypeB5cxx11Ev
FN:5528,5528,_ZN3MAS9CoreShape18set_family_subtypeESt8optionalINSt7__cxx1112basic_stringIcSt11char_traitsIcESaIcEEEE
FN:5534,5534,_ZNK3MAS9CoreShape20get_magnetic_circuitEv
FN:5535,5535,_ZN3MAS9CoreShape20set_magnetic_circuitESt8optionalINS_15MagneticCircuitEE
FN:5540,5540,_ZNK3MAS9CoreShape8get_nameB5cxx11Ev
FN:5541,5541,_ZN3MAS9CoreShape8set_nameESt8optionalINSt7__cxx1112basic_stringIcSt11char_traitsIcESaIcEEEE
FN:5546,5546,_ZNK3MAS9CoreShape8get_typeEv
FN:5548,5548,_ZN3MAS9CoreShape8set_typeERKNS_25FunctionalDescriptionTypeE
FN:5564,5566,_ZN3MAS25CoreFunctionalDescriptionC2Ev
FN:5567,5567,_ZN3MAS25CoreFunctionalDescriptionD0Ev
FN:5567,5567,_ZN3MAS25CoreFunctionalDescriptionD2Ev
FN:5582,5582,_ZNK3MAS25CoreFunctionalDescription11get_coatingEv
FN:5583,5583,_ZN3MAS25CoreFunctionalDescription11set_coatingESt8optionalINS_7CoatingEE
FN:5588,5588,_ZNK3MAS25CoreFunctionalDescription11get_gappingEv
FN:5589,5589,_ZN3MAS25CoreFunctionalDescription19get_mutable_gappingEv
FN:5590,5590,_ZN3MAS25CoreFunctionalDescription11set_gappingERKSt6vectorINS_7CoreGapESaIS2_EE
FN:5592,5592,_ZNK3MAS25CoreFunctionalDescription12get_materialB5cxx11Ev
FN:5593,5593,_ZN3MAS25CoreFunctionalDescription20get_mutable_materialB5cxx11Ev
FN:5594,5594,_ZN3MAS25CoreFunctionalDescription12set_materialERKSt7variantIJNS_12CoreMaterialENSt7__cxx1112basic_stringIcSt11char_traitsIcESaIcEEEEE
FN:5599,5599,_ZNK3MAS25CoreFunctionalDescription17get_number_stacksEv
FN:5600,5600,_ZN3MAS25CoreFunctionalDescription17set_number_stacksESt8optionalIlE
FN:5602,5602,_ZNK3MAS25CoreFunctionalDescription9get_shapeB5cxx11Ev
FN:5604,5604,_ZN3MAS25CoreFunctionalDescription9set_shapeERKSt7variantIJNS_9CoreShapeENSt7__cxx1112basic_stringIcSt11char_traitsIcESaIcEEEEE
FN:5609,5609,_ZNK3MAS25CoreFunctionalDescription8get_typeEv
FN:5611,5611,_ZN3MAS25CoreFunctionalDescription8set_typeERKNS_8CoreTypeE
FN:5619,5619,_ZN3MAS9MachiningC2Ev
FN:5620,5620,_ZN3MAS9MachiningD0Ev
FN:5620,5620,_ZN3MAS9MachiningD2Ev
FN:563,563,_ZN3MAS12CllcResonant17set_bidirectionalESt8optionalIbE
FN:5631,5631,_ZNK3MAS9Machining15get_coordinatesEv
FN:5632,5632,_ZN3MAS9Machining23get_mutable_coordinatesEv
FN:5633,5633,_ZN3MAS9Machining15set_coordinatesERKSt6vectorIdSaIdEE
FN:5638,5638,_ZNK3MAS9Machining10get_lengthEv
FN:5640,5640,_ZN3MAS9Machining10set_lengthERKd
FN:5660,5660,_ZN3MAS33CoreGeometricalDescriptionElementC2Ev
FN:5661,5661,_ZN3MAS33CoreGeometricalDescriptionElementD0Ev
FN:5661,5661,_ZN3MAS33CoreGeometricalDescriptionElementD2Ev
FN:5679,5679,_ZNK3MAS33CoreGeometricalDescriptionElement15get_coordinatesEv
FN:568,568,_ZNK3MAS12CllcResonant14get_efficiencyEv
FN:5681,5681,_ZN3MAS33CoreGeometricalDescriptionElement15set_coordinatesERKSt6vectorIdSaIdEE
FN:5683,5683,_ZNK3MAS33CoreGeometricalDescriptionElement13get_machiningEv
FN:5684,5684,_ZN3MAS33CoreGeometricalDescriptionElement13set_machiningESt8optionalISt6vectorINS_9MachiningESaIS3_EEE
FN:5686,5686,_ZNK3MAS33CoreGeometricalDescriptionElement12get_materialB5cxx11Ev
FN:5687,5687,_ZN3MAS33CoreGeometricalDescriptionElement12set_materialESt8optionalISt7variantIJNS_12CoreMaterialENSt7__cxx1112basic_stringIcSt11char_traitsIcESaIcEEEEEE
FN:569,569,_ZN3MAS12CllcResonant14set_efficiencyESt8optionalIdE
FN:5693,5693,_ZNK3MAS33CoreGeometricalDescriptionElement12get_rotationEv
FN:5694,5694,_ZN3MAS33CoreGeometricalDescriptionElement12set_rotationESt8optionalISt6vectorIdSaIdEEE
FN:5696,5696,_ZNK3MAS33CoreGeometricalDescriptionElement9get_shapeB5cxx11Ev
FN:5697,5697,_ZN3MAS33CoreGeometricalDescriptionElement9set_shapeESt8optionalISt7variantIJNS_9CoreShapeENSt7__cxx1112basic_stringIcSt11char_traitsIcESaIcEEEEEE
FN:5704,5704,_ZNK3MAS33CoreGeometricalDescriptionElement8get_typeEv
FN:5706,5706,_ZN3MAS33CoreGeometricalDescriptionElement8set_typeERKNS_37CoreGeometricalDescriptionElementTypeE
FN:5711,5711,_ZNK3MAS33CoreGeometricalDescriptionElement14get_dimensionsEv
FN:5712,5712,_ZN3MAS33CoreGeometricalDescriptionElement14set_dimensionsESt8optionalISt6vectorIdSaIdEEE
FN:5717,5717,_ZNK3MAS33CoreGeometricalDescriptionElement23get_insulation_materialB5cxx11Ev
FN:5718,5718,_ZN3MAS33CoreGeometricalDescriptionElement23set_insulation_materialESt8optionalISt7variantIJNS_18InsulationMaterialENSt7__cxx1112basic_stringIcSt11char_traitsIcESaIcEEEEEE
FN:5731,5731,_ZN3MAS13ColumnElementC2Ev
FN:5732,5732,_ZN3MAS13ColumnElementD0Ev
FN:5732,5732,_ZN3MAS13ColumnElementD2Ev
FN:574,574,_ZNK3MAS12CllcResonant17get_input_voltageEv
FN:5749,5749,_ZNK3MAS13ColumnElement8get_areaEv
FN:5751,5751,_ZN3MAS13ColumnElement8set_areaERKd
FN:5758,5758,_ZNK3MAS13ColumnElement15get_coordinatesEv
FN:576,576,_ZN3MAS12CllcResonant17set_input_voltageERKNS_22DimensionWithToleranceE
FN:5760,5760,_ZN3MAS13ColumnElement15set_coordinatesERKSt6vectorIdSaIdEE
FN:5765,5765,_ZNK3MAS13ColumnElement9get_depthEv
FN:5767,5767,_ZN3MAS13ColumnElement9set_depthERKd
FN:5772,5772,_ZNK3MAS13ColumnElement10get_heightEv
FN:5774,5774,_ZN3MAS13ColumnElement10set_heightERKd
FN:5779,5779,_ZNK3MAS13ColumnElement17get_minimum_depthEv
FN:5780,5780,_ZN3MAS13ColumnElement17set_minimum_depthESt8optionalIdE
FN:5785,5785,_ZNK3MAS13ColumnElement17get_minimum_widthEv
FN:5786,5786,_ZN3MAS13ColumnElement17set_minimum_widthESt8optionalIdE
FN:5788,5788,_ZNK3MAS13ColumnElement9get_shapeEv
FN:5790,5790,_ZN3MAS13ColumnElement9set_shapeERKNS_11ColumnShapeE
FN:5795,5795,_ZNK3MAS13ColumnElement8get_typeEv
FN:5797,5797,_ZN3MAS13ColumnElement8set_typeERKNS_10ColumnTypeE
FN:5802,5802,_ZNK3MAS13ColumnElement9get_widthEv
FN:5804,5804,_ZN3MAS13ColumnElement9set_widthERKd
FN:581,581,_ZNK3MAS12CllcResonant27get_max_switching_frequencyEv
FN:5812,5812,_ZN3MAS19EffectiveParametersC2Ev
FN:5813,5813,_ZN3MAS19EffectiveParametersD0Ev
FN:5813,5813,_ZN3MAS19EffectiveParametersD2Ev
FN:5826,5826,_ZNK3MAS19EffectiveParameters18get_effective_areaEv
FN:5828,5828,_ZN3MAS19EffectiveParameters18set_effective_areaERKd
FN:583,583,_ZN3MAS12CllcResonant27set_max_switching_frequencyERKd
FN:5833,5833,_ZNK3MAS19EffectiveParameters20get_effective_lengthEv
FN:5835,5835,_ZN3MAS19EffectiveParameters20set_effective_lengthERKd
FN:5841,5841,_ZNK3MAS19EffectiveParameters20get_effective_volumeEv
FN:5843,5843,_ZN3MAS19EffectiveParameters20set_effective_volumeERKd
FN:5848,5848,_ZNK3MAS19EffectiveParameters16get_minimum_areaEv
FN:5850,5850,_ZN3MAS19EffectiveParameters16set_minimum_areaERKd
FN:5858,5858,_ZN3MAS24CoreProcessedDescriptionC2Ev
FN:5859,5859,_ZN3MAS24CoreProcessedDescriptionD0Ev
FN:5859,5859,_ZN3MAS24CoreProcessedDescriptionD2Ev
FN:5874,5874,_ZNK3MAS24CoreProcessedDescription11get_columnsEv
FN:5875,5875,_ZN3MAS24CoreProcessedDescription19get_mutable_columnsEv
FN:5876,5876,_ZN3MAS24CoreProcessedDescription11set_columnsERKSt6vectorINS_13ColumnElementESaIS2_EE
FN:588,588,_ZNK3MAS12CllcResonant27get_min_switching_frequencyEv
FN:5881,5881,_ZNK3MAS24CoreProcessedDescription9get_depthEv
FN:5883,5883,_ZN3MAS24CoreProcessedDescription9set_depthERKd
FN:5885,5885,_ZNK3MAS24CoreProcessedDescription24get_effective_parametersEv
FN:5886,5886,_ZN3MAS24CoreProcessedDescription32get_mutable_effective_parametersEv
FN:5887,5887,_ZN3MAS24CoreProcessedDescription24set_effective_parametersERKNS_19EffectiveParametersE
FN:5892,5892,_ZNK3MAS24CoreProcessedDescription10get_heightEv
FN:5894,5894,_ZN3MAS24CoreProcessedDescription10set_heightERKd
FN:590,590,_ZN3MAS12CllcResonant27set_min_switching_frequencyERKd
FN:5900,5900,_ZNK3MAS24CoreProcessedDescription22get_thermal_resistanceEv
FN:5901,5901,_ZN3MAS24CoreProcessedDescription22set_thermal_resistanceESt8optionalIdE
FN:5906,5906,_ZNK3MAS24CoreProcessedDescription9get_widthEv
FN:5908,5908,_ZN3MAS24CoreProcessedDescription9set_widthERKd
FN:5913,5913,_ZNK3MAS24CoreProcessedDescription19get_winding_windowsEv
FN:5914,5914,_ZN3MAS24CoreProcessedDescription27get_mutable_winding_windowsEv
FN:5915,5915,_ZN3MAS24CoreProcessedDescription19set_winding_windowsERKSt6vectorINS_20WindingWindowElementESaIS2_EE
FN:5925,5925,_ZN3MAS12MagneticCoreC2Ev
FN:5926,5926,_ZN3MAS12MagneticCoreD0Ev
FN:5926,5926,_ZN3MAS12MagneticCoreD2Ev
FN:5940,5940,_ZNK3MAS12MagneticCore21get_distributors_infoEv
FN:5941,5941,_ZN3MAS12MagneticCore21set_distributors_infoESt8optionalISt6vectorINS_15DistributorInfoESaIS3_EEE
FN:5947,5947,_ZNK3MAS12MagneticCore26get_functional_descriptionEv
FN:5948,5948,_ZN3MAS12MagneticCore34get_mutable_functional_descriptionEv
FN:5949,5949,_ZN3MAS12MagneticCore26set_functional_descriptionERKNS_25CoreFunctionalDescriptionE
FN:595,595,_ZNK3MAS12CllcResonant20get_operating_pointsEv
FN:5955,5955,_ZNK3MAS12MagneticCore27get_geometrical_descriptionEv
FN:5956,5956,_ZN3MAS12MagneticCore27set_geometrical_descriptionESt8optionalISt6vectorINS_33CoreGeometricalDescriptionElementESaIS3_EEE
FN:5958,5958,_ZNK3MAS12MagneticCore21get_manufacturer_infoEv
FN:5959,5959,_ZN3MAS12MagneticCore21set_manufacturer_infoESt8optionalINS_16ManufacturerInfoEE
FN:5964,5964,_ZNK3MAS12MagneticCore8get_nameB5cxx11Ev
FN:5965,5965,_ZN3MAS12MagneticCore8set_nameESt8optionalINSt7__cxx1112basic_stringIcSt11char_traitsIcESaIcEEEE
FN:597,597,_ZN3MAS12CllcResonant20set_operating_pointsERKSt6vectorINS_18CllcOperatingPointESaIS2_EE
FN:5970,5970,_ZNK3MAS12MagneticCore25get_processed_descriptionEv
FN:5971,5971,_ZN3MAS12MagneticCore25set_processed_descriptionESt8optionalINS_24CoreProcessedDescriptionEE
FN:5976,5976,_ZN3MAS35MagneticManufacturerRecommendationsC2Ev
FN:5977,5977,_ZN3MAS35MagneticManufacturerRecommendationsD0Ev
FN:5977,5977,_ZN3MAS35MagneticManufacturerRecommendationsD2Ev
FN:5996,5996,_ZNK3MAS35MagneticManufacturerRecommendations14get_dimensionsEv
FN:5997,5997,_ZN3MAS35MagneticManufacturerRecommendations14set_dimensionsESt8optionalISt6vectorIdSaIdEEE
FN:60,68,_ZN3MAS22ClassMemberConstraintsC2ESt8optionalIlES2_S1_IdES3_S1_ImES4_S1_INSt7__cxx1112basic_stringIcSt11char_traitsIcESaIcEEEE
FN:6002,6002,_ZNK3MAS35MagneticManufacturerRecommendations14get_hipot_testEv
FN:6003,6003,_ZN3MAS35MagneticManufacturerRecommendations14set_hipot_testESt8optionalIdE
FN:6008,6008,_ZNK3MAS35MagneticManufacturerRecommendations19get_insulation_typeEv
FN:6009,6009,_ZN3MAS35MagneticManufacturerRecommendations19set_insulation_typeESt8optionalINS_14InsulationTypeEE
FN:6014,6014,_ZNK3MAS35MagneticManufacturerRecommendations22get_leakage_inductanceEv
FN:6015,6015,_ZN3MAS35MagneticManufacturerRecommendations22set_leakage_inductanceESt8optionalINS_22DimensionWithToleranceEE
FN:602,602,_ZNK3MAS12CllcResonant18get_quality_factorEv
FN:6020,6020,_ZNK3MAS35MagneticManufacturerRecommendations36get_maximum_storable_magnetic_energyEv
FN:6021,6021,_ZN3MAS35MagneticManufacturerRecommendations36set_maximum_storable_magnetic_energyESt8optionalIdE
FN:6026,6026,_ZNK3MAS35MagneticManufacturerRecommendations12get_mountingEv
FN:6027,6027,_ZN3MAS35MagneticManufacturerRecommendations12set_mountingESt8optionalINS_14ConnectionTypeEE
FN:603,603,_ZN3MAS12CllcResonant18set_quality_factorESt8optionalIdE
FN:6032,6032,_ZNK3MAS35MagneticManufacturerRecommendations17get_rated_currentEv
FN:6033,6033,_ZN3MAS35MagneticManufacturerRecommendations17set_rated_currentESt8optionalIdE
FN:6038,6038,_ZNK3MAS35MagneticManufacturerRecommendations34get_rated_current_temperature_riseEv
FN:6039,6039,_ZN3MAS35MagneticManufacturerRecommendations34set_rated_current_temperature_riseESt8optionalIdE
FN:6044,6044,_ZNK3MAS35MagneticManufacturerRecommendations23get_rated_magnetic_fluxEv
FN:6045,6045,_ZN3MAS35MagneticManufacturerRecommendations23set_rated_magnetic_fluxESt8optionalIdE
FN:6050,6050,_ZNK3MAS35MagneticManufacturerRecommendations22get_saturation_currentEv
FN:6051,6051,_ZN3MAS35MagneticManufacturerRecommendations22set_saturation_currentESt8optionalIdE
FN:6056,6056,_ZNK3MAS35MagneticManufacturerRecommendations38get_saturation_current_inductance_dropEv
FN:6057,6057,_ZN3MAS35MagneticManufacturerRecommendations38set_saturation_current_inductance_dropESt8optionalIdE
FN:6062,6062,_ZN3MAS24MagneticManufacturerInfoC2Ev
FN:6063,6063,_ZN3MAS24MagneticManufacturerInfoD0Ev
FN:6063,6063,_ZN3MAS24MagneticManufacturerInfoD2Ev
FN:608,608,_ZNK3MAS12CllcResonant20get_symmetric_designEv
FN:6080,6080,_ZNK3MAS24MagneticManufacturerInfo8get_costB5cxx11Ev
FN:6081,6081,_ZN3MAS24MagneticManufacturerInfo8set_costESt8optionalINSt7__cxx1112basic_stringIcSt11char_traitsIcESaIcEEEE
FN:6086,6086,_ZNK3MAS24MagneticManufacturerInfo17get_datasheet_urlB5cxx11Ev
FN:6087,6087,_ZN3MAS24MagneticManufacturerInfo17set_datasheet_urlESt8optionalINSt7__cxx1112basic_stringIcSt11char_traitsIcESaIcEEEE
FN:609,609,_ZN3MAS12CllcResonant20set_symmetric_designESt8optionalIbE
FN:6092,6092,_ZNK3MAS24MagneticManufacturerInfo15get_descriptionB5cxx11Ev
FN:6093,6093,_ZN3MAS24MagneticManufacturerInfo15set_descriptionESt8optionalINSt7__cxx1112basic_stringIcSt11char_traitsIcESaIcEEEE
FN:6098,6098,_ZNK3MAS24MagneticManufacturerInfo10get_familyB5cxx11Ev
FN:6099,6099,_ZN3MAS24MagneticManufacturerInfo10set_familyESt8optionalINSt7__cxx1112basic_stringIcSt11char_traitsIcESaIcEEEE
FN:6104,6104,_ZNK3MAS24MagneticManufacturerInfo8get_nameB5cxx11Ev
FN:6106,6106,_ZN3MAS24MagneticManufacturerInfo8set_nameERKNSt7__cxx1112basic_stringIcSt11char_traitsIcESaIcEEE
FN:6111,6111,_ZNK3MAS24MagneticManufacturerInfo14get_order_codeB5cxx11Ev
FN:6112,6112,_ZN3MAS24MagneticManufacturerInfo14set_order_codeESt8optionalINSt7__cxx1112basic_stringIcSt11char_traitsIcESaIcEEEE
FN:6114,6114,_ZNK3MAS24MagneticManufacturerInfo19get_recommendationsEv
FN:6115,6115,_ZN3MAS24MagneticManufacturerInfo19set_recommendationsESt8optionalINS_35MagneticManufacturerRecommendationsEE
FN:6120,6120,_ZNK3MAS24MagneticManufacturerInfo13get_referenceB5cxx11Ev
FN:6121,6121,_ZN3MAS24MagneticManufacturerInfo13set_referenceESt8optionalINSt7__cxx1112basic_stringIcSt11char_traitsIcESaIcEEEE
FN:6126,6126,_ZNK3MAS24MagneticManufacturerInfo10get_statusEv
FN:6127,6127,_ZN3MAS24MagneticManufacturerInfo10set_statusESt8optionalINS_6StatusEE
FN:6135,6135,_ZN3MAS8MagneticC2Ev
FN:6136,6136,_ZN3MAS8MagneticD0Ev
FN:6136,6136,_ZN3MAS8MagneticD2Ev
FN:6149,6149,_ZNK3MAS8Magnetic8get_coilEv
FN:6150,6150,_ZN3MAS8Magnetic16get_mutable_coilEv
FN:6151,6151,_ZN3MAS8Magnetic8set_coilERKNS_4CoilE
FN:6158,6158,_ZN3MAS8Magnetic8set_coreERKNS_12MagneticCoreE
FN:6163,6163,_ZNK3MAS8Magnetic21get_distributors_infoEv
FN:6164,6164,_ZN3MAS8Magnetic21set_distributors_infoESt8optionalISt6vectorINS_15DistributorInfoESaIS3_EEE
FN:6166,6166,_ZNK3MAS8Magnetic21get_manufacturer_infoEv
FN:6167,6167,_ZN3MAS8Magnetic21set_manufacturer_infoESt8optionalINS_24MagneticManufacturerInfoEE
FN:6172,6172,_ZNK3MAS8Magnetic12get_rotationEv
FN:6173,6173,_ZN3MAS8Magnetic12set_rotationESt8optionalISt6vectorIdSaIdEEE
FN:6188,6188,_ZN3MAS16CoreLossesOutputC2Ev
FN:6189,6189,_ZN3MAS16CoreLossesOutputD0Ev
FN:6189,6189,_ZN3MAS16CoreLossesOutputD2Ev
FN:6206,6206,_ZNK3MAS16CoreLossesOutput15get_core_lossesEv
FN:6208,6208,_ZN3MAS16CoreLossesOutput15set_core_lossesERKd
FN:6213,6213,_ZNK3MAS16CoreLossesOutput28get_eddy_current_core_lossesEv
FN:6214,6214,_ZN3MAS16CoreLossesOutput28set_eddy_current_core_lossesESt8optionalIdE
FN:6219,6219,_ZNK3MAS16CoreLossesOutput26get_hysteresis_core_lossesEv
FN:6220,6220,_ZN3MAS16CoreLossesOutput26set_hysteresis_core_lossesESt8optionalIdE
FN:6225,6225,_ZNK3MAS16CoreLossesOutput25get_magnetic_flux_densityEv
FN:6226,6226,_ZN3MAS16CoreLossesOutput25set_magnetic_flux_densityESt8optionalINS_16SignalDescriptorEE
FN:6231,6231,_ZNK3MAS16CoreLossesOutput15get_mass_lossesEv
FN:6232,6232,_ZN3MAS16CoreLossesOutput15set_mass_lossesESt8optionalIdE
FN:6238,6238,_ZNK3MAS16CoreLossesOutput15get_method_usedB5cxx11Ev
FN:624,624,_ZN3MAS18CurrentTransformerC2Ev
FN:6240,6240,_ZN3MAS16CoreLossesOutput15set_method_usedERKNSt7__cxx1112basic_stringIcSt11char_traitsIcESaIcEEE
FN:6242,6242,_ZNK3MAS16CoreLossesOutput10get_originEv
FN:6244,6244,_ZN3MAS16CoreLossesOutput10set_originERKNS_12ResultOriginE
FN:6249,6249,_ZNK3MAS16CoreLossesOutput15get_temperatureEv
FN:625,625,_ZN3MAS18CurrentTransformerD0Ev
FN:625,625,_ZN3MAS18CurrentTransformerD2Ev
FN:6251,6251,_ZN3MAS16CoreLossesOutput15set_temperatureERKd
FN:6256,6256,_ZNK3MAS16CoreLossesOutput21get_volumetric_lossesEv
FN:6257,6257,_ZN3MAS16CoreLossesOutput21set_volumetric_lossesESt8optionalIdE
FN:6262,6262,_ZN3MAS24ComplexMatrixAtFrequencyC2Ev
FN:6263,6263,_ZN3MAS24ComplexMatrixAtFrequencyD0Ev
FN:6263,6263,_ZN3MAS24ComplexMatrixAtFrequencyD2Ev
FN:6274,6274,_ZNK3MAS24ComplexMatrixAtFrequency13get_frequencyEv
FN:6276,6276,_ZN3MAS24ComplexMatrixAtFrequency13set_frequencyERKd
FN:6278,6278,_ZNK3MAS24ComplexMatrixAtFrequency13get_magnitudeB5cxx11Ev
FN:6279,6279,_ZN3MAS24ComplexMatrixAtFrequency21get_mutable_magnitudeB5cxx11Ev
FN:6280,6280,_ZN3MAS24ComplexMatrixAtFrequency13set_magnitudeERKSt3mapINSt7__cxx1112basic_stringIcSt11char_traitsIcESaIcEEES1_IS7_NS_22DimensionWithToleranceESt4lessIS7_ESaISt4pairIKS7_S8_EEESA_SaISB_ISC_SF_EEE
FN:6282,6282,_ZNK3MAS24ComplexMatrixAtFrequency9get_phaseB5cxx11Ev
FN:6284,6284,_ZN3MAS24ComplexMatrixAtFrequency9set_phaseERKSt3mapINSt7__cxx1112basic_stringIcSt11char_traitsIcESaIcEEES1_IS7_NS_22DimensionWithToleranceESt4lessIS7_ESaISt4pairIKS7_S8_EEESA_SaISB_ISC_SF_EEE
FN:6289,6289,_ZN3MAS23ScalarMatrixAtFrequencyC2Ev
FN:6290,6290,_ZN3MAS23ScalarMatrixAtFrequencyD0Ev
FN:6290,6290,_ZN3MAS23ScalarMatrixAtFrequencyD2Ev
FN:6300,6300,_ZNK3MAS23ScalarMatrixAtFrequency13get_frequencyEv
FN:6302,6302,_ZN3MAS23ScalarMatrixAtFrequency13set_frequencyERKd
FN:6304,6304,_ZNK3MAS23ScalarMatrixAtFrequency13get_magnitudeB5cxx11Ev
FN:6305,6305,_ZN3MAS23ScalarMatrixAtFrequency21get_mutable_magnitudeB5cxx11Ev
FN:6306,6306,_ZN3MAS23ScalarMatrixAtFrequency13set_magnitudeERKSt3mapINSt7__cxx1112basic_stringIcSt11char_traitsIcESaIcEEES1_IS7_NS_22DimensionWithToleranceESt4lessIS7_ESaISt4pairIKS7_S8_EEESA_SaISB_ISC_SF_EEE
FN:6316,6316,_ZN3MAS15ImpedanceOutputC2Ev
FN:6317,6317,_ZN3MAS15ImpedanceOutputD0Ev
FN:6317,6317,_ZN3MAS15ImpedanceOutputD2Ev
FN:6330,6330,_ZNK3MAS15ImpedanceOutput20get_impedance_matrixEv
FN:6331,6331,_ZN3MAS15ImpedanceOutput20set_impedance_matrixESt8optionalISt6vectorINS_24ComplexMatrixAtFrequencyESaIS3_EEE
FN:6336,6336,_ZNK3MAS15ImpedanceOutput21get_inductance_matrixEv
FN:6338,6338,_ZN3MAS15ImpedanceOutput21set_inductance_matrixERKSt6vectorINS_23ScalarMatrixAtFrequencyESaIS2_EE
FN:6344,6344,_ZNK3MAS15ImpedanceOutput15get_method_usedB5cxx11Ev
FN:6346,6346,_ZN3MAS15ImpedanceOutput15set_method_usedERKNSt7__cxx1112basic_stringIcSt11char_traitsIcESaIcEEE
FN:6348,6348,_ZNK3MAS15ImpedanceOutput10get_originEv
FN:6350,6350,_ZN3MAS15ImpedanceOutput10set_originERKNS_12ResultOriginE
FN:6355,6355,_ZNK3MAS15ImpedanceOutput21get_resistance_matrixEv
FN:6357,6357,_ZN3MAS15ImpedanceOutput21set_resistance_matrixERKSt6vectorINS_23ScalarMatrixAtFrequencyESaIS2_EE
FN:6365,6365,_ZN3MAS23LeakageInductanceOutputC2Ev
FN:6366,6366,_ZN3MAS23LeakageInductanceOutputD0Ev
FN:6366,6366,_ZN3MAS23LeakageInductanceOutputD2Ev
FN:6374,6374,_ZNK3MAS23LeakageInductanceOutput34get_leakage_inductance_per_windingEv
FN:6376,6376,_ZN3MAS23LeakageInductanceOutput34set_leakage_inductance_per_windingERKSt6vectorINS_22DimensionWithToleranceESaIS2_EE
FN:6382,6382,_ZNK3MAS23LeakageInductanceOutput15get_method_usedB5cxx11Ev
FN:6384,6384,_ZN3MAS23LeakageInductanceOutput15set_method_usedERKNSt7__cxx1112basic_stringIcSt11char_traitsIcESaIcEEE
FN:6386,6386,_ZNK3MAS23LeakageInductanceOutput10get_originEv
FN:6388,6388,_ZN3MAS23LeakageInductanceOutput10set_originERKNS_12ResultOriginE
FN:6396,6396,_ZN3MAS22AirGapReluctanceOutputC2Ev
FN:6397,6397,_ZN3MAS22AirGapReluctanceOutputD0Ev
FN:6397,6397,_ZN3MAS22AirGapReluctanceOutputD2Ev
FN:640,640,_ZNK3MAS18CurrentTransformer23get_ambient_temperatureEv
FN:6410,6410,_ZNK3MAS22AirGapReluctanceOutput19get_fringing_factorEv
FN:6412,6412,_ZN3MAS22AirGapReluctanceOutput19set_fringing_factorERKd
FN:6417,6417,_ZNK3MAS22AirGapReluctanceOutput36get_maximum_storable_magnetic_energyEv
FN:6419,6419,_ZN3MAS22AirGapReluctanceOutput36set_maximum_storable_magnetic_energyERKd
FN:642,642,_ZN3MAS18CurrentTransformer23set_ambient_temperatureERKd
FN:6425,6425,_ZNK3MAS22AirGapReluctanceOutput15get_method_usedB5cxx11Ev
FN:6427,6427,_ZN3MAS22AirGapReluctanceOutput15set_method_usedERKNSt7__cxx1112basic_stringIcSt11char_traitsIcESaIcEEE
FN:6429,6429,_ZNK3MAS22AirGapReluctanceOutput10get_originEv
FN:6431,6431,_ZN3MAS22AirGapReluctanceOutput10set_originERKNS_12ResultOriginE
FN:6436,6436,_ZNK3MAS22AirGapReluctanceOutput14get_reluctanceEv
FN:6438,6438,_ZN3MAS22AirGapReluctanceOutput14set_reluctanceERKd
FN:6447,6447,_ZN3MAS27MagnetizingInductanceOutputC2Ev
FN:6448,6448,_ZN3MAS27MagnetizingInductanceOutputD0Ev
FN:6448,6448,_ZN3MAS27MagnetizingInductanceOutputD2Ev
FN:6466,6466,_ZNK3MAS27MagnetizingInductanceOutput19get_core_reluctanceEv
FN:6468,6468,_ZN3MAS27MagnetizingInductanceOutput19set_core_reluctanceERKd
FN:647,647,_ZNK3MAS18CurrentTransformer19get_burden_resistorEv
FN:6473,6473,_ZNK3MAS27MagnetizingInductanceOutput22get_gapping_reluctanceEv
FN:6474,6474,_ZN3MAS27MagnetizingInductanceOutput22set_gapping_reluctanceESt8optionalIdE
FN:6479,6479,_ZNK3MAS27MagnetizingInductanceOutput26get_magnetizing_inductanceEv
FN:6481,6481,_ZN3MAS27MagnetizingInductanceOutput26set_magnetizing_inductanceERKNS_22DimensionWithToleranceE
FN:6486,6486,_ZNK3MAS27MagnetizingInductanceOutput27get_maximum_fringing_factorEv
FN:6487,6487,_ZN3MAS27MagnetizingInductanceOutput27set_maximum_fringing_factorESt8optionalIdE
FN:649,649,_ZN3MAS18CurrentTransformer19set_burden_resistorERKd
FN:6492,6492,_ZNK3MAS27MagnetizingInductanceOutput32get_maximum_magnetic_energy_coreEv
FN:6493,6493,_ZN3MAS27MagnetizingInductanceOutput32set_maximum_magnetic_energy_coreESt8optionalIdE
FN:6498,6498,_ZNK3MAS27MagnetizingInductanceOutput44get_maximum_storable_magnetic_energy_gappingEv
FN:6499,6499,_ZN3MAS27MagnetizingInductanceOutput44set_maximum_storable_magnetic_energy_gappingESt8optionalIdE
FN:6505,6505,_ZNK3MAS27MagnetizingInductanceOutput15get_method_usedB5cxx11Ev
FN:6507,6507,_ZN3MAS27MagnetizingInductanceOutput15set_method_usedERKNSt7__cxx1112basic_stringIcSt11char_traitsIcESaIcEEE
FN:6509,6509,_ZNK3MAS27MagnetizingInductanceOutput10get_originEv
FN:6511,6511,_ZN3MAS27MagnetizingInductanceOutput10set_originERKNS_12ResultOriginE
FN:6516,6516,_ZNK3MAS27MagnetizingInductanceOutput22get_reluctance_per_gapEv
FN:6517,6517,_ZN3MAS27MagnetizingInductanceOutput22set_reluctance_per_gapESt8optionalISt6vectorINS_22AirGapReluctanceOutputESaIS3_EEE
FN:6522,6522,_ZNK3MAS27MagnetizingInductanceOutput28get_ungapped_core_reluctanceEv
FN:6523,6523,_ZN3MAS27MagnetizingInductanceOutput28set_ungapped_core_reluctanceESt8optionalIdE
FN:6533,6533,_ZN3MAS16InductanceOutputC2Ev
FN:6534,6534,_ZN3MAS16InductanceOutputD0Ev
FN:6534,6534,_ZN3MAS16InductanceOutputD2Ev
FN:654,654,_ZNK3MAS18CurrentTransformer22get_diode_voltage_dropEv
FN:6546,6546,_ZNK3MAS16InductanceOutput32get_coupling_coefficients_matrixEv
FN:6547,6547,_ZN3MAS16InductanceOutput32set_coupling_coefficients_matrixESt8optionalISt6vectorINS_23ScalarMatrixAtFrequencyESaIS3_EEE
FN:6552,6552,_ZNK3MAS16InductanceOutput21get_inductance_matrixEv
FN:6553,6553,_ZN3MAS16InductanceOutput21set_inductance_matrixESt8optionalISt6vectorINS_23ScalarMatrixAtFrequencyESaIS3_EEE
FN:6555,6555,_ZNK3MAS16InductanceOutput22get_leakage_inductanceEv
FN:6556,6556,_ZN3MAS16InductanceOutput22set_leakage_inductanceESt8optionalINS_23LeakageInductanceOutputEE
FN:6558,6558,_ZNK3MAS16InductanceOutput26get_magnetizing_inductanceEv
FN:656,656,_ZN3MAS18CurrentTransformer22set_diode_voltage_dropERKd
FN:6560,6560,_ZN3MAS16InductanceOutput26set_magnetizing_inductanceERKNS_27MagnetizingInductanceOutputE
FN:6575,6575,_ZN3MAS17DielectricVoltageC2Ev
FN:6576,6576,_ZN3MAS17DielectricVoltageD0Ev
FN:6576,6576,_ZN3MAS17DielectricVoltageD2Ev
FN:6589,6589,_ZNK3MAS17DielectricVoltage12get_durationEv
FN:6590,6590,_ZN3MAS17DielectricVoltage12set_durationESt8optionalIdE
FN:6596,6596,_ZNK3MAS17DielectricVoltage15get_method_usedB5cxx11Ev
FN:6597,6597,_ZN3MAS17DielectricVoltage15set_method_usedESt8optionalINSt7__cxx1112basic_stringIcSt11char_traitsIcESaIcEEEE
FN:6602,6602,_ZNK3MAS17DielectricVoltage10get_originEv
FN:6604,6604,_ZN3MAS17DielectricVoltage10set_originERKNS_12ResultOriginE
FN:6609,6609,_ZNK3MAS17DielectricVoltage11get_voltageEv
FN:661,661,_ZNK3MAS18CurrentTransformer13get_frequencyEv
FN:6611,6611,_ZN3MAS17DielectricVoltage11set_voltageERKd
FN:6616,6616,_ZNK3MAS17DielectricVoltage16get_voltage_typeEv
FN:6618,6618,_ZN3MAS17DielectricVoltage16set_voltage_typeERKNS_11VoltageTypeE
FN:6628,6632,_ZN3MAS28InsulationCoordinationOutputC2Ev
FN:663,663,_ZN3MAS18CurrentTransformer13set_frequencyERKd
FN:6633,6633,_ZN3MAS28InsulationCoordinationOutputD0Ev
FN:6633,6633,_ZN3MAS28InsulationCoordinationOutputD2Ev
FN:6650,6650,_ZNK3MAS28InsulationCoordinationOutput13get_clearanceEv
FN:6652,6652,_ZN3MAS28InsulationCoordinationOutput13set_clearanceERKd
FN:6657,6657,_ZNK3MAS28InsulationCoordinationOutput21get_creepage_distanceEv
FN:6659,6659,_ZN3MAS28InsulationCoordinationOutput21set_creepage_distanceERKd
FN:6664,6664,_ZNK3MAS28InsulationCoordinationOutput31get_distance_through_insulationEv
FN:6666,6666,_ZN3MAS28InsulationCoordinationOutput31set_distance_through_insulationERKd
FN:6671,6671,_ZNK3MAS28InsulationCoordinationOutput21get_withstand_voltageEv
FN:6673,6673,_ZN3MAS28InsulationCoordinationOutput21set_withstand_voltageERKd
FN:6678,6678,_ZNK3MAS28InsulationCoordinationOutput30get_withstand_voltage_durationEv
FN:6679,6679,_ZN3MAS28InsulationCoordinationOutput30set_withstand_voltage_durationESt8optionalIdE
FN:668,668,_ZNK3MAS18CurrentTransformer22get_maximum_duty_cycleEv
FN:6684,6684,_ZNK3MAS28InsulationCoordinationOutput26get_withstand_voltage_typeEv
FN:6685,6685,_ZN3MAS28InsulationCoordinationOutput26set_withstand_voltage_typeESt8optionalINS_11VoltageTypeEE
FN:6690,6690,_ZN3MAS29SixCapacitorNetworkPerWindingC2Ev
FN:6691,6691,_ZN3MAS29SixCapacitorNetworkPerWindingD0Ev
FN:6691,6691,_ZN3MAS29SixCapacitorNetworkPerWindingD2Ev
FN:670,670,_ZN3MAS18CurrentTransformer22set_maximum_duty_cycleERKd
FN:6702,6702,_ZNK3MAS29SixCapacitorNetworkPerWinding6get_c1Ev
FN:6704,6704,_ZN3MAS29SixCapacitorNetworkPerWinding6set_c1ERKd
FN:6706,6706,_ZNK3MAS29SixCapacitorNetworkPerWinding6get_c2Ev
FN:6708,6708,_ZN3MAS29SixCapacitorNetworkPerWinding6set_c2ERKd
FN:6710,6710,_ZNK3MAS29SixCapacitorNetworkPerWinding6get_c3Ev
FN:6712,6712,_ZN3MAS29SixCapacitorNetworkPerWinding6set_c3ERKd
FN:6714,6714,_ZNK3MAS29SixCapacitorNetworkPerWinding6get_c4Ev
FN:6716,6716,_ZN3MAS29SixCapacitorNetworkPerWinding6set_c4ERKd
FN:6718,6718,_ZNK3MAS29SixCapacitorNetworkPerWinding6get_c5Ev
FN:6720,6720,_ZN3MAS29SixCapacitorNetworkPerWinding6set_c5ERKd
FN:6722,6722,_ZNK3MAS29SixCapacitorNetworkPerWinding6get_c6Ev
FN:6724,6724,_ZN3MAS29SixCapacitorNetworkPerWinding6set_c6ERKd
FN:6729,6729,_ZN3MAS28TripoleCapacitancePerWindingC2Ev
FN:6730,6730,_ZN3MAS28TripoleCapacitancePerWindingD0Ev
FN:6730,6730,_ZN3MAS28TripoleCapacitancePerWindingD2Ev
FN:6738,6738,_ZNK3MAS28TripoleCapacitancePerWinding6get_c1Ev
FN:6740,6740,_ZN3MAS28TripoleCapacitancePerWinding6set_c1ERKd
FN:6742,6742,_ZNK3MAS28TripoleCapacitancePerWinding6get_c2Ev
FN:6744,6744,_ZN3MAS28TripoleCapacitancePerWinding6set_c2ERKd
FN:6746,6746,_ZNK3MAS28TripoleCapacitancePerWinding6get_c3Ev
FN:6748,6748,_ZN3MAS28TripoleCapacitancePerWinding6set_c3ERKd
FN:675,675,_ZNK3MAS18CurrentTransformer32get_maximum_primary_current_peakEv
FN:6758,6758,_ZN3MAS22StrayCapacitanceOutputC2Ev
FN:6759,6759,_ZN3MAS22StrayCapacitanceOutputD0Ev
FN:6759,6759,_ZN3MAS22StrayCapacitanceOutputD2Ev
FN:677,677,_ZN3MAS18CurrentTransformer32set_maximum_primary_current_peakERKd
FN:6780,6780,_ZNK3MAS22StrayCapacitanceOutput27get_capacitance_among_turnsB5cxx11Ev
FN:6781,6781,_ZN3MAS22StrayCapacitanceOutput27set_capacitance_among_turnsESt8optionalISt3mapINSt7__cxx1112basic_stringIcSt11char_traitsIcESaIcEEES2_IS8_dSt4lessIS8_ESaISt4pairIKS8_dEEESA_SaISB_ISC_SF_EEEE
FN:6786,6786,_ZNK3MAS22StrayCapacitanceOutput30get_capacitance_among_windingsB5cxx11Ev
FN:6787,6787,_ZN3MAS22StrayCapacitanceOutput30set_capacitance_among_windingsESt8optionalISt3mapINSt7__cxx1112basic_stringIcSt11char_traitsIcESaIcEEES2_IS8_dSt4lessIS8_ESaISt4pairIKS8_dEEESA_SaISB_ISC_SF_EEEE
FN:6792,6792,_ZNK3MAS22StrayCapacitanceOutput22get_capacitance_matrixB5cxx11Ev
FN:6793,6793,_ZN3MAS22StrayCapacitanceOutput22set_capacitance_matrixESt8optionalISt3mapINSt7__cxx1112basic_stringIcSt11char_traitsIcESaIcEEES2_IS8_NS_23ScalarMatrixAtFrequencyESt4lessIS8_ESaISt4pairIKS8_S9_EEESB_SaISC_ISD_SG_EEEE
FN:6798,6798,_ZNK3MAS22StrayCapacitanceOutput31get_electric_energy_among_turnsB5cxx11Ev
FN:6799,6799,_ZN3MAS22StrayCapacitanceOutput31set_electric_energy_among_turnsESt8optionalISt3mapINSt7__cxx1112basic_stringIcSt11char_traitsIcESaIcEEES2_IS8_dSt4lessIS8_ESaISt4pairIKS8_dEEESA_SaISB_ISC_SF_EEEE
FN:6804,6804,_ZNK3MAS22StrayCapacitanceOutput30get_maxwell_capacitance_matrixEv
FN:6805,6805,_ZN3MAS22StrayCapacitanceOutput30set_maxwell_capacitance_matrixESt8optionalISt6vectorINS_23ScalarMatrixAtFrequencyESaIS3_EEE
FN:6811,6811,_ZNK3MAS22StrayCapacitanceOutput15get_method_usedB5cxx11Ev
FN:6813,6813,_ZN3MAS22StrayCapacitanceOutput15set_method_usedERKNSt7__cxx1112basic_stringIcSt11char_traitsIcESaIcEEE
FN:6818,6818,_ZNK3MAS22StrayCapacitanceOutput10get_originEv
FN:682,682,_ZNK3MAS18CurrentTransformer18get_waveform_labelEv
FN:6820,6820,_ZN3MAS22StrayCapacitanceOutput10set_originERKNS_12ResultOriginE
FN:6826,6826,_ZNK3MAS22StrayCapacitanceOutput37get_six_capacitor_network_per_windingB5cxx11Ev
FN:6827,6827,_ZN3MAS22StrayCapacitanceOutput37set_six_capacitor_network_per_windingESt8optionalISt3mapINSt7__cxx1112basic_stringIcSt11char_traitsIcESaIcEEES2_IS8_NS_29SixCapacitorNetworkPerWindingESt4lessIS8_ESaISt4pairIKS8_S9_EEESB_SaISC_ISD_SG_EEEE
FN:6833,6833,_ZNK3MAS22StrayCapacitanceOutput35get_tripole_capacitance_per_windingB5cxx11Ev
FN:6834,6834,_ZN3MAS22StrayCapacitanceOutput35set_tripole_capacitance_per_windingESt8optionalISt3mapINSt7__cxx1112basic_stringIcSt11char_traitsIcESaIcEEES2_IS8_NS_28TripoleCapacitancePerWindingESt4lessIS8_ESaISt4pairIKS8_S9_EEESB_SaISC_ISD_SG_EEEE
FN:6839,6839,_ZNK3MAS22StrayCapacitanceOutput32get_voltage_divider_end_per_turnEv
FN:684,684,_ZN3MAS18CurrentTransformer18set_waveform_labelERKNS_13WaveformLabelE
FN:6840,6840,_ZN3MAS22StrayCapacitanceOutput32set_voltage_divider_end_per_turnESt8optionalISt6vectorIdSaIdEEE
FN:6845,6845,_ZNK3MAS22StrayCapacitanceOutput34get_voltage_divider_start_per_turnEv
FN:6846,6846,_ZN3MAS22StrayCapacitanceOutput34set_voltage_divider_start_per_turnESt8optionalISt6vectorIdSaIdEEE
FN:6851,6851,_ZNK3MAS22StrayCapacitanceOutput28get_voltage_drop_among_turnsB5cxx11Ev
FN:6852,6852,_ZN3MAS22StrayCapacitanceOutput28set_voltage_drop_among_turnsESt8optionalISt3mapINSt7__cxx1112basic_stringIcSt11char_traitsIcESaIcEEES2_IS8_dSt4lessIS8_ESaISt4pairIKS8_dEEESA_SaISB_ISC_SF_EEEE
FN:6857,6857,_ZNK3MAS22StrayCapacitanceOutput20get_voltage_per_turnEv
FN:6858,6858,_ZN3MAS22StrayCapacitanceOutput20set_voltage_per_turnESt8optionalISt6vectorIdSaIdEEE
FN:6863,6863,_ZN3MAS16TemperaturePointC2Ev
FN:6864,6864,_ZN3MAS16TemperaturePointD0Ev
FN:6864,6864,_ZN3MAS16TemperaturePointD2Ev
FN:6874,6874,_ZNK3MAS16TemperaturePoint15get_coordinatesEv
FN:6876,6876,_ZN3MAS16TemperaturePoint15set_coordinatesERKSt6vectorIdSaIdEE
FN:6881,6881,_ZNK3MAS16TemperaturePoint9get_valueEv
FN:6883,6883,_ZN3MAS16TemperaturePoint9set_valueERKd
FN:6893,6893,_ZN3MAS17TemperatureOutputC2Ev
FN:6894,6894,_ZN3MAS17TemperatureOutputD0Ev
FN:6894,6894,_ZN3MAS17TemperatureOutputD2Ev
FN:6908,6908,_ZNK3MAS17TemperatureOutput27get_bulk_thermal_resistanceEv
FN:6909,6909,_ZN3MAS17TemperatureOutput27set_bulk_thermal_resistanceESt8optionalIdE
FN:6915,6915,_ZNK3MAS17TemperatureOutput23get_initial_temperatureEv
FN:6916,6916,_ZN3MAS17TemperatureOutput23set_initial_temperatureESt8optionalIdE
FN:6921,6921,_ZNK3MAS17TemperatureOutput23get_maximum_temperatureEv
FN:6923,6923,_ZN3MAS17TemperatureOutput23set_maximum_temperatureERKd
FN:6929,6929,_ZNK3MAS17TemperatureOutput15get_method_usedB5cxx11Ev
FN:6931,6931,_ZN3MAS17TemperatureOutput15set_method_usedERKNSt7__cxx1112basic_stringIcSt11char_traitsIcESaIcEEE
FN:6933,6933,_ZNK3MAS17TemperatureOutput10get_originEv
FN:6935,6935,_ZN3MAS17TemperatureOutput10set_originERKNS_12ResultOriginE
FN:6937,6937,_ZNK3MAS17TemperatureOutput21get_temperature_pointEv
FN:6938,6938,_ZN3MAS17TemperatureOutput21set_temperature_pointESt8optionalINS_16TemperaturePointEE
FN:6946,6946,_ZN3MAS11OhmicLossesC2Ev
FN:6947,6947,_ZN3MAS11OhmicLossesD0Ev
FN:6947,6947,_ZN3MAS11OhmicLossesD2Ev
FN:6958,6958,_ZNK3MAS11OhmicLosses10get_lossesEv
FN:6959,6959,_ZN3MAS11OhmicLosses18get_mutable_lossesEv
FN:6960,6960,_ZN3MAS11OhmicLosses10set_lossesERKd
FN:6966,6966,_ZNK3MAS11OhmicLosses15get_method_usedB5cxx11Ev
FN:6967,6967,_ZN3MAS11OhmicLosses15set_method_usedESt8optionalINSt7__cxx1112basic_stringIcSt11char_traitsIcESaIcEEEE
FN:6972,6972,_ZNK3MAS11OhmicLosses10get_originEv
FN:6974,6974,_ZN3MAS11OhmicLosses10set_originERKNS_12ResultOriginE
FN:6987,6987,_ZN3MAS18WindingLossElementC2Ev
FN:6988,6988,_ZN3MAS18WindingLossElementD0Ev
FN:6988,6988,_ZN3MAS18WindingLossElementD2Ev
FN:70,70,_ZN3MAS22ClassMemberConstraintsD0Ev
FN:70,70,_ZN3MAS22ClassMemberConstraintsD2Ev
FN:7000,7000,_ZNK3MAS18WindingLossElement24get_harmonic_frequenciesEv
FN:7001,7001,_ZN3MAS18WindingLossElement32get_mutable_harmonic_frequenciesEv
FN:7002,7002,_ZN3MAS18WindingLossElement24set_harmonic_frequenciesERKSt6vectorIdSaIdEE
FN:7007,7007,_ZNK3MAS18WindingLossElement23get_losses_per_harmonicEv
FN:7008,7008,_ZN3MAS18WindingLossElement31get_mutable_losses_per_harmonicEv
FN:7009,7009,_ZN3MAS18WindingLossElement23set_losses_per_harmonicERKSt6vectorIdSaIdEE
FN:7015,7015,_ZNK3MAS18WindingLossElement15get_method_usedB5cxx11Ev
FN:7017,7017,_ZN3MAS18WindingLossElement15set_method_usedERKNSt7__cxx1112basic_stringIcSt11char_traitsIcESaIcEEE
FN:7019,7019,_ZNK3MAS18WindingLossElement10get_originEv
FN:7021,7021,_ZN3MAS18WindingLossElement10set_originERKNS_12ResultOriginE
FN:7027,7027,_ZN3MAS23WindingLossesPerElementD0Ev
FN:7027,7027,_ZN3MAS23WindingLossesPerElementD2Ev
FN:7039,7039,_ZNK3MAS23WindingLossesPerElement8get_nameB5cxx11Ev
FN:7040,7040,_ZN3MAS23WindingLossesPerElement8set_nameESt8optionalINSt7__cxx1112basic_stringIcSt11char_traitsIcESaIcEEEE
FN:7045,7045,_ZNK3MAS23WindingLossesPerElement16get_ohmic_lossesEv
FN:7046,7046,_ZN3MAS23WindingLossesPerElement16set_ohmic_lossesESt8optionalINS_11OhmicLossesEE
FN:705,705,_ZN3MAS17DabOperatingPointC2Ev
FN:7051,7051,_ZNK3MAS23WindingLossesPerElement27get_proximity_effect_lossesEv
FN:7052,7052,_ZN3MAS23WindingLossesPerElement27set_proximity_effect_lossesESt8optionalINS_18WindingLossElementEE
FN:7057,7057,_ZNK3MAS23WindingLossesPerElement22get_skin_effect_lossesEv
FN:7058,7058,_ZN3MAS23WindingLossesPerElement22set_skin_effect_lossesESt8optionalINS_18WindingLossElementEE
FN:706,706,_ZN3MAS17DabOperatingPointD0Ev
FN:706,706,_ZN3MAS17DabOperatingPointD2Ev
FN:7068,7068,_ZN3MAS19WindingLossesOutputC2Ev
FN:7069,7069,_ZN3MAS19WindingLossesOutputD0Ev
FN:7069,7069,_ZN3MAS19WindingLossesOutputD2Ev
FN:7090,7090,_ZNK3MAS19WindingLossesOutput28get_current_divider_per_turnEv
FN:7091,7091,_ZN3MAS19WindingLossesOutput28set_current_divider_per_turnESt8optionalISt6vectorIdSaIdEEE
FN:7096,7096,_ZNK3MAS19WindingLossesOutput23get_current_per_windingEv
FN:7097,7097,_ZN3MAS19WindingLossesOutput23set_current_per_windingESt8optionalINS_14OperatingPointEE
FN:7102,7102,_ZNK3MAS19WindingLossesOutput26get_dc_resistance_per_turnEv
FN:7103,7103,_ZN3MAS19WindingLossesOutput26set_dc_resistance_per_turnESt8optionalISt6vectorIdSaIdEEE
FN:7108,7108,_ZNK3MAS19WindingLossesOutput29get_dc_resistance_per_windingEv
FN:7109,7109,_ZN3MAS19WindingLossesOutput29set_dc_resistance_per_windingESt8optionalISt6vectorIdSaIdEEE
FN:7115,7115,_ZNK3MAS19WindingLossesOutput15get_method_usedB5cxx11Ev
FN:7117,7117,_ZN3MAS19WindingLossesOutput15set_method_usedERKNSt7__cxx1112basic_stringIcSt11char_traitsIcESaIcEEE
FN:7119,7119,_ZNK3MAS19WindingLossesOutput10get_originEv
FN:7121,7121,_ZN3MAS19WindingLossesOutput10set_originERKNS_12ResultOriginE
FN:7126,7126,_ZNK3MAS19WindingLossesOutput21get_resistance_matrixEv
FN:7127,7127,_ZN3MAS19WindingLossesOutput21set_resistance_matrixESt8optionalISt6vectorINS_23ScalarMatrixAtFrequencyESaIS3_EEE
FN:7132,7132,_ZNK3MAS19WindingLossesOutput15get_temperatureEv
FN:7133,7133,_ZN3MAS19WindingLossesOutput15set_temperatureESt8optionalIdE
FN:7138,7138,_ZNK3MAS19WindingLossesOutput18get_winding_lossesEv
FN:7140,7140,_ZN3MAS19WindingLossesOutput18set_winding_lossesERKd
FN:7142,7142,_ZNK3MAS19WindingLossesOutput28get_winding_losses_per_layerEv
FN:7143,7143,_ZN3MAS19WindingLossesOutput28set_winding_losses_per_layerESt8optionalISt6vectorINS_23WindingLossesPerElementESaIS3_EEE
FN:7145,7145,_ZNK3MAS19WindingLossesOutput30get_winding_losses_per_sectionEv
FN:7146,7146,_ZN3MAS19WindingLossesOutput30set_winding_losses_per_sectionESt8optionalISt6vectorINS_23WindingLossesPerElementESaIS3_EEE
FN:7148,7148,_ZNK3MAS19WindingLossesOutput27get_winding_losses_per_turnEv
FN:7149,7149,_ZN3MAS19WindingLossesOutput27set_winding_losses_per_turnESt8optionalISt6vectorINS_23WindingLossesPerElementESaIS3_EEE
FN:7151,7151,_ZNK3MAS19WindingLossesOutput30get_winding_losses_per_windingEv
FN:7152,7152,_ZN3MAS19WindingLossesOutput30set_winding_losses_per_windingESt8optionalISt6vectorINS_23WindingLossesPerElementESaIS3_EEE
FN:7160,7160,_ZN3MAS10FieldPointC2Ev
FN:7161,7161,_ZN3MAS10FieldPointD0Ev
FN:7161,7161,_ZN3MAS10FieldPointD2Ev
FN:7175,7175,_ZNK3MAS10FieldPoint9get_labelB5cxx11Ev
FN:7176,7176,_ZN3MAS10FieldPoint9set_labelESt8optionalINSt7__cxx1112basic_stringIcSt11char_traitsIcESaIcEEEE
FN:7181,7181,_ZNK3MAS10FieldPoint9get_pointEv
FN:7183,7183,_ZN3MAS10FieldPoint9set_pointERKSt6vectorIdSaIdEE
FN:7188,7188,_ZNK3MAS10FieldPoint12get_rotationEv
FN:7189,7189,_ZN3MAS10FieldPoint12set_rotationESt8optionalIdE
FN:7194,7194,_ZNK3MAS10FieldPoint14get_turn_indexEv
FN:7195,7195,_ZN3MAS10FieldPoint14set_turn_indexESt8optionalIlE
FN:7200,7200,_ZNK3MAS10FieldPoint15get_turn_lengthEv
FN:7201,7201,_ZN3MAS10FieldPoint15set_turn_lengthESt8optionalIdE
FN:7206,7206,_ZNK3MAS10FieldPoint9get_valueEv
FN:7208,7208,_ZN3MAS10FieldPoint9set_valueERKd
FN:7216,7216,_ZN3MAS5FieldC2Ev
FN:7217,7217,_ZN3MAS5FieldD0Ev
FN:7217,7217,_ZN3MAS5FieldD2Ev
FN:722,722,_ZNK3MAS17DabOperatingPoint23get_ambient_temperatureEv
FN:7227,7227,_ZNK3MAS5Field8get_dataEv
FN:7228,7228,_ZN3MAS5Field16get_mutable_dataEv
FN:7229,7229,_ZN3MAS5Field8set_dataERKSt6vectorINS_10FieldPointESaIS2_EE
FN:7234,7234,_ZNK3MAS5Field13get_frequencyEv
FN:7236,7236,_ZN3MAS5Field13set_frequencyERKd
FN:724,724,_ZN3MAS17DabOperatingPoint23set_ambient_temperatureERKd
FN:7246,7246,_ZN3MAS38WindingWindowCurrentDensityFieldOutputC2Ev
FN:7247,7247,_ZN3MAS38WindingWindowCurrentDensityFieldOutputD0Ev
FN:7247,7247,_ZN3MAS38WindingWindowCurrentDensityFieldOutputD2Ev
FN:7256,7256,_ZNK3MAS38WindingWindowCurrentDensityFieldOutput23get_field_per_frequencyEv
FN:7258,7258,_ZN3MAS38WindingWindowCurrentDensityFieldOutput23set_field_per_frequencyERKSt6vectorINS_5FieldESaIS2_EE
FN:7263,7263,_ZNK3MAS38WindingWindowCurrentDensityFieldOutput15get_method_usedB5cxx11Ev
FN:7265,7265,_ZN3MAS38WindingWindowCurrentDensityFieldOutput15set_method_usedERKNSt7__cxx1112basic_stringIcSt11char_traitsIcESaIcEEE
FN:7267,7267,_ZNK3MAS38WindingWindowCurrentDensityFieldOutput10get_originEv
FN:7269,7269,_ZN3MAS38WindingWindowCurrentDensityFieldOutput10set_originERKNS_12ResultOriginE
FN:7271,7271,_ZNK3MAS38WindingWindowCurrentDensityFieldOutput9get_wiresB5cxx11Ev
FN:7273,7273,_ZN3MAS38WindingWindowCurrentDensityFieldOutput9set_wiresERKSt6vectorISt7variantIJNS_4WireENSt7__cxx1112basic_stringIcSt11char_traitsIcESaIcEEEEESaISA_EE
FN:7283,7283,_ZN3MAS31WindingWindowCurrentFieldOutputC2Ev
FN:7284,7284,_ZN3MAS31WindingWindowCurrentFieldOutputD0Ev
FN:7284,7284,_ZN3MAS31WindingWindowCurrentFieldOutputD2Ev
FN:7292,7292,_ZNK3MAS31WindingWindowCurrentFieldOutput23get_field_per_frequencyEv
FN:7294,7294,_ZN3MAS31WindingWindowCurrentFieldOutput23set_field_per_frequencyERKSt6vectorINS_5FieldESaIS2_EE
FN:7299,7299,_ZNK3MAS31WindingWindowCurrentFieldOutput15get_method_usedB5cxx11Ev
FN:73,73,_ZNK3MAS22ClassMemberConstraints17get_min_int_valueEv
FN:730,730,_ZNK3MAS17DabOperatingPoint22get_inner_phase_shift1Ev
FN:7301,7301,_ZN3MAS31WindingWindowCurrentFieldOutput15set_method_usedERKNSt7__cxx1112basic_stringIcSt11char_traitsIcESaIcEEE
FN:7303,7303,_ZNK3MAS31WindingWindowCurrentFieldOutput10get_originEv
FN:7305,7305,_ZN3MAS31WindingWindowCurrentFieldOutput10set_originERKNS_12ResultOriginE
FN:731,731,_ZN3MAS17DabOperatingPoint22set_inner_phase_shift1ESt8optionalIdE
FN:7313,7313,_ZN3MAS17ComplexFieldPointC2Ev
FN:7314,7314,_ZN3MAS17ComplexFieldPointD0Ev
FN:7314,7314,_ZN3MAS17ComplexFieldPointD2Ev
FN:7328,7328,_ZNK3MAS17ComplexFieldPoint13get_imaginaryEv
FN:7330,7330,_ZN3MAS17ComplexFieldPoint13set_imaginaryERKd
FN:7335,7335,_ZNK3MAS17ComplexFieldPoint9get_labelB5cxx11Ev
FN:7336,7336,_ZN3MAS17ComplexFieldPoint9set_labelESt8optionalINSt7__cxx1112basic_stringIcSt11char_traitsIcESaIcEEEE
FN:7341,7341,_ZNK3MAS17ComplexFieldPoint9get_pointEv
FN:7343,7343,_ZN3MAS17ComplexFieldPoint9set_pointERKSt6vectorIdSaIdEE
FN:7348,7348,_ZNK3MAS17ComplexFieldPoint8get_realEv
FN:7350,7350,_ZN3MAS17ComplexFieldPoint8set_realERKd
FN:7355,7355,_ZNK3MAS17ComplexFieldPoint14get_turn_indexEv
FN:7356,7356,_ZN3MAS17ComplexFieldPoint14set_turn_indexESt8optionalIlE
FN:7361,7361,_ZNK3MAS17ComplexFieldPoint15get_turn_lengthEv
FN:7362,7362,_ZN3MAS17ComplexFieldPoint15set_turn_lengthESt8optionalIdE
FN:7370,7370,_ZN3MAS12ComplexFieldC2Ev
FN:7371,7371,_ZN3MAS12ComplexFieldD0Ev
FN:7371,7371,_ZN3MAS12ComplexFieldD2Ev
FN:738,738,_ZNK3MAS17DabOperatingPoint22get_inner_phase_shift2Ev
FN:7381,7381,_ZNK3MAS12ComplexField8get_dataEv
FN:7382,7382,_ZN3MAS12ComplexField16get_mutable_dataEv
FN:7383,7383,_ZN3MAS12ComplexField8set_dataERKSt6vectorINS_17ComplexFieldPointESaIS2_EE
FN:7388,7388,_ZNK3MAS12ComplexField13get_frequencyEv
FN:739,739,_ZN3MAS17DabOperatingPoint22set_inner_phase_shift2ESt8optionalIdE
FN:7390,7390,_ZN3MAS12ComplexField13set_frequencyERKd
FN:7398,7398,_ZN3MAS40WindingWindowMagneticStrengthFieldOutputC2Ev
FN:7399,7399,_ZN3MAS40WindingWindowMagneticStrengthFieldOutputD0Ev
FN:7399,7399,_ZN3MAS40WindingWindowMagneticStrengthFieldOutputD2Ev
FN:7407,7407,_ZNK3MAS40WindingWindowMagneticStrengthFieldOutput23get_field_per_frequencyEv
FN:7409,7409,_ZN3MAS40WindingWindowMagneticStrengthFieldOutput23set_field_per_frequencyERKSt6vectorINS_12ComplexFieldESaIS2_EE
FN:7414,7414,_ZNK3MAS40WindingWindowMagneticStrengthFieldOutput15get_method_usedB5cxx11Ev
FN:7416,7416,_ZN3MAS40WindingWindowMagneticStrengthFieldOutput15set_method_usedERKNSt7__cxx1112basic_stringIcSt11char_traitsIcESaIcEEE
FN:7418,7418,_ZNK3MAS40WindingWindowMagneticStrengthFieldOutput10get_originEv
FN:7420,7420,_ZN3MAS40WindingWindowMagneticStrengthFieldOutput10set_originERKNS_12ResultOriginE
FN:7428,7428,_ZN3MAS7OutputsC2Ev
FN:7429,7429,_ZN3MAS7OutputsD0Ev
FN:7429,7429,_ZN3MAS7OutputsD2Ev
FN:7448,7448,_ZNK3MAS7Outputs15get_core_lossesEv
FN:7449,7449,_ZN3MAS7Outputs15set_core_lossesESt8optionalINS_16CoreLossesOutputEE
FN:7454,7454,_ZNK3MAS7Outputs13get_impedanceEv
FN:7455,7455,_ZN3MAS7Outputs13set_impedanceESt8optionalINS_15ImpedanceOutputEE
FN:746,746,_ZNK3MAS17DabOperatingPoint22get_inner_phase_shift3Ev
FN:7460,7460,_ZNK3MAS7Outputs14get_inductanceEv
FN:7461,7461,_ZN3MAS7Outputs14set_inductanceESt8optionalINS_16InductanceOutputEE
FN:7466,7466,_ZNK3MAS7Outputs14get_insulationEv
FN:7467,7467,_ZN3MAS7Outputs14set_insulationESt8optionalISt6vectorINS_17DielectricVoltageESaIS3_EEE
FN:747,747,_ZN3MAS17DabOperatingPoint22set_inner_phase_shift3ESt8optionalIdE
FN:7472,7472,_ZNK3MAS7Outputs27get_insulation_coordinationEv
FN:7473,7473,_ZN3MAS7Outputs27set_insulation_coordinationESt8optionalINS_28InsulationCoordinationOutputEE
FN:7478,7478,_ZNK3MAS7Outputs21get_stray_capacitanceEv
FN:7479,7479,_ZN3MAS7Outputs21set_stray_capacitanceESt8optionalISt6vectorINS_22StrayCapacitanceOutputESaIS3_EEE
FN:7484,7484,_ZNK3MAS7Outputs15get_temperatureEv
FN:7485,7485,_ZN3MAS7Outputs15set_temperatureESt8optionalINS_17TemperatureOutputEE
FN:7490,7490,_ZNK3MAS7Outputs18get_winding_lossesEv
FN:7491,7491,_ZN3MAS7Outputs18set_winding_lossesESt8optionalINS_19WindingLossesOutputEE
FN:7496,7496,_ZNK3MAS7Outputs40get_winding_window_current_density_fieldEv
FN:7497,7497,_ZN3MAS7Outputs40set_winding_window_current_density_fieldESt8optionalINS_38WindingWindowCurrentDensityFieldOutputEE
FN:7502,7502,_ZNK3MAS7Outputs32get_winding_window_current_fieldEv
FN:7503,7503,_ZN3MAS7Outputs32set_winding_window_current_fieldESt8optionalINS_31WindingWindowCurrentFieldOutputEE
FN:7508,7508,_ZNK3MAS7Outputs42get_winding_window_magnetic_strength_fieldEv
FN:7509,7509,_ZN3MAS7Outputs42set_winding_window_magnetic_strength_fieldESt8optionalINS_40WindingWindowMagneticStrengthFieldOutputEE
FN:7517,7517,_ZN3MAS3MasC2Ev
FN:7518,7518,_ZN3MAS3MasD0Ev
FN:7518,7518,_ZN3MAS3MasD2Ev
FN:7531,7531,_ZN3MAS3Mas10set_inputsERKNS_6InputsE
FN:7537,7537,_ZN3MAS3Mas20get_mutable_magneticEv
FN:7538,7538,_ZN3MAS3Mas12set_magneticERKNS_8MagneticE
FN:7545,7545,_ZN3MAS3Mas11set_outputsERKSt6vectorINS_7OutputsESaIS2_EE
FN:755,755,_ZNK3MAS17DabOperatingPoint19get_modulation_typeEv
FN:756,756,_ZN3MAS17DabOperatingPoint19set_modulation_typeESt8optionalINS_14ModulationTypeEE
FN:76,76,_ZNK3MAS22ClassMemberConstraints17get_max_int_valueEv
FN:761,761,_ZNK3MAS17DabOperatingPoint19get_output_currentsEv
FN:763,763,_ZN3MAS17DabOperatingPoint19set_output_currentsERKSt6vectorIdSaIdEE
FN:768,768,_ZNK3MAS17DabOperatingPoint19get_output_voltagesEv
FN:770,770,_ZN3MAS17DabOperatingPoint19set_output_voltagesERKSt6vectorIdSaIdEE
FN:775,775,_ZNK3MAS17DabOperatingPoint23get_switching_frequencyEv
FN:777,777,_ZN3MAS17DabOperatingPoint23set_switching_frequencyERKd
FN:789,789,_ZN3MAS16DualActiveBridgeC2Ev
FN:79,79,_ZNK3MAS22ClassMemberConstraints20get_min_double_valueEv
FN:790,790,_ZN3MAS16DualActiveBridgeD0Ev
FN:790,790,_ZN3MAS16DualActiveBridgeD2Ev
FN:805,805,_ZN3MAS16DualActiveBridge14set_efficiencyESt8optionalIdE
FN:810,810,_ZNK3MAS16DualActiveBridge17get_input_voltageEv
FN:812,812,_ZN3MAS16DualActiveBridge17set_input_voltageERKNS_22DimensionWithToleranceE
FN:8161,8168,_ZN3MAS9from_jsonERKN8nlohmann16json_abi_v3_11_310basic_jsonISt3mapSt6vectorNSt7__cxx1112basic_stringIcSt11char_traitsIcESaIcEEEblmdSaNS1_14adl_serializerES4_IhSaIhEEvEERNS_22DimensionWithToleranceE
FN:817,817,_ZNK3MAS16DualActiveBridge20get_operating_pointsEv
FN:8170,8178,_ZN3MAS7to_jsonERN8nlohmann16json_abi_v3_11_310basic_jsonISt3mapSt6vectorNSt7__cxx1112basic_stringIcSt11char_traitsIcESaIcEEEblmdSaNS1_14adl_serializerES4_IhSaIhEEvEERKNS_22DimensionWithToleranceE
FN:8180,8185,_ZN3MAS9from_jsonERKN8nlohmann16json_abi_v3_11_310basic_jsonISt3mapSt6vectorNSt7__cxx1112basic_stringIcSt11char_traitsIcESaIcEEEblmdSaNS1_14adl_serializerES4_IhSaIhEEvEERNS_18BaseOperatingPointE
FN:819,819,_ZN3MAS16DualActiveBridge20set_operating_pointsERKSt6vectorINS_17DabOperatingPointESaIS2_EE
FN:8195,8202,_ZN3MAS9from_jsonERKN8nlohmann16json_abi_v3_11_310basic_jsonISt3mapSt6vectorNSt7__cxx1112basic_stringIcSt11char_traitsIcESaIcEEEblmdSaNS1_14adl_serializerES4_IhSaIhEEvEERNS_5BoostE
FN:82,82,_ZNK3MAS22ClassMemberConstraints20get_max_double_valueEv
FN:8214,8221,_ZN3MAS9from_jsonERKN8nlohmann16json_abi_v3_11_310basic_jsonISt3mapSt6vectorNSt7__cxx1112basic_stringIcSt11char_traitsIcESaIcEEEblmdSaNS1_14adl_serializerES4_IhSaIhEEvEERNS_4BuckE
FN:8233,8239,_ZN3MAS9from_jsonERKN8nlohmann16json_abi_v3_11_310basic_jsonISt3mapSt6vectorNSt7__cxx1112basic_stringIcSt11char_traitsIcESaIcEEEblmdSaNS1_14adl_serializerES4_IhSaIhEEvEERNS_18CllcOperatingPointE
FN:8250,8259,_ZN3MAS9from_jsonERKN8nlohmann16json_abi_v3_11_310basic_jsonISt3mapSt6vectorNSt7__cxx1112basic_stringIcSt11char_traitsIcESaIcEEEblmdSaNS1_14adl_serializerES4_IhSaIhEEvEERNS_12CllcResonantE
FN:827,827,_ZN3MAS16DualActiveBridge25set_per_secondary_leakageESt8optionalISt6vectorIdSaIdEEE
FN:8273,8281,_ZN3MAS9from_jsonERKN8nlohmann16json_abi_v3_11_310basic_jsonISt3mapSt6vectorNSt7__cxx1112basic_stringIcSt11char_traitsIcESaIcEEEblmdSaNS1_14adl_serializerES4_IhSaIhEEvEERNS_18CurrentTransformerE
FN:8294,8303,_ZN3MAS9from_jsonERKN8nlohmann16json_abi_v3_11_310basic_jsonISt3mapSt6vectorNSt7__cxx1112basic_stringIcSt11char_traitsIcESaIcEEEblmdSaNS1_14adl_serializerES4_IhSaIhEEvEERNS_17DabOperatingPointE
FN:8317,8324,_ZN3MAS9from_jsonERKN8nlohmann16json_abi_v3_11_310basic_jsonISt3mapSt6vectorNSt7__cxx1112basic_stringIcSt11char_traitsIcESaIcEEEblmdSaNS1_14adl_serializerES4_IhSaIhEEvEERNS_16DualActiveBridgeE
FN:833,833,_ZNK3MAS16DualActiveBridge21get_series_inductanceEv
FN:8336,8342,_ZN3MAS9from_jsonERKN8nlohmann16json_abi_v3_11_310basic_jsonISt3mapSt6vectorNSt7__cxx1112basic_stringIcSt11char_traitsIcESaIcEEEblmdSaNS1_14adl_serializerES4_IhSaIhEEvEERNS_21FlybackOperatingPointE
FN:834,834,_ZN3MAS16DualActiveBridge21set_series_inductanceESt8optionalIdE
FN:8353,8361,_ZN3MAS9from_jsonERKN8nlohmann16json_abi_v3_11_310basic_jsonISt3mapSt6vectorNSt7__cxx1112basic_stringIcSt11char_traitsIcESaIcEEEblmdSaNS1_14adl_serializerES4_IhSaIhEEvEERNS_7FlybackE
FN:8374,8379,_ZN3MAS9from_jsonERKN8nlohmann16json_abi_v3_11_310basic_jsonISt3mapSt6vectorNSt7__cxx1112basic_stringIcSt11char_traitsIcESaIcEEEblmdSaNS1_14adl_serializerES4_IhSaIhEEvEERNS_21ForwardOperatingPointE
FN:8389,8397,_ZN3MAS9from_jsonERKN8nlohmann16json_abi_v3_11_310basic_jsonISt3mapSt6vectorNSt7__cxx1112basic_stringIcSt11char_traitsIcESaIcEEEblmdSaNS1_14adl_serializerES4_IhSaIhEEvEERNS_7ForwardE
FN:839,839,_ZNK3MAS16DualActiveBridge26get_use_leakage_inductanceEv
FN:840,840,_ZN3MAS16DualActiveBridge26set_use_leakage_inductanceESt8optionalIbE
FN:8410,8415,_ZN3MAS9from_jsonERKN8nlohmann16json_abi_v3_11_310basic_jsonISt3mapSt6vectorNSt7__cxx1112basic_stringIcSt11char_traitsIcESaIcEEEblmdSaNS1_14adl_serializerES4_IhSaIhEEvEERNS_26IsolatedBuckOperatingPointE
FN:8425,8432,_ZN3MAS9from_jsonERKN8nlohmann16json_abi_v3_11_310basic_jsonISt3mapSt6vectorNSt7__cxx1112basic_stringIcSt11char_traitsIcESaIcEEEblmdSaNS1_14adl_serializerES4_IhSaIhEEvEERNS_12IsolatedBuckE
FN:8444,8449,_ZN3MAS9from_jsonERKN8nlohmann16json_abi_v3_11_310basic_jsonISt3mapSt6vectorNSt7__cxx1112basic_stringIcSt11char_traitsIcESaIcEEEblmdSaNS1_14adl_serializerES4_IhSaIhEEvEERNS_31IsolatedBuckBoostOperatingPointE
FN:8459,8466,_ZN3MAS9from_jsonERKN8nlohmann16json_abi_v3_11_310basic_jsonISt3mapSt6vectorNSt7__cxx1112basic_stringIcSt11char_traitsIcESaIcEEEblmdSaNS1_14adl_serializerES4_IhSaIhEEvEERNS_17IsolatedBuckBoostE
FN:8478,8483,_ZN3MAS9from_jsonERKN8nlohmann16json_abi_v3_11_310basic_jsonISt3mapSt6vectorNSt7__cxx1112basic_stringIcSt11char_traitsIcESaIcEEEblmdSaNS1_14adl_serializerES4_IhSaIhEEvEERNS_17LlcOperatingPointE
FN:8493,8506,_ZN3MAS9from_jsonERKN8nlohmann16json_abi_v3_11_310basic_jsonISt3mapSt6vectorNSt7__cxx1112basic_stringIcSt11char_traitsIcESaIcEEEblmdSaNS1_14adl_serializerES4_IhSaIhEEvEERNS_11LlcResonantE
FN:8524,8530,_ZN3MAS9from_jsonERKN8nlohmann16json_abi_v3_11_310basic_jsonISt3mapSt6vectorNSt7__cxx1112basic_stringIcSt11char_traitsIcESaIcEEEblmdSaNS1_14adl_serializerES4_IhSaIhEEvEERNS_18PsfbOperatingPointE
FN:8541,8550,_ZN3MAS9from_jsonERKN8nlohmann16json_abi_v3_11_310basic_jsonISt3mapSt6vectorNSt7__cxx1112basic_stringIcSt11char_traitsIcESaIcEEEblmdSaNS1_14adl_serializerES4_IhSaIhEEvEERNS_20PhaseShiftFullBridgeE
FN:855,855,_ZN3MAS21FlybackOperatingPointC2Ev
FN:856,856,_ZN3MAS21FlybackOperatingPointD0Ev
FN:856,856,_ZN3MAS21FlybackOperatingPointD2Ev
FN:8564,8569,_ZN3MAS9from_jsonERKN8nlohmann16json_abi_v3_11_310basic_jsonISt3mapSt6vectorNSt7__cxx1112basic_stringIcSt11char_traitsIcESaIcEEEblmdSaNS1_14adl_serializerES4_IhSaIhEEvEERNS_22PushPullOperatingPointE
FN:8579,8588,_ZN3MAS9from_jsonERKN8nlohmann16json_abi_v3_11_310basic_jsonISt3mapSt6vectorNSt7__cxx1112basic_stringIcSt11char_traitsIcESaIcEEEblmdSaNS1_14adl_serializerES4_IhSaIhEEvEERNS_8PushPullE
FN:8602,8615,_ZN3MAS9from_jsonERKN8nlohmann16json_abi_v3_11_310basic_jsonISt3mapSt6vectorNSt7__cxx1112basic_stringIcSt11char_traitsIcESaIcEEEblmdSaNS1_14adl_serializerES4_IhSaIhEEvEERNS_19SupportedTopologiesE
FN:8633,8635,_ZN3MAS9from_jsonERKN8nlohmann16json_abi_v3_11_310basic_jsonISt3mapSt6vectorNSt7__cxx1112basic_stringIcSt11char_traitsIcESaIcEEEblmdSaNS1_14adl_serializerES4_IhSaIhEEvEERNS_20ConverterInformationE
FN:8642,8650,_ZN3MAS9from_jsonERKN8nlohmann16json_abi_v3_11_310basic_jsonISt3mapSt6vectorNSt7__cxx1112basic_stringIcSt11char_traitsIcESaIcEEEblmdSaNS1_14adl_serializerES4_IhSaIhEEvEERNS_22InsulationRequirementsE
FN:8652,8661,_ZN3MAS7to_jsonERN8nlohmann16json_abi_v3_11_310basic_jsonISt3mapSt6vectorNSt7__cxx1112basic_stringIcSt11char_traitsIcESaIcEEEblmdSaNS1_14adl_serializerES4_IhSaIhEEvEERKNS_22InsulationRequirementsE
FN:8663,8667,_ZN3MAS9from_jsonERKN8nlohmann16json_abi_v3_11_310basic_jsonISt3mapSt6vectorNSt7__cxx1112basic_stringIcSt11char_traitsIcESaIcEEEblmdSaNS1_14adl_serializerES4_IhSaIhEEvEERNS_17MaximumDimensionsE
FN:8669,8674,_ZN3MAS7to_jsonERN8nlohmann16json_abi_v3_11_310basic_jsonISt3mapSt6vectorNSt7__cxx1112basic_stringIcSt11char_traitsIcESaIcEEEblmdSaNS1_14adl_serializerES4_IhSaIhEEvEERKNS_17MaximumDimensionsE
FN:8676,8681,_ZN3MAS9from_jsonERKN8nlohmann16json_abi_v3_11_310basic_jsonISt3mapSt6vectorNSt7__cxx1112basic_stringIcSt11char_traitsIcESaIcEEEblmdSaNS1_14adl_serializerES4_IhSaIhEEvEERNS_14ImpedancePointE
FN:8683,8689,_ZN3MAS7to_jsonERN8nlohmann16json_abi_v3_11_310basic_jsonISt3mapSt6vectorNSt7__cxx1112basic_stringIcSt11char_traitsIcESaIcEEEblmdSaNS1_14adl_serializerES4_IhSaIhEEvEERKNS_14ImpedancePointE
FN:869,869,_ZNK3MAS21FlybackOperatingPoint23get_ambient_temperatureEv
FN:8691,8694,_ZN3MAS9from_jsonERKN8nlohmann16json_abi_v3_11_310basic_jsonISt3mapSt6vectorNSt7__cxx1112basic_stringIcSt11char_traitsIcESaIcEEEblmdSaNS1_14adl_serializerES4_IhSaIhEEvEERNS_20ImpedanceAtFrequencyE
FN:8696,8700,_ZN3MAS7to_jsonERN8nlohmann16json_abi_v3_11_310basic_jsonISt3mapSt6vectorNSt7__cxx1112basic_stringIcSt11char_traitsIcESaIcEEEblmdSaNS1_14adl_serializerES4_IhSaIhEEvEERKNS_20ImpedanceAtFrequencyE
FN:8702,8720,_ZN3MAS9from_jsonERKN8nlohmann16json_abi_v3_11_310basic_jsonISt3mapSt6vectorNSt7__cxx1112basic_stringIcSt11char_traitsIcESaIcEEEblmdSaNS1_14adl_serializerES4_IhSaIhEEvEERNS_18DesignRequirementsE
FN:871,871,_ZN3MAS21FlybackOperatingPoint23set_ambient_temperatureERKd
FN:8722,8741,_ZN3MAS7to_jsonERN8nlohmann16json_abi_v3_11_310basic_jsonISt3mapSt6vectorNSt7__cxx1112basic_stringIcSt11char_traitsIcESaIcEEEblmdSaNS1_14adl_serializerES4_IhSaIhEEvEERKNS_18DesignRequirementsE
FN:8743,8753,_ZN3MAS9from_jsonERKN8nlohmann16json_abi_v3_11_310basic_jsonISt3mapSt6vectorNSt7__cxx1112basic_stringIcSt11char_traitsIcESaIcEEEblmdSaNS1_14adl_serializerES4_IhSaIhEEvEERNS_7CoolingE
FN:8755,8766,_ZN3MAS7to_jsonERN8nlohmann16json_abi_v3_11_310basic_jsonISt3mapSt6vectorNSt7__cxx1112basic_stringIcSt11char_traitsIcESaIcEEEblmdSaNS1_14adl_serializerES4_IhSaIhEEvEERKNS_7CoolingE
FN:876,876,_ZNK3MAS21FlybackOperatingPoint8get_modeEv
FN:8768,8773,_ZN3MAS9from_jsonERKN8nlohmann16json_abi_v3_11_310basic_jsonISt3mapSt6vectorNSt7__cxx1112basic_stringIcSt11char_traitsIcESaIcEEEblmdSaNS1_14adl_serializerES4_IhSaIhEEvEERNS_19OperatingConditionsE
FN:877,877,_ZN3MAS21FlybackOperatingPoint8set_modeESt8optionalINS_12FlybackModesEE
FN:8775,8781,_ZN3MAS7to_jsonERN8nlohmann16json_abi_v3_11_310basic_jsonISt3mapSt6vectorNSt7__cxx1112basic_stringIcSt11char_traitsIcESaIcEEEblmdSaNS1_14adl_serializerES4_IhSaIhEEvEERKNS_19OperatingConditionsE
FN:8783,8786,_ZN3MAS9from_jsonERKN8nlohmann16json_abi_v3_11_310basic_jsonISt3mapSt6vectorNSt7__cxx1112basic_stringIcSt11char_traitsIcESaIcEEEblmdSaNS1_14adl_serializerES4_IhSaIhEEvEERNS_9HarmonicsE
FN:8788,8792,_ZN3MAS7to_jsonERN8nlohmann16json_abi_v3_11_310basic_jsonISt3mapSt6vectorNSt7__cxx1112basic_stringIcSt11char_traitsIcESaIcEEEblmdSaNS1_14adl_serializerES4_IhSaIhEEvEERKNS_9HarmonicsE
FN:8794,8809,_ZN3MAS9from_jsonERKN8nlohmann16json_abi_v3_11_310basic_jsonISt3mapSt6vectorNSt7__cxx1112basic_stringIcSt11char_traitsIcESaIcEEEblmdSaNS1_14adl_serializerES4_IhSaIhEEvEERNS_9ProcessedE
FN:8811,8827,_ZN3MAS7to_jsonERN8nlohmann16json_abi_v3_11_310basic_jsonISt3mapSt6vectorNSt7__cxx1112basic_stringIcSt11char_traitsIcESaIcEEEblmdSaNS1_14adl_serializerES4_IhSaIhEEvEERKNS_9ProcessedE
FN:882,882,_ZNK3MAS21FlybackOperatingPoint19get_output_currentsEv
FN:8829,8834,_ZN3MAS9from_jsonERKN8nlohmann16json_abi_v3_11_310basic_jsonISt3mapSt6vectorNSt7__cxx1112basic_stringIcSt11char_traitsIcESaIcEEEblmdSaNS1_14adl_serializerES4_IhSaIhEEvEERNS_8WaveformE
FN:8836,8842,_ZN3MAS7to_jsonERN8nlohmann16json_abi_v3_11_310basic_jsonISt3mapSt6vectorNSt7__cxx1112basic_stringIcSt11char_traitsIcESaIcEEEblmdSaNS1_14adl_serializerES4_IhSaIhEEvEERKNS_8WaveformE
FN:884,884,_ZN3MAS21FlybackOperatingPoint19set_output_currentsERKSt6vectorIdSaIdEE
FN:8844,8848,_ZN3MAS9from_jsonERKN8nlohmann16json_abi_v3_11_310basic_jsonISt3mapSt6vectorNSt7__cxx1112basic_stringIcSt11char_traitsIcESaIcEEEblmdSaNS1_14adl_serializerES4_IhSaIhEEvEERNS_16SignalDescriptorE
FN:8850,8855,_ZN3MAS7to_jsonERN8nlohmann16json_abi_v3_11_310basic_jsonISt3mapSt6vectorNSt7__cxx1112basic_stringIcSt11char_traitsIcESaIcEEEblmdSaNS1_14adl_serializerES4_IhSaIhEEvEERKNS_16SignalDescriptorE
FN:8857,8865,_ZN3MAS9from_jsonERKN8nlohmann16json_abi_v3_11_310basic_jsonISt3mapSt6vectorNSt7__cxx1112basic_stringIcSt11char_traitsIcESaIcEEEblmdSaNS1_14adl_serializerES4_IhSaIhEEvEERNS_24OperatingPointExcitationE
FN:8867,8876,_ZN3MAS7to_jsonERN8nlohmann16json_abi_v3_11_310basic_jsonISt3mapSt6vectorNSt7__cxx1112basic_stringIcSt11char_traitsIcESaIcEEEblmdSaNS1_14adl_serializerES4_IhSaIhEEvEERKNS_24OperatingPointExcitationE
FN:8878,8882,_ZN3MAS9from_jsonERKN8nlohmann16json_abi_v3_11_310basic_jsonISt3mapSt6vectorNSt7__cxx1112basic_stringIcSt11char_traitsIcESaIcEEEblmdSaNS1_14adl_serializerES4_IhSaIhEEvEERNS_14OperatingPointE
FN:8884,8889,_ZN3MAS7to_jsonERN8nlohmann16json_abi_v3_11_310basic_jsonISt3mapSt6vectorNSt7__cxx1112basic_stringIcSt11char_traitsIcESaIcEEEblmdSaNS1_14adl_serializerES4_IhSaIhEEvEERKNS_14OperatingPointE
FN:889,889,_ZNK3MAS21FlybackOperatingPoint19get_output_voltagesEv
FN:8891,8895,_ZN3MAS9from_jsonERKN8nlohmann16json_abi_v3_11_310basic_jsonISt3mapSt6vectorNSt7__cxx1112basic_stringIcSt11char_traitsIcESaIcEEEblmdSaNS1_14adl_serializerES4_IhSaIhEEvEERNS_6InputsE
FN:8904,8915,_ZN3MAS9from_jsonERKN8nlohmann16json_abi_v3_11_310basic_jsonISt3mapSt6vectorNSt7__cxx1112basic_stringIcSt11char_traitsIcESaIcEEEblmdSaNS1_14adl_serializerES4_IhSaIhEEvEERNS_15DistributorInfoE
FN:891,891,_ZN3MAS21FlybackOperatingPoint19set_output_voltagesERKSt6vectorIdSaIdEE
FN:8917,8929,_ZN3MAS7to_jsonERN8nlohmann16json_abi_v3_11_310basic_jsonISt3mapSt6vectorNSt7__cxx1112basic_stringIcSt11char_traitsIcESaIcEEEblmdSaNS1_14adl_serializerES4_IhSaIhEEvEERKNS_15DistributorInfoE
FN:8931,8934,_ZN3MAS9from_jsonERKN8nlohmann16json_abi_v3_11_310basic_jsonISt3mapSt6vectorNSt7__cxx1112basic_stringIcSt11char_traitsIcESaIcEEEblmdSaNS1_14adl_serializerES4_IhSaIhEEvEERNS_20PinWindingConnectionE
FN:8936,8940,_ZN3MAS7to_jsonERN8nlohmann16json_abi_v3_11_310basic_jsonISt3mapSt6vectorNSt7__cxx1112basic_stringIcSt11char_traitsIcESaIcEEEblmdSaNS1_14adl_serializerES4_IhSaIhEEvEERKNS_20PinWindingConnectionE
FN:8942,8947,_ZN3MAS9from_jsonERKN8nlohmann16json_abi_v3_11_310basic_jsonISt3mapSt6vectorNSt7__cxx1112basic_stringIcSt11char_traitsIcESaIcEEEblmdSaNS1_14adl_serializerES4_IhSaIhEEvEERNS_25DielectricStrengthElementE
FN:8949,8955,_ZN3MAS7to_jsonERN8nlohmann16json_abi_v3_11_310basic_jsonISt3mapSt6vectorNSt7__cxx1112basic_stringIcSt11char_traitsIcESaIcEEEblmdSaNS1_14adl_serializerES4_IhSaIhEEvEERKNS_25DielectricStrengthElementE
FN:8957,8966,_ZN3MAS9from_jsonERKN8nlohmann16json_abi_v3_11_310basic_jsonISt3mapSt6vectorNSt7__cxx1112basic_stringIcSt11char_traitsIcESaIcEEEblmdSaNS1_14adl_serializerES4_IhSaIhEEvEERNS_16ManufacturerInfoE
FN:896,896,_ZNK3MAS21FlybackOperatingPoint23get_switching_frequencyEv
FN:8968,8978,_ZN3MAS7to_jsonERN8nlohmann16json_abi_v3_11_310basic_jsonISt3mapSt6vectorNSt7__cxx1112basic_stringIcSt11char_traitsIcESaIcEEEblmdSaNS1_14adl_serializerES4_IhSaIhEEvEERKNS_16ManufacturerInfoE
FN:897,897,_ZN3MAS21FlybackOperatingPoint23set_switching_frequencyESt8optionalIdE
FN:8980,8983,_ZN3MAS9from_jsonERKN8nlohmann16json_abi_v3_11_310basic_jsonISt3mapSt6vectorNSt7__cxx1112basic_stringIcSt11char_traitsIcESaIcEEEblmdSaNS1_14adl_serializerES4_IhSaIhEEvEERNS_16ResistivityPointE
FN:8985,8989,_ZN3MAS7to_jsonERN8nlohmann16json_abi_v3_11_310basic_jsonISt3mapSt6vectorNSt7__cxx1112basic_stringIcSt11char_traitsIcESaIcEEEblmdSaNS1_14adl_serializerES4_IhSaIhEEvEERKNS_16ResistivityPointE
FN:8991,9003,_ZN3MAS9from_jsonERKN8nlohmann16json_abi_v3_11_310basic_jsonISt3mapSt6vectorNSt7__cxx1112basic_stringIcSt11char_traitsIcESaIcEEEblmdSaNS1_14adl_serializerES4_IhSaIhEEvEERNS_18InsulationMaterialE
FN:9005,9018,_ZN3MAS7to_jsonERN8nlohmann16json_abi_v3_11_310basic_jsonISt3mapSt6vectorNSt7__cxx1112basic_stringIcSt11char_traitsIcESaIcEEEblmdSaNS1_14adl_serializerES4_IhSaIhEEvEERKNS_18InsulationMaterialE
FN:9020,9027,_ZN3MAS9from_jsonERKN8nlohmann16json_abi_v3_11_310basic_jsonISt3mapSt6vectorNSt7__cxx1112basic_stringIcSt11char_traitsIcESaIcEEEblmdSaNS1_14adl_serializerES4_IhSaIhEEvEERNS_3PinE
FN:9029,9037,_ZN3MAS7to_jsonERN8nlohmann16json_abi_v3_11_310basic_jsonISt3mapSt6vectorNSt7__cxx1112basic_stringIcSt11char_traitsIcESaIcEEEblmdSaNS1_14adl_serializerES4_IhSaIhEEvEERKNS_3PinE
FN:9039,9047,_ZN3MAS9from_jsonERKN8nlohmann16json_abi_v3_11_310basic_jsonISt3mapSt6vectorNSt7__cxx1112basic_stringIcSt11char_traitsIcESaIcEEEblmdSaNS1_14adl_serializerES4_IhSaIhEEvEERNS_6PinoutE
FN:9049,9058,_ZN3MAS7to_jsonERN8nlohmann16json_abi_v3_11_310basic_jsonISt3mapSt6vectorNSt7__cxx1112basic_stringIcSt11char_traitsIcESaIcEEEblmdSaNS1_14adl_serializerES4_IhSaIhEEvEERKNS_6PinoutE
FN:905,905,_ZN3MAS7FlybackC2Ev
FN:906,906,_ZN3MAS7FlybackD0Ev
FN:906,906,_ZN3MAS7FlybackD2Ev
FN:9060,9069,_ZN3MAS9from_jsonERKN8nlohmann16json_abi_v3_11_310basic_jsonISt3mapSt6vectorNSt7__cxx1112basic_stringIcSt11char_traitsIcESaIcEEEblmdSaNS1_14adl_serializerES4_IhSaIhEEvEERNS_27BobbinFunctionalDescriptionE
FN:9071,9081,_ZN3MAS7to_jsonERN8nlohmann16json_abi_v3_11_310basic_jsonISt3mapSt6vectorNSt7__cxx1112basic_stringIcSt11char_traitsIcESaIcEEEblmdSaNS1_14adl_serializerES4_IhSaIhEEvEERKNS_27BobbinFunctionalDescriptionE
FN:9083,9093,_ZN3MAS9from_jsonERKN8nlohmann16json_abi_v3_11_310basic_jsonISt3mapSt6vectorNSt7__cxx1112basic_stringIcSt11char_traitsIcESaIcEEEblmdSaNS1_14adl_serializerES4_IhSaIhEEvEERNS_20WindingWindowElementE
FN:9095,9106,_ZN3MAS7to_jsonERN8nlohmann16json_abi_v3_11_310basic_jsonISt3mapSt6vectorNSt7__cxx1112basic_stringIcSt11char_traitsIcESaIcEEEblmdSaNS1_14adl_serializerES4_IhSaIhEEvEERKNS_20WindingWindowElementE
FN:9108,9117,_ZN3MAS9from_jsonERKN8nlohmann16json_abi_v3_11_310basic_jsonISt3mapSt6vectorNSt7__cxx1112basic_stringIcSt11char_traitsIcESaIcEEEblmdSaNS1_14adl_serializerES4_IhSaIhEEvEERNS_30CoreBobbinProcessedDescriptionE
FN:9119,9129,_ZN3MAS7to_jsonERN8nlohmann16json_abi_v3_11_310basic_jsonISt3mapSt6vectorNSt7__cxx1112basic_stringIcSt11char_traitsIcESaIcEEEblmdSaNS1_14adl_serializerES4_IhSaIhEEvEERKNS_30CoreBobbinProcessedDescriptionE
FN:9131,9137,_ZN3MAS9from_jsonERKN8nlohmann16json_abi_v3_11_310basic_jsonISt3mapSt6vectorNSt7__cxx1112basic_stringIcSt11char_traitsIcESaIcEEEblmdSaNS1_14adl_serializerES4_IhSaIhEEvEERNS_6BobbinE
FN:9139,9146,_ZN3MAS7to_jsonERN8nlohmann16json_abi_v3_11_310basic_jsonISt3mapSt6vectorNSt7__cxx1112basic_stringIcSt11char_traitsIcESaIcEEEblmdSaNS1_14adl_serializerES4_IhSaIhEEvEERKNS_6BobbinE
FN:9148,9154,_ZN3MAS9from_jsonERKN8nlohmann16json_abi_v3_11_310basic_jsonISt3mapSt6vectorNSt7__cxx1112basic_stringIcSt11char_traitsIcESaIcEEEblmdSaNS1_14adl_serializerES4_IhSaIhEEvEERNS_17ConnectionElementE
FN:9156,9163,_ZN3MAS7to_jsonERN8nlohmann16json_abi_v3_11_310basic_jsonISt3mapSt6vectorNSt7__cxx1112basic_stringIcSt11char_traitsIcESaIcEEEblmdSaNS1_14adl_serializerES4_IhSaIhEEvEERKNS_17ConnectionElementE
FN:9165,9174,_ZN3MAS9from_jsonERKN8nlohmann16json_abi_v3_11_310basic_jsonISt3mapSt6vectorNSt7__cxx1112basic_stringIcSt11char_traitsIcESaIcEEEblmdSaNS1_14adl_serializerES4_IhSaIhEEvEERNS_21InsulationWireCoatingE
FN:9176,9186,_ZN3MAS7to_jsonERN8nlohmann16json_abi_v3_11_310basic_jsonISt3mapSt6vectorNSt7__cxx1112basic_stringIcSt11char_traitsIcESaIcEEEblmdSaNS1_14adl_serializerES4_IhSaIhEEvEERKNS_21InsulationWireCoatingE
FN:9188,9192,_ZN3MAS9from_jsonERKN8nlohmann16json_abi_v3_11_310basic_jsonISt3mapSt6vectorNSt7__cxx1112basic_stringIcSt11char_traitsIcESaIcEEEblmdSaNS1_14adl_serializerES4_IhSaIhEEvEERNS_11ResistivityE
FN:9194,9199,_ZN3MAS7to_jsonERN8nlohmann16json_abi_v3_11_310basic_jsonISt3mapSt6vectorNSt7__cxx1112basic_stringIcSt11char_traitsIcESaIcEEEblmdSaNS1_14adl_serializerES4_IhSaIhEEvEERKNS_11ResistivityE
FN:9201,9204,_ZN3MAS9from_jsonERKN8nlohmann16json_abi_v3_11_310basic_jsonISt3mapSt6vectorNSt7__cxx1112basic_stringIcSt11char_traitsIcESaIcEEEblmdSaNS1_14adl_serializerES4_IhSaIhEEvEERNS_26ThermalConductivityElementE
FN:9206,9210,_ZN3MAS7to_jsonERN8nlohmann16json_abi_v3_11_310basic_jsonISt3mapSt6vectorNSt7__cxx1112basic_stringIcSt11char_traitsIcESaIcEEEblmdSaNS1_14adl_serializerES4_IhSaIhEEvEERKNS_26ThermalConductivityElementE
FN:921,921,_ZNK3MAS7Flyback24get_current_ripple_ratioEv
FN:9212,9217,_ZN3MAS9from_jsonERKN8nlohmann16json_abi_v3_11_310basic_jsonISt3mapSt6vectorNSt7__cxx1112basic_stringIcSt11char_traitsIcESaIcEEEblmdSaNS1_14adl_serializerES4_IhSaIhEEvEERNS_12WireMaterialE
FN:9219,9225,_ZN3MAS7to_jsonERN8nlohmann16json_abi_v3_11_310basic_jsonISt3mapSt6vectorNSt7__cxx1112basic_stringIcSt11char_traitsIcESaIcEEEblmdSaNS1_14adl_serializerES4_IhSaIhEEvEERKNS_12WireMaterialE
FN:9227,9239,_ZN3MAS9from_jsonERKN8nlohmann16json_abi_v3_11_310basic_jsonISt3mapSt6vectorNSt7__cxx1112basic_stringIcSt11char_traitsIcESaIcEEEblmdSaNS1_14adl_serializerES4_IhSaIhEEvEERNS_9WireRoundE
FN:923,923,_ZN3MAS7Flyback24set_current_ripple_ratioERKd
FN:9241,9254,_ZN3MAS7to_jsonERN8nlohmann16json_abi_v3_11_310basic_jsonISt3mapSt6vectorNSt7__cxx1112basic_stringIcSt11char_traitsIcESaIcEEEblmdSaNS1_14adl_serializerES4_IhSaIhEEvEERKNS_9WireRoundE
FN:9256,9274,_ZN3MAS9from_jsonERKN8nlohmann16json_abi_v3_11_310basic_jsonISt3mapSt6vectorNSt7__cxx1112basic_stringIcSt11char_traitsIcESaIcEEEblmdSaNS1_14adl_serializerES4_IhSaIhEEvEERNS_4WireE
FN:9276,9295,_ZN3MAS7to_jsonERN8nlohmann16json_abi_v3_11_310basic_jsonISt3mapSt6vectorNSt7__cxx1112basic_stringIcSt11char_traitsIcESaIcEEEblmdSaNS1_14adl_serializerES4_IhSaIhEEvEERKNS_4WireE
FN:928,928,_ZNK3MAS7Flyback22get_diode_voltage_dropEv
FN:9297,9305,_ZN3MAS9from_jsonERKN8nlohmann16json_abi_v3_11_310basic_jsonISt3mapSt6vectorNSt7__cxx1112basic_stringIcSt11char_traitsIcESaIcEEEblmdSaNS1_14adl_serializerES4_IhSaIhEEvEERNS_25CoilFunctionalDescriptionE
FN:930,930,_ZN3MAS7Flyback22set_diode_voltage_dropERKd
FN:9318,9322,_ZN3MAS9from_jsonERKN8nlohmann16json_abi_v3_11_310basic_jsonISt3mapSt6vectorNSt7__cxx1112basic_stringIcSt11char_traitsIcESaIcEEEblmdSaNS1_14adl_serializerES4_IhSaIhEEvEERNS_14PartialWindingE
FN:9324,9329,_ZN3MAS7to_jsonERN8nlohmann16json_abi_v3_11_310basic_jsonISt3mapSt6vectorNSt7__cxx1112basic_stringIcSt11char_traitsIcESaIcEEEblmdSaNS1_14adl_serializerES4_IhSaIhEEvEERKNS_14PartialWindingE
FN:9331,9339,_ZN3MAS9from_jsonERKN8nlohmann16json_abi_v3_11_310basic_jsonISt3mapSt6vectorNSt7__cxx1112basic_stringIcSt11char_traitsIcESaIcEEEblmdSaNS1_14adl_serializerES4_IhSaIhEEvEERNS_5GroupE
FN:9341,9350,_ZN3MAS7to_jsonERN8nlohmann16json_abi_v3_11_310basic_jsonISt3mapSt6vectorNSt7__cxx1112basic_stringIcSt11char_traitsIcESaIcEEEblmdSaNS1_14adl_serializerES4_IhSaIhEEvEERKNS_5GroupE
FN:935,935,_ZNK3MAS7Flyback14get_efficiencyEv
FN:9352,9366,_ZN3MAS9from_jsonERKN8nlohmann16json_abi_v3_11_310basic_jsonISt3mapSt6vectorNSt7__cxx1112basic_stringIcSt11char_traitsIcESaIcEEEblmdSaNS1_14adl_serializerES4_IhSaIhEEvEERNS_5LayerE
FN:9368,9383,_ZN3MAS7to_jsonERN8nlohmann16json_abi_v3_11_310basic_jsonISt3mapSt6vectorNSt7__cxx1112basic_stringIcSt11char_traitsIcESaIcEEEblmdSaNS1_14adl_serializerES4_IhSaIhEEvEERKNS_5LayerE
FN:937,937,_ZN3MAS7Flyback14set_efficiencyERKd
FN:9385,9391,_ZN3MAS9from_jsonERKN8nlohmann16json_abi_v3_11_310basic_jsonISt3mapSt6vectorNSt7__cxx1112basic_stringIcSt11char_traitsIcESaIcEEEblmdSaNS1_14adl_serializerES4_IhSaIhEEvEERNS_10MarginInfoE
FN:9393,9400,_ZN3MAS7to_jsonERN8nlohmann16json_abi_v3_11_310basic_jsonISt3mapSt6vectorNSt7__cxx1112basic_stringIcSt11char_traitsIcESaIcEEEblmdSaNS1_14adl_serializerES4_IhSaIhEEvEERKNS_10MarginInfoE
FN:9402,9416,_ZN3MAS9from_jsonERKN8nlohmann16json_abi_v3_11_310basic_jsonISt3mapSt6vectorNSt7__cxx1112basic_stringIcSt11char_traitsIcESaIcEEEblmdSaNS1_14adl_serializerES4_IhSaIhEEvEERNS_7SectionE
FN:9418,9433,_ZN3MAS7to_jsonERN8nlohmann16json_abi_v3_11_310basic_jsonISt3mapSt6vectorNSt7__cxx1112basic_stringIcSt11char_traitsIcESaIcEEEblmdSaNS1_14adl_serializerES4_IhSaIhEEvEERKNS_7SectionE
FN:942,942,_ZNK3MAS7Flyback17get_input_voltageEv
FN:9435,9450,_ZN3MAS9from_jsonERKN8nlohmann16json_abi_v3_11_310basic_jsonISt3mapSt6vectorNSt7__cxx1112basic_stringIcSt11char_traitsIcESaIcEEEblmdSaNS1_14adl_serializerES4_IhSaIhEEvEERNS_4TurnE
FN:944,944,_ZN3MAS7Flyback17set_input_voltageERKNS_22DimensionWithToleranceE
FN:9452,9468,_ZN3MAS7to_jsonERN8nlohmann16json_abi_v3_11_310basic_jsonISt3mapSt6vectorNSt7__cxx1112basic_stringIcSt11char_traitsIcESaIcEEEblmdSaNS1_14adl_serializerES4_IhSaIhEEvEERKNS_4TurnE
FN:9470,9477,_ZN3MAS9from_jsonERKN8nlohmann16json_abi_v3_11_310basic_jsonISt3mapSt6vectorNSt7__cxx1112basic_stringIcSt11char_traitsIcESaIcEEEblmdSaNS1_14adl_serializerES4_IhSaIhEEvEERNS_4CoilE
FN:9489,9498,_ZN3MAS9from_jsonERKN8nlohmann16json_abi_v3_11_310basic_jsonISt3mapSt6vectorNSt7__cxx1112basic_stringIcSt11char_traitsIcESaIcEEEblmdSaNS1_14adl_serializerES4_IhSaIhEEvEERNS_7CoreGapE
FN:949,949,_ZNK3MAS7Flyback32get_maximum_drain_source_voltageEv
FN:950,950,_ZN3MAS7Flyback32set_maximum_drain_source_voltageESt8optionalIdE
FN:9500,9510,_ZN3MAS7to_jsonERN8nlohmann16json_abi_v3_11_310basic_jsonISt3mapSt6vectorNSt7__cxx1112basic_stringIcSt11char_traitsIcESaIcEEEblmdSaNS1_14adl_serializerES4_IhSaIhEEvEERKNS_7CoreGapE
FN:9512,9516,_ZN3MAS9from_jsonERKN8nlohmann16json_abi_v3_11_310basic_jsonISt3mapSt6vectorNSt7__cxx1112basic_stringIcSt11char_traitsIcESaIcEEEblmdSaNS1_14adl_serializerES4_IhSaIhEEvEERNS_14BhCycleElementE
FN:9518,9523,_ZN3MAS7to_jsonERN8nlohmann16json_abi_v3_11_310basic_jsonISt3mapSt6vectorNSt7__cxx1112basic_stringIcSt11char_traitsIcESaIcEEEblmdSaNS1_14adl_serializerES4_IhSaIhEEvEERKNS_14BhCycleElementE
FN:9525,9530,_ZN3MAS9from_jsonERKN8nlohmann16json_abi_v3_11_310basic_jsonISt3mapSt6vectorNSt7__cxx1112basic_stringIcSt11char_traitsIcESaIcEEEblmdSaNS1_14adl_serializerES4_IhSaIhEEvEERNS_15MassLossesPointE
FN:9532,9538,_ZN3MAS7to_jsonERN8nlohmann16json_abi_v3_11_310basic_jsonISt3mapSt6vectorNSt7__cxx1112basic_stringIcSt11char_traitsIcESaIcEEEblmdSaNS1_14adl_serializerES4_IhSaIhEEvEERKNS_15MassLossesPointE
FN:9540,9542,_ZN3MAS9from_jsonERKN8nlohmann16json_abi_v3_11_310basic_jsonISt3mapSt6vectorNSt7__cxx1112basic_stringIcSt11char_traitsIcESaIcEEEblmdSaNS1_14adl_serializerES4_IhSaIhEEvEERNS_28MagnetecCoreLossesMethodDataE
FN:9544,9547,_ZN3MAS7to_jsonERN8nlohmann16json_abi_v3_11_310basic_jsonISt3mapSt6vectorNSt7__cxx1112basic_stringIcSt11char_traitsIcESaIcEEEblmdSaNS1_14adl_serializerES4_IhSaIhEEvEERKNS_28MagnetecCoreLossesMethodDataE
FN:9549,9555,_ZN3MAS9from_jsonERKN8nlohmann16json_abi_v3_11_310basic_jsonISt3mapSt6vectorNSt7__cxx1112basic_stringIcSt11char_traitsIcESaIcEEEblmdSaNS1_14adl_serializerES4_IhSaIhEEvEERNS_15FrequencyFactorE
FN:955,955,_ZNK3MAS7Flyback22get_maximum_duty_cycleEv
FN:9557,9564,_ZN3MAS7to_jsonERN8nlohmann16json_abi_v3_11_310basic_jsonISt3mapSt6vectorNSt7__cxx1112basic_stringIcSt11char_traitsIcESaIcEEEblmdSaNS1_14adl_serializerES4_IhSaIhEEvEERKNS_15FrequencyFactorE
FN:956,956,_ZN3MAS7Flyback22set_maximum_duty_cycleESt8optionalIdE
FN:9566,9571,_ZN3MAS9from_jsonERKN8nlohmann16json_abi_v3_11_310basic_jsonISt3mapSt6vectorNSt7__cxx1112basic_stringIcSt11char_traitsIcESaIcEEEblmdSaNS1_14adl_serializerES4_IhSaIhEEvEERNS_25MagneticFieldDcBiasFactorE
FN:9573,9579,_ZN3MAS7to_jsonERN8nlohmann16json_abi_v3_11_310basic_jsonISt3mapSt6vectorNSt7__cxx1112basic_stringIcSt11char_traitsIcESaIcEEEblmdSaNS1_14adl_serializerES4_IhSaIhEEvEERKNS_25MagneticFieldDcBiasFactorE
FN:9581,9588,_ZN3MAS9from_jsonERKN8nlohmann16json_abi_v3_11_310basic_jsonISt3mapSt6vectorNSt7__cxx1112basic_stringIcSt11char_traitsIcESaIcEEEblmdSaNS1_14adl_serializerES4_IhSaIhEEvEERNS_25MagneticFluxDensityFactorE
FN:9590,9598,_ZN3MAS7to_jsonERN8nlohmann16json_abi_v3_11_310basic_jsonISt3mapSt6vectorNSt7__cxx1112basic_stringIcSt11char_traitsIcESaIcEEEblmdSaNS1_14adl_serializerES4_IhSaIhEEvEERKNS_25MagneticFluxDensityFactorE
FN:96,96,_ZN3MAS30ClassMemberConstraintExceptionC2ERKNSt7__cxx1112basic_stringIcSt11char_traitsIcESaIcEEE
FN:9600,9606,_ZN3MAS9from_jsonERKN8nlohmann16json_abi_v3_11_310basic_jsonISt3mapSt6vectorNSt7__cxx1112basic_stringIcSt11char_traitsIcESaIcEEEblmdSaNS1_14adl_serializerES4_IhSaIhEEvEERNS_17TemperatureFactorE
FN:9608,9615,_ZN3MAS7to_jsonERN8nlohmann16json_abi_v3_11_310basic_jsonISt3mapSt6vectorNSt7__cxx1112basic_stringIcSt11char_traitsIcESaIcEEEblmdSaNS1_14adl_serializerES4_IhSaIhEEvEERKNS_17TemperatureFactorE
FN:9617,9623,_ZN3MAS9from_jsonERKN8nlohmann16json_abi_v3_11_310basic_jsonISt3mapSt6vectorNSt7__cxx1112basic_stringIcSt11char_traitsIcESaIcEEEblmdSaNS1_14adl_serializerES4_IhSaIhEEvEERNS_26InitialPermeabilitModifierE
FN:9625,9632,_ZN3MAS7to_jsonERN8nlohmann16json_abi_v3_11_310basic_jsonISt3mapSt6vectorNSt7__cxx1112basic_stringIcSt11char_traitsIcESaIcEEEblmdSaNS1_14adl_serializerES4_IhSaIhEEvEERKNS_26InitialPermeabilitModifierE
FN:963,963,_ZN3MAS7Flyback20set_operating_pointsERKSt6vectorINS_21FlybackOperatingPointESaIS2_EE
FN:9634,9642,_ZN3MAS9from_jsonERKN8nlohmann16json_abi_v3_11_310basic_jsonISt3mapSt6vectorNSt7__cxx1112basic_stringIcSt11char_traitsIcESaIcEEEblmdSaNS1_14adl_serializerES4_IhSaIhEEvEERNS_17PermeabilityPointE
FN:9644,9653,_ZN3MAS7to_jsonERN8nlohmann16json_abi_v3_11_310basic_jsonISt3mapSt6vectorNSt7__cxx1112basic_stringIcSt11char_traitsIcESaIcEEEblmdSaNS1_14adl_serializerES4_IhSaIhEEvEERKNS_17PermeabilityPointE
FN:9655,9658,_ZN3MAS9from_jsonERKN8nlohmann16json_abi_v3_11_310basic_jsonISt3mapSt6vectorNSt7__cxx1112basic_stringIcSt11char_traitsIcESaIcEEEblmdSaNS1_14adl_serializerES4_IhSaIhEEvEERNS_23ComplexPermeabilityDataE
FN:9660,9664,_ZN3MAS7to_jsonERN8nlohmann16json_abi_v3_11_310basic_jsonISt3mapSt6vectorNSt7__cxx1112basic_stringIcSt11char_traitsIcESaIcEEEblmdSaNS1_14adl_serializerES4_IhSaIhEEvEERKNS_23ComplexPermeabilityDataE
FN:9666,9670,_ZN3MAS9from_jsonERKN8nlohmann16json_abi_v3_11_310basic_jsonISt3mapSt6vectorNSt7__cxx1112basic_stringIcSt11char_traitsIcESaIcEEEblmdSaNS1_14adl_serializerES4_IhSaIhEEvEERNS_14PermeabilitiesE
FN:9672,9677,_ZN3MAS7to_jsonERN8nlohmann16json_abi_v3_11_310basic_jsonISt3mapSt6vectorNSt7__cxx1112basic_stringIcSt11char_traitsIcESaIcEEEblmdSaNS1_14adl_serializerES4_IhSaIhEEvEERKNS_14PermeabilitiesE
FN:9679,9686,_ZN3MAS9from_jsonERKN8nlohmann16json_abi_v3_11_310basic_jsonISt3mapSt6vectorNSt7__cxx1112basic_stringIcSt11char_traitsIcESaIcEEEblmdSaNS1_14adl_serializerES4_IhSaIhEEvEERNS_27CoreMaterialRecommendationsE
FN:9688,9696,_ZN3MAS7to_jsonERN8nlohmann16json_abi_v3_11_310basic_jsonISt3mapSt6vectorNSt7__cxx1112basic_stringIcSt11char_traitsIcESaIcEEEblmdSaNS1_14adl_serializerES4_IhSaIhEEvEERKNS_27CoreMaterialRecommendationsE
FN:9698,9703,_ZN3MAS9from_jsonERKN8nlohmann16json_abi_v3_11_310basic_jsonISt3mapSt6vectorNSt7__cxx1112basic_stringIcSt11char_traitsIcESaIcEEEblmdSaNS1_14adl_serializerES4_IhSaIhEEvEERNS_21VolumetricLossesPointE
FN:9705,9711,_ZN3MAS7to_jsonERN8nlohmann16json_abi_v3_11_310basic_jsonISt3mapSt6vectorNSt7__cxx1112basic_stringIcSt11char_traitsIcESaIcEEEblmdSaNS1_14adl_serializerES4_IhSaIhEEvEERKNS_21VolumetricLossesPointE
FN:971,971,_ZN3MAS21ForwardOperatingPointC2Ev
FN:9713,9719,_ZN3MAS9from_jsonERKN8nlohmann16json_abi_v3_11_310basic_jsonISt3mapSt6vectorNSt7__cxx1112basic_stringIcSt11char_traitsIcESaIcEEEblmdSaNS1_14adl_serializerES4_IhSaIhEEvEERNS_28RoshenAdditionalCoefficientsE
FN:972,972,_ZN3MAS21ForwardOperatingPointD0Ev
FN:972,972,_ZN3MAS21ForwardOperatingPointD2Ev
FN:9721,9728,_ZN3MAS7to_jsonERN8nlohmann16json_abi_v3_11_310basic_jsonISt3mapSt6vectorNSt7__cxx1112basic_stringIcSt11char_traitsIcESaIcEEEblmdSaNS1_14adl_serializerES4_IhSaIhEEvEERKNS_28RoshenAdditionalCoefficientsE
FN:9730,9734,_ZN3MAS9from_jsonERKN8nlohmann16json_abi_v3_11_310basic_jsonISt3mapSt6vectorNSt7__cxx1112basic_stringIcSt11char_traitsIcESaIcEEEblmdSaNS1_14adl_serializerES4_IhSaIhEEvEERNS_15LossFactorPointE
FN:9736,9741,_ZN3MAS7to_jsonERN8nlohmann16json_abi_v3_11_310basic_jsonISt3mapSt6vectorNSt7__cxx1112basic_stringIcSt11char_traitsIcESaIcEEEblmdSaNS1_14adl_serializerES4_IhSaIhEEvEERKNS_15LossFactorPointE
FN:9743,9752,_ZN3MAS9from_jsonERKN8nlohmann16json_abi_v3_11_310basic_jsonISt3mapSt6vectorNSt7__cxx1112basic_stringIcSt11char_traitsIcESaIcEEEblmdSaNS1_14adl_serializerES4_IhSaIhEEvEERNS_35SteinmetzCoreLossesMethodRangeDatumE
FN:9754,9764,_ZN3MAS7to_jsonERN8nlohmann16json_abi_v3_11_310basic_jsonISt3mapSt6vectorNSt7__cxx1112basic_stringIcSt11char_traitsIcESaIcEEEblmdSaNS1_14adl_serializerES4_IhSaIhEEvEERKNS_35SteinmetzCoreLossesMethodRangeDatumE
FN:9766,9776,_ZN3MAS9from_jsonERKN8nlohmann16json_abi_v3_11_310basic_jsonISt3mapSt6vectorNSt7__cxx1112basic_stringIcSt11char_traitsIcESaIcEEEblmdSaNS1_14adl_serializerES4_IhSaIhEEvEERNS_20CoreLossesMethodDataE
FN:9778,9789,_ZN3MAS7to_jsonERN8nlohmann16json_abi_v3_11_310basic_jsonISt3mapSt6vectorNSt7__cxx1112basic_stringIcSt11char_traitsIcESaIcEEEblmdSaNS1_14adl_serializerES4_IhSaIhEEvEERKNS_20CoreLossesMethodDataE
FN:9791,9814,_ZN3MAS9from_jsonERKN8nlohmann16json_abi_v3_11_310basic_jsonISt3mapSt6vectorNSt7__cxx1112basic_stringIcSt11char_traitsIcESaIcEEEblmdSaNS1_14adl_serializerES4_IhSaIhEEvEERNS_12CoreMaterialE
FN:9816,9840,_ZN3MAS7to_jsonERN8nlohmann16json_abi_v3_11_310basic_jsonISt3mapSt6vectorNSt7__cxx1112basic_stringIcSt11char_traitsIcESaIcEEEblmdSaNS1_14adl_serializerES4_IhSaIhEEvEERKNS_12CoreMaterialE
FN:984,984,_ZNK3MAS21ForwardOperatingPoint23get_ambient_temperatureEv
FN:9842,9850,_ZN3MAS9from_jsonERKN8nlohmann16json_abi_v3_11_310basic_jsonISt3mapSt6vectorNSt7__cxx1112basic_stringIcSt11char_traitsIcESaIcEEEblmdSaNS1_14adl_serializerES4_IhSaIhEEvEERNS_9CoreShapeE
FN:9852,9861,_ZN3MAS7to_jsonERN8nlohmann16json_abi_v3_11_310basic_jsonISt3mapSt6vectorNSt7__cxx1112basic_stringIcSt11char_traitsIcESaIcEEEblmdSaNS1_14adl_serializerES4_IhSaIhEEvEERKNS_9CoreShapeE
FN:986,986,_ZN3MAS21ForwardOperatingPoint23set_ambient_temperatureERKd
FN:9863,9870,_ZN3MAS9from_jsonERKN8nlohmann16json_abi_v3_11_310basic_jsonISt3mapSt6vectorNSt7__cxx1112basic_stringIcSt11char_traitsIcESaIcEEEblmdSaNS1_14adl_serializerES4_IhSaIhEEvEERNS_25CoreFunctionalDescriptionE
FN:9872,9880,_ZN3MAS7to_jsonERN8nlohmann16json_abi_v3_11_310basic_jsonISt3mapSt6vectorNSt7__cxx1112basic_stringIcSt11char_traitsIcESaIcEEEblmdSaNS1_14adl_serializerES4_IhSaIhEEvEERKNS_25CoreFunctionalDescriptionE
FN:9882,9885,_ZN3MAS9from_jsonERKN8nlohmann16json_abi_v3_11_310basic_jsonISt3mapSt6vectorNSt7__cxx1112basic_stringIcSt11char_traitsIcESaIcEEEblmdSaNS1_14adl_serializerES4_IhSaIhEEvEERNS_9MachiningE
FN:9887,9891,_ZN3MAS7to_jsonERN8nlohmann16json_abi_v3_11_310basic_jsonISt3mapSt6vectorNSt7__cxx1112basic_stringIcSt11char_traitsIcESaIcEEEblmdSaNS1_14adl_serializerES4_IhSaIhEEvEERKNS_9MachiningE
FN:9893,9902,_ZN3MAS9from_jsonERKN8nlohmann16json_abi_v3_11_310basic_jsonISt3mapSt6vectorNSt7__cxx1112basic_stringIcSt11char_traitsIcESaIcEEEblmdSaNS1_14adl_serializerES4_IhSaIhEEvEERNS_33CoreGeometricalDescriptionElementE
FN:9904,9914,_ZN3MAS7to_jsonERN8nlohmann16json_abi_v3_11_310basic_jsonISt3mapSt6vectorNSt7__cxx1112basic_stringIcSt11char_traitsIcESaIcEEEblmdSaNS1_14adl_serializerES4_IhSaIhEEvEERKNS_33CoreGeometricalDescriptionElementE
FN:991,991,_ZNK3MAS21ForwardOperatingPoint19get_output_currentsEv
FN:9916,9926,_ZN3MAS9from_jsonERKN8nlohmann16json_abi_v3_11_310basic_jsonISt3mapSt6vectorNSt7__cxx1112basic_stringIcSt11char_traitsIcESaIcEEEblmdSaNS1_14adl_serializerES4_IhSaIhEEvEERNS_13ColumnElementE
FN:9928,9939,_ZN3MAS7to_jsonERN8nlohmann16json_abi_v3_11_310basic_jsonISt3mapSt6vectorNSt7__cxx1112basic_stringIcSt11char_traitsIcESaIcEEEblmdSaNS1_14adl_serializerES4_IhSaIhEEvEERKNS_13ColumnElementE
FN:993,993,_ZN3MAS21ForwardOperatingPoint19set_output_currentsERKSt6vectorIdSaIdEE
FN:9941,9946,_ZN3MAS9from_jsonERKN8nlohmann16json_abi_v3_11_310basic_jsonISt3mapSt6vectorNSt7__cxx1112basic_stringIcSt11char_traitsIcESaIcEEEblmdSaNS1_14adl_serializerES4_IhSaIhEEvEERNS_19EffectiveParametersE
FN:9948,9954,_ZN3MAS7to_jsonERN8nlohmann16json_abi_v3_11_310basic_jsonISt3mapSt6vectorNSt7__cxx1112basic_stringIcSt11char_traitsIcESaIcEEEblmdSaNS1_14adl_serializerES4_IhSaIhEEvEERKNS_19EffectiveParametersE
FN:9956,9964,_ZN3MAS9from_jsonERKN8nlohmann16json_abi_v3_11_310basic_jsonISt3mapSt6vectorNSt7__cxx1112basic_stringIcSt11char_traitsIcESaIcEEEblmdSaNS1_14adl_serializerES4_IhSaIhEEvEERNS_24CoreProcessedDescriptionE
FN:9966,9975,_ZN3MAS7to_jsonERN8nlohmann16json_abi_v3_11_310basic_jsonISt3mapSt6vectorNSt7__cxx1112basic_stringIcSt11char_traitsIcESaIcEEEblmdSaNS1_14adl_serializerES4_IhSaIhEEvEERKNS_24CoreProcessedDescriptionE
FN:9977,9984,_ZN3MAS9from_jsonERKN8nlohmann16json_abi_v3_11_310basic_jsonISt3mapSt6vectorNSt7__cxx1112basic_stringIcSt11char_traitsIcESaIcEEEblmdSaNS1_14adl_serializerES4_IhSaIhEEvEERNS_12MagneticCoreE
FN:998,998,_ZNK3MAS21ForwardOperatingPoint19get_output_voltagesEv
FN:9986,9994,_ZN3MAS7to_jsonERN8nlohmann16json_abi_v3_11_310basic_jsonISt3mapSt6vectorNSt7__cxx1112basic_stringIcSt11char_traitsIcESaIcEEEblmdSaNS1_14adl_serializerES4_IhSaIhEEvEERKNS_12MagneticCoreE
FN:9996,10008,_ZN3MAS9from_jsonERKN8nlohmann16json_abi_v3_11_310basic_jsonISt3mapSt6vectorNSt7__cxx1112basic_stringIcSt11char_traitsIcESaIcEEEblmdSaNS1_14adl_serializerES4_IhSaIhEEvEERNS_35MagneticManufacturerRecommendationsE
FNDA:0,_ZN3MAS21ForwardOperatingPoint19set_output_voltagesERKSt6vectorIdSaIdEE
FNDA:0,_ZN3MAS7to_jsonERN8nlohmann16json_abi_v3_11_310basic_jsonISt3mapSt6vectorNSt7__cxx1112basic_stringIcSt11char_traitsIcESaIcEEEblmdSaNS1_14adl_serializerES4_IhSaIhEEvEERKNS_35MagneticManufacturerRecommendationsE
FNDA:0,_ZN3MAS9from_jsonERKN8nlohmann16json_abi_v3_11_310basic_jsonISt3mapSt6vectorNSt7__cxx1112basic_stringIcSt11char_traitsIcESaIcEEEblmdSaNS1_14adl_serializerES4_IhSaIhEEvEERNS_24MagneticManufacturerInfoE
FNDA:0,_ZN3MAS7to_jsonERN8nlohmann16json_abi_v3_11_310basic_jsonISt3mapSt6vectorNSt7__cxx1112basic_stringIcSt11char_traitsIcESaIcEEEblmdSaNS1_14adl_serializerES4_IhSaIhEEvEERKNS_24MagneticManufacturerInfoE
FNDA:0,_ZNK3MAS21ForwardOperatingPoint23get_switching_frequencyEv
FNDA:0,_ZN3MAS9from_jsonERKN8nlohmann16json_abi_v3_11_310basic_jsonISt3mapSt6vectorNSt7__cxx1112basic_stringIcSt11char_traitsIcESaIcEEEblmdSaNS1_14adl_serializerES4_IhSaIhEEvEERNS_8MagneticE
FNDA:0,_ZN3MAS9from_jsonERKN8nlohmann16json_abi_v3_11_310basic_jsonISt3mapSt6vectorNSt7__cxx1112basic_stringIcSt11char_traitsIcESaIcEEEblmdSaNS1_14adl_serializerES4_IhSaIhEEvEERNS_16CoreLossesOutputE
FNDA:0,_ZN3MAS21ForwardOperatingPoint23set_switching_frequencyERKd
FNDA:0,_ZN3MAS7to_jsonERN8nlohmann16json_abi_v3_11_310basic_jsonISt3mapSt6vectorNSt7__cxx1112basic_stringIcSt11char_traitsIcESaIcEEEblmdSaNS1_14adl_serializerES4_IhSaIhEEvEERKNS_16CoreLossesOutputE
FNDA:0,_ZN3MAS9from_jsonERKN8nlohmann16json_abi_v3_11_310basic_jsonISt3mapSt6vectorNSt7__cxx1112basic_stringIcSt11char_traitsIcESaIcEEEblmdSaNS1_14adl_serializerES4_IhSaIhEEvEERNS_24ComplexMatrixAtFrequencyE
FNDA:0,_ZN3MAS7to_jsonERN8nlohmann16json_abi_v3_11_310basic_jsonISt3mapSt6vectorNSt7__cxx1112basic_stringIcSt11char_traitsIcESaIcEEEblmdSaNS1_14adl_serializerES4_IhSaIhEEvEERKNS_24ComplexMatrixAtFrequencyE
FNDA:0,_ZN3MAS20ValueTooLowExceptionC2ERKNSt7__cxx1112basic_stringIcSt11char_traitsIcESaIcEEE
FNDA:0,_ZN3MAS9from_jsonERKN8nlohmann16json_abi_v3_11_310basic_jsonISt3mapSt6vectorNSt7__cxx1112basic_stringIcSt11char_traitsIcESaIcEEEblmdSaNS1_14adl_serializerES4_IhSaIhEEvEERNS_23ScalarMatrixAtFrequencyE
FNDA:0,_ZN3MAS7to_jsonERN8nlohmann16json_abi_v3_11_310basic_jsonISt3mapSt6vectorNSt7__cxx1112basic_stringIcSt11char_traitsIcESaIcEEEblmdSaNS1_14adl_serializerES4_IhSaIhEEvEERKNS_23ScalarMatrixAtFrequencyE
FNDA:0,_ZN3MAS9from_jsonERKN8nlohmann16json_abi_v3_11_310basic_jsonISt3mapSt6vectorNSt7__cxx1112basic_stringIcSt11char_traitsIcESaIcEEEblmdSaNS1_14adl_serializerES4_IhSaIhEEvEERNS_15ImpedanceOutputE
FNDA:0,_ZN3MAS7to_jsonERN8nlohmann16json_abi_v3_11_310basic_jsonISt3mapSt6vectorNSt7__cxx1112basic_stringIcSt11char_traitsIcESaIcEEEblmdSaNS1_14adl_serializerES4_IhSaIhEEvEERKNS_15ImpedanceOutputE
FNDA:0,_ZN3MAS9from_jsonERKN8nlohmann16json_abi_v3_11_310basic_jsonISt3mapSt6vectorNSt7__cxx1112basic_stringIcSt11char_traitsIcESaIcEEEblmdSaNS1_14adl_serializerES4_IhSaIhEEvEERNS_23LeakageInductanceOutputE
FNDA:0,_ZN3MAS7to_jsonERN8nlohmann16json_abi_v3_11_310basic_jsonISt3mapSt6vectorNSt7__cxx1112basic_stringIcSt11char_traitsIcESaIcEEEblmdSaNS1_14adl_serializerES4_IhSaIhEEvEERKNS_23LeakageInductanceOutputE
FNDA:0,_ZN3MAS9from_jsonERKN8nlohmann16json_abi_v3_11_310basic_jsonISt3mapSt6vectorNSt7__cxx1112basic_stringIcSt11char_traitsIcESaIcEEEblmdSaNS1_14adl_serializerES4_IhSaIhEEvEERNS_22AirGapReluctanceOutputE
FNDA:0,_ZN3MAS7ForwardC2Ev
FNDA:0,_ZN3MAS7to_jsonERN8nlohmann16json_abi_v3_11_310basic_jsonISt3mapSt6vectorNSt7__cxx1112basic_stringIcSt11char_traitsIcESaIcEEEblmdSaNS1_14adl_serializerES4_IhSaIhEEvEERKNS_22AirGapReluctanceOutputE
FNDA:0,_ZN3MAS7ForwardD0Ev
FNDA:0,_ZN3MAS7ForwardD2Ev
FNDA:0,_ZN3MAS9from_jsonERKN8nlohmann16json_abi_v3_11_310basic_jsonISt3mapSt6vectorNSt7__cxx1112basic_stringIcSt11char_traitsIcESaIcEEEblmdSaNS1_14adl_serializerES4_IhSaIhEEvEERNS_27MagnetizingInductanceOutputE
FNDA:0,_ZN3MAS7to_jsonERN8nlohmann16json_abi_v3_11_310basic_jsonISt3mapSt6vectorNSt7__cxx1112basic_stringIcSt11char_traitsIcESaIcEEEblmdSaNS1_14adl_serializerES4_IhSaIhEEvEERKNS_27MagnetizingInductanceOutputE
FNDA:0,_ZN3MAS9from_jsonERKN8nlohmann16json_abi_v3_11_310basic_jsonISt3mapSt6vectorNSt7__cxx1112basic_stringIcSt11char_traitsIcESaIcEEEblmdSaNS1_14adl_serializerES4_IhSaIhEEvEERNS_16InductanceOutputE
FNDA:0,_ZN3MAS7to_jsonERN8nlohmann16json_abi_v3_11_310basic_jsonISt3mapSt6vectorNSt7__cxx1112basic_stringIcSt11char_traitsIcESaIcEEEblmdSaNS1_14adl_serializerES4_IhSaIhEEvEERKNS_16InductanceOutputE
FNDA:0,_ZN3MAS9from_jsonERKN8nlohmann16json_abi_v3_11_310basic_jsonISt3mapSt6vectorNSt7__cxx1112basic_stringIcSt11char_traitsIcESaIcEEEblmdSaNS1_14adl_serializerES4_IhSaIhEEvEERNS_17DielectricVoltageE
FNDA:0,_ZN3MAS7to_jsonERN8nlohmann16json_abi_v3_11_310basic_jsonISt3mapSt6vectorNSt7__cxx1112basic_stringIcSt11char_traitsIcESaIcEEEblmdSaNS1_14adl_serializerES4_IhSaIhEEvEERKNS_17DielectricVoltageE
FNDA:0,_ZN3MAS9from_jsonERKN8nlohmann16json_abi_v3_11_310basic_jsonISt3mapSt6vectorNSt7__cxx1112basic_stringIcSt11char_traitsIcESaIcEEEblmdSaNS1_14adl_serializerES4_IhSaIhEEvEERNS_28InsulationCoordinationOutputE
FNDA:0,_ZN3MAS7to_jsonERN8nlohmann16json_abi_v3_11_310basic_jsonISt3mapSt6vectorNSt7__cxx1112basic_stringIcSt11char_traitsIcESaIcEEEblmdSaNS1_14adl_serializerES4_IhSaIhEEvEERKNS_28InsulationCoordinationOutputE
FNDA:0,_ZN3MAS9from_jsonERKN8nlohmann16json_abi_v3_11_310basic_jsonISt3mapSt6vectorNSt7__cxx1112basic_stringIcSt11char_traitsIcESaIcEEEblmdSaNS1_14adl_serializerES4_IhSaIhEEvEERNS_29SixCapacitorNetworkPerWindingE
FNDA:0,_ZN3MAS7to_jsonERN8nlohmann16json_abi_v3_11_310basic_jsonISt3mapSt6vectorNSt7__cxx1112basic_stringIcSt11char_traitsIcESaIcEEEblmdSaNS1_14adl_serializerES4_IhSaIhEEvEERKNS_29SixCapacitorNetworkPerWindingE
FNDA:0,_ZN3MAS9from_jsonERKN8nlohmann16json_abi_v3_11_310basic_jsonISt3mapSt6vectorNSt7__cxx1112basic_stringIcSt11char_traitsIcESaIcEEEblmdSaNS1_14adl_serializerES4_IhSaIhEEvEERNS_28TripoleCapacitancePerWindingE
FNDA:0,_ZN3MAS7to_jsonERN8nlohmann16json_abi_v3_11_310basic_jsonISt3mapSt6vectorNSt7__cxx1112basic_stringIcSt11char_traitsIcESaIcEEEblmdSaNS1_14adl_serializerES4_IhSaIhEEvEERKNS_28TripoleCapacitancePerWindingE
FNDA:0,_ZN3MAS9from_jsonERKN8nlohmann16json_abi_v3_11_310basic_jsonISt3mapSt6vectorNSt7__cxx1112basic_stringIcSt11char_traitsIcESaIcEEEblmdSaNS1_14adl_serializerES4_IhSaIhEEvEERNS_22StrayCapacitanceOutputE
FNDA:0,_ZN3MAS7to_jsonERN8nlohmann16json_abi_v3_11_310basic_jsonISt3mapSt6vectorNSt7__cxx1112basic_stringIcSt11char_traitsIcESaIcEEEblmdSaNS1_14adl_serializerES4_IhSaIhEEvEERKNS_22StrayCapacitanceOutputE
FNDA:0,_ZN3MAS9from_jsonERKN8nlohmann16json_abi_v3_11_310basic_jsonISt3mapSt6vectorNSt7__cxx1112basic_stringIcSt11char_traitsIcESaIcEEEblmdSaNS1_14adl_serializerES4_IhSaIhEEvEERNS_16TemperaturePointE
FNDA:0,_ZNK3MAS7Forward24get_current_ripple_ratioEv
FNDA:0,_ZN3MAS7to_jsonERN8nlohmann16json_abi_v3_11_310basic_jsonISt3mapSt6vectorNSt7__cxx1112basic_stringIcSt11char_traitsIcESaIcEEEblmdSaNS1_14adl_serializerES4_IhSaIhEEvEERKNS_16TemperaturePointE
FNDA:0,_ZN3MAS9from_jsonERKN8nlohmann16json_abi_v3_11_310basic_jsonISt3mapSt6vectorNSt7__cxx1112basic_stringIcSt11char_traitsIcESaIcEEEblmdSaNS1_14adl_serializerES4_IhSaIhEEvEERNS_17TemperatureOutputE
FNDA:0,_ZN3MAS7to_jsonERN8nlohmann16json_abi_v3_11_310basic_jsonISt3mapSt6vectorNSt7__cxx1112basic_stringIcSt11char_traitsIcESaIcEEEblmdSaNS1_14adl_serializerES4_IhSaIhEEvEERKNS_17TemperatureOutputE
FNDA:0,_ZN3MAS7Forward24set_current_ripple_ratioERKd
FNDA:0,_ZN3MAS9from_jsonERKN8nlohmann16json_abi_v3_11_310basic_jsonISt3mapSt6vectorNSt7__cxx1112basic_stringIcSt11char_traitsIcESaIcEEEblmdSaNS1_14adl_serializerES4_IhSaIhEEvEERNS_11OhmicLossesE
FNDA:0,_ZN3MAS7to_jsonERN8nlohmann16json_abi_v3_11_310basic_jsonISt3mapSt6vectorNSt7__cxx1112basic_stringIcSt11char_traitsIcESaIcEEEblmdSaNS1_14adl_serializerES4_IhSaIhEEvEERKNS_11OhmicLossesE
FNDA:0,_ZN3MAS9from_jsonERKN8nlohmann16json_abi_v3_11_310basic_jsonISt3mapSt6vectorNSt7__cxx1112basic_stringIcSt11char_traitsIcESaIcEEEblmdSaNS1_14adl_serializerES4_IhSaIhEEvEERNS_18WindingLossElementE
FNDA:0,_ZN3MAS7to_jsonERN8nlohmann16json_abi_v3_11_310basic_jsonISt3mapSt6vectorNSt7__cxx1112basic_stringIcSt11char_traitsIcESaIcEEEblmdSaNS1_14adl_serializerES4_IhSaIhEEvEERKNS_18WindingLossElementE
FNDA:0,_ZN3MAS9from_jsonERKN8nlohmann16json_abi_v3_11_310basic_jsonISt3mapSt6vectorNSt7__cxx1112basic_stringIcSt11char_traitsIcESaIcEEEblmdSaNS1_14adl_serializerES4_IhSaIhEEvEERNS_23WindingLossesPerElementE
FNDA:0,_ZN3MAS7to_jsonERN8nlohmann16json_abi_v3_11_310basic_jsonISt3mapSt6vectorNSt7__cxx1112basic_stringIcSt11char_traitsIcESaIcEEEblmdSaNS1_14adl_serializerES4_IhSaIhEEvEERKNS_23WindingLossesPerElementE
FNDA:0,_ZN3MAS9from_jsonERKN8nlohmann16json_abi_v3_11_310basic_jsonISt3mapSt6vectorNSt7__cxx1112basic_stringIcSt11char_traitsIcESaIcEEEblmdSaNS1_14adl_serializerES4_IhSaIhEEvEERNS_19WindingLossesOutputE
FNDA:0,_ZNK3MAS7Forward22get_diode_voltage_dropEv
FNDA:0,_ZN3MAS7to_jsonERN8nlohmann16json_abi_v3_11_310basic_jsonISt3mapSt6vectorNSt7__cxx1112basic_stringIcSt11char_traitsIcESaIcEEEblmdSaNS1_14adl_serializerES4_IhSaIhEEvEERKNS_19WindingLossesOutputE
FNDA:0,_ZN3MAS7Forward22set_diode_voltage_dropERKd
FNDA:0,_ZN3MAS9from_jsonERKN8nlohmann16json_abi_v3_11_310basic_jsonISt3mapSt6vectorNSt7__cxx1112basic_stringIcSt11char_traitsIcESaIcEEEblmdSaNS1_14adl_serializerES4_IhSaIhEEvEERNS_10FieldPointE
FNDA:0,_ZN3MAS7to_jsonERN8nlohmann16json_abi_v3_11_310basic_jsonISt3mapSt6vectorNSt7__cxx1112basic_stringIcSt11char_traitsIcESaIcEEEblmdSaNS1_14adl_serializerES4_IhSaIhEEvEERKNS_10FieldPointE
FNDA:0,_ZN3MAS9from_jsonERKN8nlohmann16json_abi_v3_11_310basic_jsonISt3mapSt6vectorNSt7__cxx1112basic_stringIcSt11char_traitsIcESaIcEEEblmdSaNS1_14adl_serializerES4_IhSaIhEEvEERNS_5FieldE
FNDA:0,_ZN3MAS7to_jsonERN8nlohmann16json_abi_v3_11_310basic_jsonISt3mapSt6vectorNSt7__cxx1112basic_stringIcSt11char_traitsIcESaIcEEEblmdSaNS1_14adl_serializerES4_IhSaIhEEvEERKNS_5FieldE
FNDA:0,_ZN3MAS9from_jsonERKN8nlohmann16json_abi_v3_11_310basic_jsonISt3mapSt6vectorNSt7__cxx1112basic_stringIcSt11char_traitsIcESaIcEEEblmdSaNS1_14adl_serializerES4_IhSaIhEEvEERNS_38WindingWindowCurrentDensityFieldOutputE
FNDA:0,_ZN3MAS7to_jsonERN8nlohmann16json_abi_v3_11_310basic_jsonISt3mapSt6vectorNSt7__cxx1112basic_stringIcSt11char_traitsIcESaIcEEEblmdSaNS1_14adl_serializerES4_IhSaIhEEvEERKNS_38WindingWindowCurrentDensityFieldOutputE
FNDA:0,_ZNK3MAS7Forward14get_duty_cycleEv
FNDA:0,_ZN3MAS9from_jsonERKN8nlohmann16json_abi_v3_11_310basic_jsonISt3mapSt6vectorNSt7__cxx1112basic_stringIcSt11char_traitsIcESaIcEEEblmdSaNS1_14adl_serializerES4_IhSaIhEEvEERNS_31WindingWindowCurrentFieldOutputE
FNDA:0,_ZN3MAS7Forward14set_duty_cycleESt8optionalIdE
FNDA:0,_ZN3MAS7to_jsonERN8nlohmann16json_abi_v3_11_310basic_jsonISt3mapSt6vectorNSt7__cxx1112basic_stringIcSt11char_traitsIcESaIcEEEblmdSaNS1_14adl_serializerES4_IhSaIhEEvEERKNS_31WindingWindowCurrentFieldOutputE
FNDA:0,_ZN3MAS9from_jsonERKN8nlohmann16json_abi_v3_11_310basic_jsonISt3mapSt6vectorNSt7__cxx1112basic_stringIcSt11char_traitsIcESaIcEEEblmdSaNS1_14adl_serializerES4_IhSaIhEEvEERNS_17ComplexFieldPointE
FNDA:0,_ZN3MAS7to_jsonERN8nlohmann16json_abi_v3_11_310basic_jsonISt3mapSt6vectorNSt7__cxx1112basic_stringIcSt11char_traitsIcESaIcEEEblmdSaNS1_14adl_serializerES4_IhSaIhEEvEERKNS_17ComplexFieldPointE
FNDA:0,_ZN3MAS9from_jsonERKN8nlohmann16json_abi_v3_11_310basic_jsonISt3mapSt6vectorNSt7__cxx1112basic_stringIcSt11char_traitsIcESaIcEEEblmdSaNS1_14adl_serializerES4_IhSaIhEEvEERNS_12ComplexFieldE
FNDA:0,_ZN3MAS7to_jsonERN8nlohmann16json_abi_v3_11_310basic_jsonISt3mapSt6vectorNSt7__cxx1112basic_stringIcSt11char_traitsIcESaIcEEEblmdSaNS1_14adl_serializerES4_IhSaIhEEvEERKNS_12ComplexFieldE
FNDA:0,_ZN3MAS9from_jsonERKN8nlohmann16json_abi_v3_11_310basic_jsonISt3mapSt6vectorNSt7__cxx1112basic_stringIcSt11char_traitsIcESaIcEEEblmdSaNS1_14adl_serializerES4_IhSaIhEEvEERNS_40WindingWindowMagneticStrengthFieldOutputE
FNDA:0,_ZN3MAS7to_jsonERN8nlohmann16json_abi_v3_11_310basic_jsonISt3mapSt6vectorNSt7__cxx1112basic_stringIcSt11char_traitsIcESaIcEEEblmdSaNS1_14adl_serializerES4_IhSaIhEEvEERKNS_40WindingWindowMagneticStrengthFieldOutputE
FNDA:0,_ZN3MAS9from_jsonERKN8nlohmann16json_abi_v3_11_310basic_jsonISt3mapSt6vectorNSt7__cxx1112basic_stringIcSt11char_traitsIcESaIcEEEblmdSaNS1_14adl_serializerES4_IhSaIhEEvEERNS_7OutputsE
FNDA:0,_ZN3MAS7Forward14set_efficiencyESt8optionalIdE
FNDA:0,_ZN3MAS7to_jsonERN8nlohmann16json_abi_v3_11_310basic_jsonISt3mapSt6vectorNSt7__cxx1112basic_stringIcSt11char_traitsIcESaIcEEEblmdSaNS1_14adl_serializerES4_IhSaIhEEvEERKNS_7OutputsE
FNDA:0,_ZN3MAS9from_jsonERKN8nlohmann16json_abi_v3_11_310basic_jsonISt3mapSt6vectorNSt7__cxx1112basic_stringIcSt11char_traitsIcESaIcEEEblmdSaNS1_14adl_serializerES4_IhSaIhEEvEERNS_3MasE
FNDA:0,_ZN3MAS9from_jsonERKN8nlohmann16json_abi_v3_11_310basic_jsonISt3mapSt6vectorNSt7__cxx1112basic_stringIcSt11char_traitsIcESaIcEEEblmdSaNS1_14adl_serializerES4_IhSaIhEEvEERNS_13CllcPowerFlowE
FNDA:0,_ZN3MAS9from_jsonERKN8nlohmann16json_abi_v3_11_310basic_jsonISt3mapSt6vectorNSt7__cxx1112basic_stringIcSt11char_traitsIcESaIcEEEblmdSaNS1_14adl_serializerES4_IhSaIhEEvEERNS_13WaveformLabelE
FNDA:0,_ZNK3MAS7Forward17get_input_voltageEv
FNDA:0,_ZN3MAS7Forward17set_input_voltageERKNS_22DimensionWithToleranceE
FNDA:0,_ZN3MAS7to_jsonERN8nlohmann16json_abi_v3_11_310basic_jsonISt3mapSt6vectorNSt7__cxx1112basic_stringIcSt11char_traitsIcESaIcEEEblmdSaNS1_14adl_serializerES4_IhSaIhEEvEERKNS_13WaveformLabelE
FNDA:0,_ZN3MAS21ValueTooHighExceptionC2ERKNSt7__cxx1112basic_stringIcSt11char_traitsIcESaIcEEE
FNDA:0,_ZN3MAS9from_jsonERKN8nlohmann16json_abi_v3_11_310basic_jsonISt3mapSt6vectorNSt7__cxx1112basic_stringIcSt11char_traitsIcESaIcEEEblmdSaNS1_14adl_serializerES4_IhSaIhEEvEERNS_14ModulationTypeE
FNDA:0,_ZN3MAS9from_jsonERKN8nlohmann16json_abi_v3_11_310basic_jsonISt3mapSt6vectorNSt7__cxx1112basic_stringIcSt11char_traitsIcESaIcEEEblmdSaNS1_14adl_serializerES4_IhSaIhEEvEERNS_12FlybackModesE
FNDA:0,_ZNK3MAS7Forward26get_maximum_switch_currentEv
FNDA:0,_ZN3MAS7to_jsonERN8nlohmann16json_abi_v3_11_310basic_jsonISt3mapSt6vectorNSt7__cxx1112basic_stringIcSt11char_traitsIcESaIcEEEblmdSaNS1_14adl_serializerES4_IhSaIhEEvEERKNS_12FlybackModesE
FNDA:0,_ZN3MAS7Forward26set_maximum_switch_currentESt8optionalIdE
FNDA:0,_ZN3MAS9from_jsonERKN8nlohmann16json_abi_v3_11_310basic_jsonISt3mapSt6vectorNSt7__cxx1112basic_stringIcSt11char_traitsIcESaIcEEEblmdSaNS1_14adl_serializerES4_IhSaIhEEvEERNS_13LlcBridgeTypeE
FNDA:0,_ZN3MAS9from_jsonERKN8nlohmann16json_abi_v3_11_310basic_jsonISt3mapSt6vectorNSt7__cxx1112basic_stringIcSt11char_traitsIcESaIcEEEblmdSaNS1_14adl_serializerES4_IhSaIhEEvEERNS_17PsfbRectifierTypeE
FNDA:0,_ZN3MAS9from_jsonERKN8nlohmann16json_abi_v3_11_310basic_jsonISt3mapSt6vectorNSt7__cxx1112basic_stringIcSt11char_traitsIcESaIcEEEblmdSaNS1_14adl_serializerES4_IhSaIhEEvEERNS_11ApplicationE
FNDA:0,_ZN3MAS7to_jsonERN8nlohmann16json_abi_v3_11_310basic_jsonISt3mapSt6vectorNSt7__cxx1112basic_stringIcSt11char_traitsIcESaIcEEEblmdSaNS1_14adl_serializerES4_IhSaIhEEvEERKNS_11ApplicationE
FNDA:0,_ZN3MAS9from_jsonERKN8nlohmann16json_abi_v3_11_310basic_jsonISt3mapSt6vectorNSt7__cxx1112basic_stringIcSt11char_traitsIcESaIcEEEblmdSaNS1_14adl_serializerES4_IhSaIhEEvEERNS_3CtiE
FNDA:0,_ZNK3MAS7Forward20get_operating_pointsEv
FNDA:0,_ZN3MAS7to_jsonERN8nlohmann16json_abi_v3_11_310basic_jsonISt3mapSt6vectorNSt7__cxx1112basic_stringIcSt11char_traitsIcESaIcEEEblmdSaNS1_14adl_serializerES4_IhSaIhEEvEERKNS_3CtiE
FNDA:0,_ZN3MAS9from_jsonERKN8nlohmann16json_abi_v3_11_310basic_jsonISt3mapSt6vectorNSt7__cxx1112basic_stringIcSt11char_traitsIcESaIcEEEblmdSaNS1_14adl_serializerES4_IhSaIhEEvEERNS_14InsulationTypeE
FNDA:0,_ZN3MAS7Forward20set_operating_pointsERKSt6vectorINS_21ForwardOperatingPointESaIS2_EE
FNDA:0,_ZN3MAS7to_jsonERN8nlohmann16json_abi_v3_11_310basic_jsonISt3mapSt6vectorNSt7__cxx1112basic_stringIcSt11char_traitsIcESaIcEEEblmdSaNS1_14adl_serializerES4_IhSaIhEEvEERKNS_14InsulationTypeE
FNDA:0,_ZN3MAS9from_jsonERKN8nlohmann16json_abi_v3_11_310basic_jsonISt3mapSt6vectorNSt7__cxx1112basic_stringIcSt11char_traitsIcESaIcEEEblmdSaNS1_14adl_serializerES4_IhSaIhEEvEERNS_19OvervoltageCategoryE
FNDA:0,_ZN3MAS7to_jsonERN8nlohmann16json_abi_v3_11_310basic_jsonISt3mapSt6vectorNSt7__cxx1112basic_stringIcSt11char_traitsIcESaIcEEEblmdSaNS1_14adl_serializerES4_IhSaIhEEvEERKNS_19OvervoltageCategoryE
FNDA:0,_ZN3MAS9from_jsonERKN8nlohmann16json_abi_v3_11_310basic_jsonISt3mapSt6vectorNSt7__cxx1112basic_stringIcSt11char_traitsIcESaIcEEEblmdSaNS1_14adl_serializerES4_IhSaIhEEvEERNS_15PollutionDegreeE
FNDA:0,_ZN3MAS7to_jsonERN8nlohmann16json_abi_v3_11_310basic_jsonISt3mapSt6vectorNSt7__cxx1112basic_stringIcSt11char_traitsIcESaIcEEEblmdSaNS1_14adl_serializerES4_IhSaIhEEvEERKNS_15PollutionDegreeE
FNDA:0,_ZN3MAS9from_jsonERKN8nlohmann16json_abi_v3_11_310basic_jsonISt3mapSt6vectorNSt7__cxx1112basic_stringIcSt11char_traitsIcESaIcEEEblmdSaNS1_14adl_serializerES4_IhSaIhEEvEERNS_19InsulationStandardsE
FNDA:0,_ZN3MAS7to_jsonERN8nlohmann16json_abi_v3_11_310basic_jsonISt3mapSt6vectorNSt7__cxx1112basic_stringIcSt11char_traitsIcESaIcEEEblmdSaNS1_14adl_serializerES4_IhSaIhEEvEERKNS_19InsulationStandardsE
FNDA:0,_ZN3MAS9from_jsonERKN8nlohmann16json_abi_v3_11_310basic_jsonISt3mapSt6vectorNSt7__cxx1112basic_stringIcSt11char_traitsIcESaIcEEEblmdSaNS1_14adl_serializerES4_IhSaIhEEvEERNS_13IsolationSideE
FNDA:0,_ZN3MAS26IsolatedBuckOperatingPointC2Ev
FNDA:0,_ZN3MAS7to_jsonERN8nlohmann16json_abi_v3_11_310basic_jsonISt3mapSt6vectorNSt7__cxx1112basic_stringIcSt11char_traitsIcESaIcEEEblmdSaNS1_14adl_serializerES4_IhSaIhEEvEERKNS_13IsolationSideE
FNDA:0,_ZN3MAS26IsolatedBuckOperatingPointD0Ev
FNDA:0,_ZN3MAS26IsolatedBuckOperatingPointD2Ev
FNDA:0,_ZN3MAS9from_jsonERKN8nlohmann16json_abi_v3_11_310basic_jsonISt3mapSt6vectorNSt7__cxx1112basic_stringIcSt11char_traitsIcESaIcEEEblmdSaNS1_14adl_serializerES4_IhSaIhEEvEERNS_6MarketE
FNDA:0,_ZN3MAS7to_jsonERN8nlohmann16json_abi_v3_11_310basic_jsonISt3mapSt6vectorNSt7__cxx1112basic_stringIcSt11char_traitsIcESaIcEEEblmdSaNS1_14adl_serializerES4_IhSaIhEEvEERKNS_6MarketE
FNDA:0,_ZN3MAS9from_jsonERKN8nlohmann16json_abi_v3_11_310basic_jsonISt3mapSt6vectorNSt7__cxx1112basic_stringIcSt11char_traitsIcESaIcEEEblmdSaNS1_14adl_serializerES4_IhSaIhEEvEERNS_14SubApplicationE
FNDA:0,_ZN3MAS7to_jsonERN8nlohmann16json_abi_v3_11_310basic_jsonISt3mapSt6vectorNSt7__cxx1112basic_stringIcSt11char_traitsIcESaIcEEEblmdSaNS1_14adl_serializerES4_IhSaIhEEvEERKNS_14SubApplicationE
FNDA:0,_ZN3MAS9from_jsonERKN8nlohmann16json_abi_v3_11_310basic_jsonISt3mapSt6vectorNSt7__cxx1112basic_stringIcSt11char_traitsIcESaIcEEEblmdSaNS1_14adl_serializerES4_IhSaIhEEvEERNS_14ConnectionTypeE
FNDA:0,_ZN3MAS7to_jsonERN8nlohmann16json_abi_v3_11_310basic_jsonISt3mapSt6vectorNSt7__cxx1112basic_stringIcSt11char_traitsIcESaIcEEEblmdSaNS1_14adl_serializerES4_IhSaIhEEvEERKNS_14ConnectionTypeE
FNDA:0,_ZN3MAS9from_jsonERKN8nlohmann16json_abi_v3_11_310basic_jsonISt3mapSt6vectorNSt7__cxx1112basic_stringIcSt11char_traitsIcESaIcEEEblmdSaNS1_14adl_serializerES4_IhSaIhEEvEERNS_10TopologiesE
FNDA:0,_ZN3MAS7to_jsonERN8nlohmann16json_abi_v3_11_310basic_jsonISt3mapSt6vectorNSt7__cxx1112basic_stringIcSt11char_traitsIcESaIcEEEblmdSaNS1_14adl_serializerES4_IhSaIhEEvEERKNS_10TopologiesE
FNDA:0,_ZNK3MAS26IsolatedBuckOperatingPoint23get_ambient_temperatureEv
FNDA:0,_ZN3MAS9from_jsonERKN8nlohmann16json_abi_v3_11_310basic_jsonISt3mapSt6vectorNSt7__cxx1112basic_stringIcSt11char_traitsIcESaIcEEEblmdSaNS1_14adl_serializerES4_IhSaIhEEvEERNS_16WiringTechnologyE
FNDA:0,_ZN3MAS26IsolatedBuckOperatingPoint23set_ambient_temperatureERKd
FNDA:0,_ZN3MAS7to_jsonERN8nlohmann16json_abi_v3_11_310basic_jsonISt3mapSt6vectorNSt7__cxx1112basic_stringIcSt11char_traitsIcESaIcEEEblmdSaNS1_14adl_serializerES4_IhSaIhEEvEERKNS_16WiringTechnologyE
FNDA:0,_ZN3MAS9from_jsonERKN8nlohmann16json_abi_v3_11_310basic_jsonISt3mapSt6vectorNSt7__cxx1112basic_stringIcSt11char_traitsIcESaIcEEEblmdSaNS1_14adl_serializerES4_IhSaIhEEvEERNS_12BobbinFamilyE
FNDA:0,_ZN3MAS7to_jsonERN8nlohmann16json_abi_v3_11_310basic_jsonISt3mapSt6vectorNSt7__cxx1112basic_stringIcSt11char_traitsIcESaIcEEEblmdSaNS1_14adl_serializerES4_IhSaIhEEvEERKNS_12BobbinFamilyE
FNDA:0,_ZNK3MAS26IsolatedBuckOperatingPoint19get_output_currentsEv
FNDA:0,_ZN3MAS9from_jsonERKN8nlohmann16json_abi_v3_11_310basic_jsonISt3mapSt6vectorNSt7__cxx1112basic_stringIcSt11char_traitsIcESaIcEEEblmdSaNS1_14adl_serializerES4_IhSaIhEEvEERNS_6StatusE
FNDA:0,_ZN3MAS7to_jsonERN8nlohmann16json_abi_v3_11_310basic_jsonISt3mapSt6vectorNSt7__cxx1112basic_stringIcSt11char_traitsIcESaIcEEEblmdSaNS1_14adl_serializerES4_IhSaIhEEvEERKNS_6StatusE
FNDA:0,_ZN3MAS9from_jsonERKN8nlohmann16json_abi_v3_11_310basic_jsonISt3mapSt6vectorNSt7__cxx1112basic_stringIcSt11char_traitsIcESaIcEEEblmdSaNS1_14adl_serializerES4_IhSaIhEEvEERNS_8PinShapeE
FNDA:0,_ZN3MAS26IsolatedBuckOperatingPoint19set_output_currentsERKSt6vectorIdSaIdEE
FNDA:0,_ZN3MAS7to_jsonERN8nlohmann16json_abi_v3_11_310basic_jsonISt3mapSt6vectorNSt7__cxx1112basic_stringIcSt11char_traitsIcESaIcEEEblmdSaNS1_14adl_serializerES4_IhSaIhEEvEERKNS_8PinShapeE
FNDA:0,_ZN3MAS9from_jsonERKN8nlohmann16json_abi_v3_11_310basic_jsonISt3mapSt6vectorNSt7__cxx1112basic_stringIcSt11char_traitsIcESaIcEEEblmdSaNS1_14adl_serializerES4_IhSaIhEEvEERNS_18PinDescriptionTypeE
FNDA:0,_ZN3MAS7to_jsonERN8nlohmann16json_abi_v3_11_310basic_jsonISt3mapSt6vectorNSt7__cxx1112basic_stringIcSt11char_traitsIcESaIcEEEblmdSaNS1_14adl_serializerES4_IhSaIhEEvEERKNS_18PinDescriptionTypeE
FNDA:0,_ZN3MAS9from_jsonERKN8nlohmann16json_abi_v3_11_310basic_jsonISt3mapSt6vectorNSt7__cxx1112basic_stringIcSt11char_traitsIcESaIcEEEblmdSaNS1_14adl_serializerES4_IhSaIhEEvEERNS_25FunctionalDescriptionTypeE
FNDA:0,_ZN3MAS7to_jsonERN8nlohmann16json_abi_v3_11_310basic_jsonISt3mapSt6vectorNSt7__cxx1112basic_stringIcSt11char_traitsIcESaIcEEEblmdSaNS1_14adl_serializerES4_IhSaIhEEvEERKNS_25FunctionalDescriptionTypeE
FNDA:0,_ZN3MAS9from_jsonERKN8nlohmann16json_abi_v3_11_310basic_jsonISt3mapSt6vectorNSt7__cxx1112basic_stringIcSt11char_traitsIcESaIcEEEblmdSaNS1_14adl_serializerES4_IhSaIhEEvEERNS_11ColumnShapeE
FNDA:0,_ZNK3MAS26IsolatedBuckOperatingPoint19get_output_voltagesEv
FNDA:0,_ZN3MAS7to_jsonERN8nlohmann16json_abi_v3_11_310basic_jsonISt3mapSt6vectorNSt7__cxx1112basic_stringIcSt11char_traitsIcESaIcEEEblmdSaNS1_14adl_serializerES4_IhSaIhEEvEERKNS_11ColumnShapeE
FNDA:0,_ZN3MAS9from_jsonERKN8nlohmann16json_abi_v3_11_310basic_jsonISt3mapSt6vectorNSt7__cxx1112basic_stringIcSt11char_traitsIcESaIcEEEblmdSaNS1_14adl_serializerES4_IhSaIhEEvEERNS_13CoilAlignmentE
FNDA:0,_ZN3MAS7to_jsonERN8nlohmann16json_abi_v3_11_310basic_jsonISt3mapSt6vectorNSt7__cxx1112basic_stringIcSt11char_traitsIcESaIcEEEblmdSaNS1_14adl_serializerES4_IhSaIhEEvEERKNS_13CoilAlignmentE
FNDA:0,_ZN3MAS26IsolatedBuckOperatingPoint19set_output_voltagesERKSt6vectorIdSaIdEE
FNDA:0,_ZN3MAS9from_jsonERKN8nlohmann16json_abi_v3_11_310basic_jsonISt3mapSt6vectorNSt7__cxx1112basic_stringIcSt11char_traitsIcESaIcEEEblmdSaNS1_14adl_serializerES4_IhSaIhEEvEERNS_18WindingOrientationE
FNDA:0,_ZN3MAS7to_jsonERN8nlohmann16json_abi_v3_11_310basic_jsonISt3mapSt6vectorNSt7__cxx1112basic_stringIcSt11char_traitsIcESaIcEEEblmdSaNS1_14adl_serializerES4_IhSaIhEEvEERKNS_18WindingOrientationE
FNDA:0,_ZN3MAS9from_jsonERKN8nlohmann16json_abi_v3_11_310basic_jsonISt3mapSt6vectorNSt7__cxx1112basic_stringIcSt11char_traitsIcESaIcEEEblmdSaNS1_14adl_serializerES4_IhSaIhEEvEERNS_18WindingWindowShapeE
FNDA:0,_ZN3MAS7to_jsonERN8nlohmann16json_abi_v3_11_310basic_jsonISt3mapSt6vectorNSt7__cxx1112basic_stringIcSt11char_traitsIcESaIcEEEblmdSaNS1_14adl_serializerES4_IhSaIhEEvEERKNS_18WindingWindowShapeE
FNDA:0,_ZN3MAS9from_jsonERKN8nlohmann16json_abi_v3_11_310basic_jsonISt3mapSt6vectorNSt7__cxx1112basic_stringIcSt11char_traitsIcESaIcEEEblmdSaNS1_14adl_serializerES4_IhSaIhEEvEERNS_9DirectionE
FNDA:0,_ZN3MAS7to_jsonERN8nlohmann16json_abi_v3_11_310basic_jsonISt3mapSt6vectorNSt7__cxx1112basic_stringIcSt11char_traitsIcESaIcEEEblmdSaNS1_14adl_serializerES4_IhSaIhEEvEERKNS_9DirectionE
FNDA:0,_ZNK3MAS26IsolatedBuckOperatingPoint23get_switching_frequencyEv
FNDA:0,_ZN3MAS9from_jsonERKN8nlohmann16json_abi_v3_11_310basic_jsonISt3mapSt6vectorNSt7__cxx1112basic_stringIcSt11char_traitsIcESaIcEEEblmdSaNS1_14adl_serializerES4_IhSaIhEEvEERNS_25InsulationWireCoatingTypeE
FNDA:0,_ZN3MAS7to_jsonERN8nlohmann16json_abi_v3_11_310basic_jsonISt3mapSt6vectorNSt7__cxx1112basic_stringIcSt11char_traitsIcESaIcEEEblmdSaNS1_14adl_serializerES4_IhSaIhEEvEERKNS_25InsulationWireCoatingTypeE
FNDA:0,_ZN3MAS26IsolatedBuckOperatingPoint23set_switching_frequencyERKd
FNDA:0,_ZN3MAS9from_jsonERKN8nlohmann16json_abi_v3_11_310basic_jsonISt3mapSt6vectorNSt7__cxx1112basic_stringIcSt11char_traitsIcESaIcEEEblmdSaNS1_14adl_serializerES4_IhSaIhEEvEERNS_12WireStandardE
FNDA:0,_ZN3MAS7to_jsonERN8nlohmann16json_abi_v3_11_310basic_jsonISt3mapSt6vectorNSt7__cxx1112basic_stringIcSt11char_traitsIcESaIcEEEblmdSaNS1_14adl_serializerES4_IhSaIhEEvEERKNS_12WireStandardE
FNDA:0,_ZN3MAS9from_jsonERKN8nlohmann16json_abi_v3_11_310basic_jsonISt3mapSt6vectorNSt7__cxx1112basic_stringIcSt11char_traitsIcESaIcEEEblmdSaNS1_14adl_serializerES4_IhSaIhEEvEERNS_8WireTypeE
FNDA:0,_ZN3MAS7to_jsonERN8nlohmann16json_abi_v3_11_310basic_jsonISt3mapSt6vectorNSt7__cxx1112basic_stringIcSt11char_traitsIcESaIcEEEblmdSaNS1_14adl_serializerES4_IhSaIhEEvEERKNS_8WireTypeE
FNDA:0,_ZN3MAS9from_jsonERKN8nlohmann16json_abi_v3_11_310basic_jsonISt3mapSt6vectorNSt7__cxx1112basic_stringIcSt11char_traitsIcESaIcEEEblmdSaNS1_14adl_serializerES4_IhSaIhEEvEERNS_16CoordinateSystemE
FNDA:0,_ZN3MAS7to_jsonERN8nlohmann16json_abi_v3_11_310basic_jsonISt3mapSt6vectorNSt7__cxx1112basic_stringIcSt11char_traitsIcESaIcEEEblmdSaNS1_14adl_serializerES4_IhSaIhEEvEERKNS_16CoordinateSystemE
FNDA:0,_ZN3MAS9from_jsonERKN8nlohmann16json_abi_v3_11_310basic_jsonISt3mapSt6vectorNSt7__cxx1112basic_stringIcSt11char_traitsIcESaIcEEEblmdSaNS1_14adl_serializerES4_IhSaIhEEvEERNS_14ElectricalTypeE
FNDA:0,_ZN3MAS7to_jsonERN8nlohmann16json_abi_v3_11_310basic_jsonISt3mapSt6vectorNSt7__cxx1112basic_stringIcSt11char_traitsIcESaIcEEEblmdSaNS1_14adl_serializerES4_IhSaIhEEvEERKNS_14ElectricalTypeE
FNDA:0,_ZN3MAS9from_jsonERKN8nlohmann16json_abi_v3_11_310basic_jsonISt3mapSt6vectorNSt7__cxx1112basic_stringIcSt11char_traitsIcESaIcEEEblmdSaNS1_14adl_serializerES4_IhSaIhEEvEERNS_12WindingStyleE
FNDA:0,_ZN3MAS7to_jsonERN8nlohmann16json_abi_v3_11_310basic_jsonISt3mapSt6vectorNSt7__cxx1112basic_stringIcSt11char_traitsIcESaIcEEEblmdSaNS1_14adl_serializerES4_IhSaIhEEvEERKNS_12WindingStyleE
FNDA:0,_ZN3MAS12IsolatedBuckC2Ev
FNDA:0,_ZN3MAS9from_jsonERKN8nlohmann16json_abi_v3_11_310basic_jsonISt3mapSt6vectorNSt7__cxx1112basic_stringIcSt11char_traitsIcESaIcEEEblmdSaNS1_14adl_serializerES4_IhSaIhEEvEERNS_23TurnCrossSectionalShapeE
FNDA:0,_ZN3MAS12IsolatedBuckD0Ev
FNDA:0,_ZN3MAS12IsolatedBuckD2Ev
FNDA:0,_ZN3MAS7to_jsonERN8nlohmann16json_abi_v3_11_310basic_jsonISt3mapSt6vectorNSt7__cxx1112basic_stringIcSt11char_traitsIcESaIcEEEblmdSaNS1_14adl_serializerES4_IhSaIhEEvEERKNS_23TurnCrossSectionalShapeE
FNDA:0,_ZN3MAS9from_jsonERKN8nlohmann16json_abi_v3_11_310basic_jsonISt3mapSt6vectorNSt7__cxx1112basic_stringIcSt11char_traitsIcESaIcEEEblmdSaNS1_14adl_serializerES4_IhSaIhEEvEERNS_15TurnOrientationE
FNDA:0,_ZN3MAS7to_jsonERN8nlohmann16json_abi_v3_11_310basic_jsonISt3mapSt6vectorNSt7__cxx1112basic_stringIcSt11char_traitsIcESaIcEEEblmdSaNS1_14adl_serializerES4_IhSaIhEEvEERKNS_15TurnOrientationE
FNDA:0,_ZN3MAS9from_jsonERKN8nlohmann16json_abi_v3_11_310basic_jsonISt3mapSt6vectorNSt7__cxx1112basic_stringIcSt11char_traitsIcESaIcEEEblmdSaNS1_14adl_serializerES4_IhSaIhEEvEERNS_7CoatingE
FNDA:0,_ZN3MAS7to_jsonERN8nlohmann16json_abi_v3_11_310basic_jsonISt3mapSt6vectorNSt7__cxx1112basic_stringIcSt11char_traitsIcESaIcEEEblmdSaNS1_14adl_serializerES4_IhSaIhEEvEERKNS_7CoatingE
FNDA:0,_ZN3MAS9from_jsonERKN8nlohmann16json_abi_v3_11_310basic_jsonISt3mapSt6vectorNSt7__cxx1112basic_stringIcSt11char_traitsIcESaIcEEEblmdSaNS1_14adl_serializerES4_IhSaIhEEvEERNS_7GapTypeE
FNDA:0,_ZN3MAS7to_jsonERN8nlohmann16json_abi_v3_11_310basic_jsonISt3mapSt6vectorNSt7__cxx1112basic_stringIcSt11char_traitsIcESaIcEEEblmdSaNS1_14adl_serializerES4_IhSaIhEEvEERKNS_7GapTypeE
FNDA:0,_ZN3MAS9from_jsonERKN8nlohmann16json_abi_v3_11_310basic_jsonISt3mapSt6vectorNSt7__cxx1112basic_stringIcSt11char_traitsIcESaIcEEEblmdSaNS1_14adl_serializerES4_IhSaIhEEvEERNS_24MassCoreLossesMethodTypeE
FNDA:0,_ZN3MAS7to_jsonERN8nlohmann16json_abi_v3_11_310basic_jsonISt3mapSt6vectorNSt7__cxx1112basic_stringIcSt11char_traitsIcESaIcEEEblmdSaNS1_14adl_serializerES4_IhSaIhEEvEERKNS_24MassCoreLossesMethodTypeE
FNDA:0,_ZN3MAS9from_jsonERKN8nlohmann16json_abi_v3_11_310basic_jsonISt3mapSt6vectorNSt7__cxx1112basic_stringIcSt11char_traitsIcESaIcEEEblmdSaNS1_14adl_serializerES4_IhSaIhEEvEERNS_12MaterialTypeE
FNDA:0,_ZN3MAS7to_jsonERN8nlohmann16json_abi_v3_11_310basic_jsonISt3mapSt6vectorNSt7__cxx1112basic_stringIcSt11char_traitsIcESaIcEEEblmdSaNS1_14adl_serializerES4_IhSaIhEEvEERKNS_12MaterialTypeE
FNDA:0,_ZN3MAS9from_jsonERKN8nlohmann16json_abi_v3_11_310basic_jsonISt3mapSt6vectorNSt7__cxx1112basic_stringIcSt11char_traitsIcESaIcEEEblmdSaNS1_14adl_serializerES4_IhSaIhEEvEERNS_19MaterialCompositionE
FNDA:0,_ZN3MAS7to_jsonERN8nlohmann16json_abi_v3_11_310basic_jsonISt3mapSt6vectorNSt7__cxx1112basic_stringIcSt11char_traitsIcESaIcEEEblmdSaNS1_14adl_serializerES4_IhSaIhEEvEERKNS_19MaterialCompositionE
FNDA:0,_ZN3MAS9from_jsonERKN8nlohmann16json_abi_v3_11_310basic_jsonISt3mapSt6vectorNSt7__cxx1112basic_stringIcSt11char_traitsIcESaIcEEEblmdSaNS1_14adl_serializerES4_IhSaIhEEvEERNS_32InitialPermeabilitModifierMethodE
FNDA:0,_ZN3MAS7to_jsonERN8nlohmann16json_abi_v3_11_310basic_jsonISt3mapSt6vectorNSt7__cxx1112basic_stringIcSt11char_traitsIcESaIcEEEblmdSaNS1_14adl_serializerES4_IhSaIhEEvEERKNS_32InitialPermeabilitModifierMethodE
FNDA:0,_ZN3MAS9from_jsonERKN8nlohmann16json_abi_v3_11_310basic_jsonISt3mapSt6vectorNSt7__cxx1112basic_stringIcSt11char_traitsIcESaIcEEEblmdSaNS1_14adl_serializerES4_IhSaIhEEvEERNS_16CoreMaterialTypeE
FNDA:0,_ZNK3MAS12IsolatedBuck24get_current_ripple_ratioEv
FNDA:0,_ZN3MAS7to_jsonERN8nlohmann16json_abi_v3_11_310basic_jsonISt3mapSt6vectorNSt7__cxx1112basic_stringIcSt11char_traitsIcESaIcEEEblmdSaNS1_14adl_serializerES4_IhSaIhEEvEERKNS_16CoreMaterialTypeE
FNDA:0,_ZN3MAS12IsolatedBuck24set_current_ripple_ratioESt8optionalIdE
FNDA:0,_ZN3MAS9from_jsonERKN8nlohmann16json_abi_v3_11_310basic_jsonISt3mapSt6vectorNSt7__cxx1112basic_stringIcSt11char_traitsIcESaIcEEEblmdSaNS1_14adl_serializerES4_IhSaIhEEvEERNS_30VolumetricCoreLossesMethodTypeE
FNDA:0,_ZN3MAS7to_jsonERN8nlohmann16json_abi_v3_11_310basic_jsonISt3mapSt6vectorNSt7__cxx1112basic_stringIcSt11char_traitsIcESaIcEEEblmdSaNS1_14adl_serializerES4_IhSaIhEEvEERKNS_30VolumetricCoreLossesMethodTypeE
FNDA:0,_ZN3MAS9from_jsonERKN8nlohmann16json_abi_v3_11_310basic_jsonISt3mapSt6vectorNSt7__cxx1112basic_stringIcSt11char_traitsIcESaIcEEEblmdSaNS1_14adl_serializerES4_IhSaIhEEvEERNS_15CoreShapeFamilyE
FNDA:0,_ZNK3MAS12IsolatedBuck22get_diode_voltage_dropEv
FNDA:0,_ZN3MAS7to_jsonERN8nlohmann16json_abi_v3_11_310basic_jsonISt3mapSt6vectorNSt7__cxx1112basic_stringIcSt11char_traitsIcESaIcEEEblmdSaNS1_14adl_serializerES4_IhSaIhEEvEERKNS_15CoreShapeFamilyE
FNDA:0,_ZN3MAS12IsolatedBuck22set_diode_voltage_dropERKd
FNDA:0,_ZN3MAS9from_jsonERKN8nlohmann16json_abi_v3_11_310basic_jsonISt3mapSt6vectorNSt7__cxx1112basic_stringIcSt11char_traitsIcESaIcEEEblmdSaNS1_14adl_serializerES4_IhSaIhEEvEERNS_15MagneticCircuitE
FNDA:0,_ZN3MAS7to_jsonERN8nlohmann16json_abi_v3_11_310basic_jsonISt3mapSt6vectorNSt7__cxx1112basic_stringIcSt11char_traitsIcESaIcEEEblmdSaNS1_14adl_serializerES4_IhSaIhEEvEERKNS_15MagneticCircuitE
FNDA:0,_ZN3MAS9from_jsonERKN8nlohmann16json_abi_v3_11_310basic_jsonISt3mapSt6vectorNSt7__cxx1112basic_stringIcSt11char_traitsIcESaIcEEEblmdSaNS1_14adl_serializerES4_IhSaIhEEvEERNS_8CoreTypeE
FNDA:0,_ZNK3MAS12IsolatedBuck14get_efficiencyEv
FNDA:0,_ZN3MAS7to_jsonERN8nlohmann16json_abi_v3_11_310basic_jsonISt3mapSt6vectorNSt7__cxx1112basic_stringIcSt11char_traitsIcESaIcEEEblmdSaNS1_14adl_serializerES4_IhSaIhEEvEERKNS_8CoreTypeE
FNDA:0,_ZN3MAS12IsolatedBuck14set_efficiencyESt8optionalIdE
FNDA:0,_ZN3MAS9from_jsonERKN8nlohmann16json_abi_v3_11_310basic_jsonISt3mapSt6vectorNSt7__cxx1112basic_stringIcSt11char_traitsIcESaIcEEEblmdSaNS1_14adl_serializerES4_IhSaIhEEvEERNS_37CoreGeometricalDescriptionElementTypeE
FNDA:0,_ZN3MAS7to_jsonERN8nlohmann16json_abi_v3_11_310basic_jsonISt3mapSt6vectorNSt7__cxx1112basic_stringIcSt11char_traitsIcESaIcEEEblmdSaNS1_14adl_serializerES4_IhSaIhEEvEERKNS_37CoreGeometricalDescriptionElementTypeE
FNDA:0,_ZN3MAS9from_jsonERKN8nlohmann16json_abi_v3_11_310basic_jsonISt3mapSt6vectorNSt7__cxx1112basic_stringIcSt11char_traitsIcESaIcEEEblmdSaNS1_14adl_serializerES4_IhSaIhEEvEERNS_10ColumnTypeE
FNDA:0,_ZN3MAS7to_jsonERN8nlohmann16json_abi_v3_11_310basic_jsonISt3mapSt6vectorNSt7__cxx1112basic_stringIcSt11char_traitsIcESaIcEEEblmdSaNS1_14adl_serializerES4_IhSaIhEEvEERKNS_10ColumnTypeE
FNDA:0,_ZN3MAS9from_jsonERKN8nlohmann16json_abi_v3_11_310basic_jsonISt3mapSt6vectorNSt7__cxx1112basic_stringIcSt11char_traitsIcESaIcEEEblmdSaNS1_14adl_serializerES4_IhSaIhEEvEERNS_12ResultOriginE
FNDA:0,_ZN3MAS7to_jsonERN8nlohmann16json_abi_v3_11_310basic_jsonISt3mapSt6vectorNSt7__cxx1112basic_stringIcSt11char_traitsIcESaIcEEEblmdSaNS1_14adl_serializerES4_IhSaIhEEvEERKNS_12ResultOriginE
FNDA:0,_ZNK3MAS12IsolatedBuck17get_input_voltageEv
FNDA:0,_ZN3MAS9from_jsonERKN8nlohmann16json_abi_v3_11_310basic_jsonISt3mapSt6vectorNSt7__cxx1112basic_stringIcSt11char_traitsIcESaIcEEEblmdSaNS1_14adl_serializerES4_IhSaIhEEvEERNS_11VoltageTypeE
FNDA:0,_ZN3MAS7to_jsonERN8nlohmann16json_abi_v3_11_310basic_jsonISt3mapSt6vectorNSt7__cxx1112basic_stringIcSt11char_traitsIcESaIcEEEblmdSaNS1_14adl_serializerES4_IhSaIhEEvEERKNS_11VoltageTypeE
FNDA:0,_ZN8nlohmann16json_abi_v3_11_314adl_serializerISt7variantIJN3MAS22DimensionWithToleranceEdEEvE9from_jsonERKNS0_10basic_jsonISt3mapSt6vectorNSt7__cxx1112basic_stringIcSt11char_traitsIcESaIcEEEblmdSaS1_S9_IhSaIhEEvEERS5_
FNDA:0,_ZN3MAS12IsolatedBuck17set_input_voltageERKNS_22DimensionWithToleranceE
FNDA:0,_ZN8nlohmann16json_abi_v3_11_314adl_serializerISt7variantIJN3MAS22DimensionWithToleranceEdEEvE7to_jsonERNS0_10basic_jsonISt3mapSt6vectorNSt7__cxx1112basic_stringIcSt11char_traitsIcESaIcEEEblmdSaS1_S9_IhSaIhEEvEERKS5_
FNDA:0,_ZN8nlohmann16json_abi_v3_11_314adl_serializerISt7variantIJN3MAS18InsulationMaterialENSt7__cxx1112basic_stringIcSt11char_traitsIcESaIcEEEEEvE9from_jsonERKNS0_10basic_jsonISt3mapSt6vectorSA_blmdSaS1_SF_IhSaIhEEvEERSB_
FNDA:0,_ZN8nlohmann16json_abi_v3_11_314adl_serializerISt7variantIJN3MAS18InsulationMaterialENSt7__cxx1112basic_stringIcSt11char_traitsIcESaIcEEEEEvE7to_jsonERNS0_10basic_jsonISt3mapSt6vectorSA_blmdSaS1_SF_IhSaIhEEvEERKSB_
FNDA:0,_ZN8nlohmann16json_abi_v3_11_314adl_serializerISt7variantIJSt6vectorIdSaIdEEdEEvE9from_jsonERKNS0_10basic_jsonISt3mapS3_NSt7__cxx1112basic_stringIcSt11char_traitsIcESaIcEEEblmdSaS1_S3_IhSaIhEEvEERS6_
FNDA:0,_ZN8nlohmann16json_abi_v3_11_314adl_serializerISt7variantIJSt6vectorIdSaIdEEdEEvE7to_jsonERNS0_10basic_jsonISt3mapS3_NSt7__cxx1112basic_stringIcSt11char_traitsIcESaIcEEEblmdSaS1_S3_IhSaIhEEvEERKS6_
FNDA:0,_ZNK3MAS12IsolatedBuck26get_maximum_switch_currentEv
FNDA:0,_ZN8nlohmann16json_abi_v3_11_314adl_serializerISt7variantIJN3MAS6BobbinENSt7__cxx1112basic_stringIcSt11char_traitsIcESaIcEEEEEvE9from_jsonERKNS0_10basic_jsonISt3mapSt6vectorSA_blmdSaS1_SF_IhSaIhEEvEERSB_
FNDA:0,_ZN3MAS12IsolatedBuck26set_maximum_switch_currentESt8optionalIdE
FNDA:0,_ZN8nlohmann16json_abi_v3_11_314adl_serializerISt7variantIJN3MAS6BobbinENSt7__cxx1112basic_stringIcSt11char_traitsIcESaIcEEEEEvE7to_jsonERNS0_10basic_jsonISt3mapSt6vectorSA_blmdSaS1_SF_IhSaIhEEvEERKSB_
FNDA:0,_ZN8nlohmann16json_abi_v3_11_314adl_serializerISt7variantIJN3MAS21InsulationWireCoatingENSt7__cxx1112basic_stringIcSt11char_traitsIcESaIcEEEEEvE9from_jsonERKNS0_10basic_jsonISt3mapSt6vectorSA_blmdSaS1_SF_IhSaIhEEvEERSB_
FNDA:0,_ZN8nlohmann16json_abi_v3_11_314adl_serializerISt7variantIJN3MAS21InsulationWireCoatingENSt7__cxx1112basic_stringIcSt11char_traitsIcESaIcEEEEEvE7to_jsonERNS0_10basic_jsonISt3mapSt6vectorSA_blmdSaS1_SF_IhSaIhEEvEERKSB_
FNDA:0,_ZN8nlohmann16json_abi_v3_11_314adl_serializerISt7variantIJN3MAS12WireMaterialENSt7__cxx1112basic_stringIcSt11char_traitsIcESaIcEEEEEvE9from_jsonERKNS0_10basic_jsonISt3mapSt6vectorSA_blmdSaS1_SF_IhSaIhEEvEERSB_
FNDA:0,_ZN8nlohmann16json_abi_v3_11_314adl_serializerISt7variantIJN3MAS12WireMaterialENSt7__cxx1112basic_stringIcSt11char_traitsIcESaIcEEEEEvE7to_jsonERNS0_10basic_jsonISt3mapSt6vectorSA_blmdSaS1_SF_IhSaIhEEvEERKSB_
FNDA:0,_ZNK3MAS12IsolatedBuck20get_operating_pointsEv
FNDA:0,_ZN8nlohmann16json_abi_v3_11_314adl_serializerISt7variantIJN3MAS9WireRoundENSt7__cxx1112basic_stringIcSt11char_traitsIcESaIcEEEEEvE9from_jsonERKNS0_10basic_jsonISt3mapSt6vectorSA_blmdSaS1_SF_IhSaIhEEvEERSB_
FNDA:0,_ZN8nlohmann16json_abi_v3_11_314adl_serializerISt7variantIJN3MAS9WireRoundENSt7__cxx1112basic_stringIcSt11char_traitsIcESaIcEEEEEvE7to_jsonERNS0_10basic_jsonISt3mapSt6vectorSA_blmdSaS1_SF_IhSaIhEEvEERKSB_
FNDA:0,_ZN3MAS12IsolatedBuck20set_operating_pointsERKSt6vectorINS_26IsolatedBuckOperatingPointESaIS2_EE
FNDA:0,_ZN8nlohmann16json_abi_v3_11_314adl_serializerISt7variantIJN3MAS4WireENSt7__cxx1112basic_stringIcSt11char_traitsIcESaIcEEEEEvE9from_jsonERKNS0_10basic_jsonISt3mapSt6vectorSA_blmdSaS1_SF_IhSaIhEEvEERSB_
FNDA:0,_ZN8nlohmann16json_abi_v3_11_314adl_serializerISt7variantIJN3MAS4WireENSt7__cxx1112basic_stringIcSt11char_traitsIcESaIcEEEEEvE7to_jsonERNS0_10basic_jsonISt3mapSt6vectorSA_blmdSaS1_SF_IhSaIhEEvEERKSB_
FNDA:0,_ZN8nlohmann16json_abi_v3_11_314adl_serializerISt7variantIJSt6vectorIdSaIdEEN3MAS10MarginInfoEEEvE9from_jsonERKNS0_10basic_jsonISt3mapS3_NSt7__cxx1112basic_stringIcSt11char_traitsIcESaIcEEEblmdSaS1_S3_IhSaIhEEvEERS8_
FNDA:0,_ZN8nlohmann16json_abi_v3_11_314adl_serializerISt7variantIJSt6vectorIdSaIdEEN3MAS10MarginInfoEEEvE7to_jsonERNS0_10basic_jsonISt3mapS3_NSt7__cxx1112basic_stringIcSt11char_traitsIcESaIcEEEblmdSaS1_S3_IhSaIhEEvEERKS8_
FNDA:0,_ZN8nlohmann16json_abi_v3_11_314adl_serializerISt7variantIJSt6vectorIN3MAS15MassLossesPointESaIS5_EENS4_28MagnetecCoreLossesMethodDataEEEvE9from_jsonERKNS0_10basic_jsonISt3mapS3_NSt7__cxx1112basic_stringIcSt11char_traitsIcESaIcEEEblmdSaS1_S3_IhSaIhEEvEERS9_
FNDA:0,_ZN8nlohmann16json_abi_v3_11_314adl_serializerISt7variantIJSt6vectorIN3MAS15MassLossesPointESaIS5_EENS4_28MagnetecCoreLossesMethodDataEEEvE7to_jsonERNS0_10basic_jsonISt3mapS3_NSt7__cxx1112basic_stringIcSt11char_traitsIcESaIcEEEblmdSaS1_S3_IhSaIhEEvEERKS9_
FNDA:0,_ZN8nlohmann16json_abi_v3_11_314adl_serializerISt7variantIJSt6vectorIN3MAS17PermeabilityPointESaIS5_EES5_EEvE9from_jsonERKNS0_10basic_jsonISt3mapS3_NSt7__cxx1112basic_stringIcSt11char_traitsIcESaIcEEEblmdSaS1_S3_IhSaIhEEvEERS8_
FNDA:0,_ZN8nlohmann16json_abi_v3_11_314adl_serializerISt7variantIJSt6vectorIN3MAS17PermeabilityPointESaIS5_EES5_EEvE7to_jsonERNS0_10basic_jsonISt3mapS3_NSt7__cxx1112basic_stringIcSt11char_traitsIcESaIcEEEblmdSaS1_S3_IhSaIhEEvEERKS8_
FNDA:0,_ZN3MAS31IsolatedBuckBoostOperatingPointC2Ev
FNDA:0,_ZN8nlohmann16json_abi_v3_11_314adl_serializerISt7variantIJSt6vectorIN3MAS21VolumetricLossesPointESaIS5_EENS4_20CoreLossesMethodDataEEEvE9from_jsonERKNS0_10basic_jsonISt3mapS3_NSt7__cxx1112basic_stringIcSt11char_traitsIcESaIcEEEblmdSaS1_S3_IhSaIhEEvEERS9_
FNDA:0,_ZN3MAS31IsolatedBuckBoostOperatingPointD0Ev
FNDA:0,_ZN3MAS31IsolatedBuckBoostOperatingPointD2Ev
FNDA:0,_ZN8nlohmann16json_abi_v3_11_314adl_serializerISt7variantIJSt6vectorIN3MAS21VolumetricLossesPointESaIS5_EENS4_20CoreLossesMethodDataEEEvE7to_jsonERNS0_10basic_jsonISt3mapS3_NSt7__cxx1112basic_stringIcSt11char_traitsIcESaIcEEEblmdSaS1_S3_IhSaIhEEvEERKS9_
FNDA:0,_ZN8nlohmann16json_abi_v3_11_314adl_serializerISt7variantIJN3MAS12CoreMaterialENSt7__cxx1112basic_stringIcSt11char_traitsIcESaIcEEEEEvE9from_jsonERKNS0_10basic_jsonISt3mapSt6vectorSA_blmdSaS1_SF_IhSaIhEEvEERSB_
FNDA:0,_ZN8nlohmann16json_abi_v3_11_314adl_serializerISt7variantIJN3MAS12CoreMaterialENSt7__cxx1112basic_stringIcSt11char_traitsIcESaIcEEEEEvE7to_jsonERNS0_10basic_jsonISt3mapSt6vectorSA_blmdSaS1_SF_IhSaIhEEvEERKSB_
FNDA:0,_ZN8nlohmann16json_abi_v3_11_314adl_serializerISt7variantIJN3MAS9CoreShapeENSt7__cxx1112basic_stringIcSt11char_traitsIcESaIcEEEEEvE9from_jsonERKNS0_10basic_jsonISt3mapSt6vectorSA_blmdSaS1_SF_IhSaIhEEvEERSB_
FNDA:0,_ZN8nlohmann16json_abi_v3_11_314adl_serializerISt7variantIJN3MAS9CoreShapeENSt7__cxx1112basic_stringIcSt11char_traitsIcESaIcEEEEEvE7to_jsonERNS0_10basic_jsonISt3mapSt6vectorSA_blmdSaS1_SF_IhSaIhEEvEERKSB_
FNDA:0,_ZNK3MAS31IsolatedBuckBoostOperatingPoint23get_ambient_temperatureEv
FNDA:0,_ZN3MAS31IsolatedBuckBoostOperatingPoint23set_ambient_temperatureERKd
FNDA:0,_ZNK3MAS31IsolatedBuckBoostOperatingPoint19get_output_currentsEv
FNDA:0,_ZN3MAS31IsolatedBuckBoostOperatingPoint19set_output_currentsERKSt6vectorIdSaIdEE
FNDA:0,_ZNK3MAS31IsolatedBuckBoostOperatingPoint19get_output_voltagesEv
FNDA:0,_ZN3MAS31IsolatedBuckBoostOperatingPoint19set_output_voltagesERKSt6vectorIdSaIdEE
FNDA:0,_ZNK3MAS31IsolatedBuckBoostOperatingPoint23get_switching_frequencyEv
FNDA:0,_ZN3MAS31IsolatedBuckBoostOperatingPoint23set_switching_frequencyERKd
FNDA:0,_ZN3MAS17IsolatedBuckBoostC2Ev
FNDA:0,_ZN3MAS17IsolatedBuckBoostD0Ev
FNDA:0,_ZN3MAS17IsolatedBuckBoostD2Ev
FNDA:0,_ZN3MAS15CheckConstraintERKNSt7__cxx1112basic_stringIcSt11char_traitsIcESaIcEEERKNS_22ClassMemberConstraintsEl
FNDA:0,_ZNK3MAS17IsolatedBuckBoost24get_current_ripple_ratioEv
FNDA:0,_ZN3MAS17IsolatedBuckBoost24set_current_ripple_ratioESt8optionalIdE
FNDA:0,_ZNK3MAS17IsolatedBuckBoost22get_diode_voltage_dropEv
FNDA:0,_ZN3MAS17IsolatedBuckBoost22set_diode_voltage_dropERKd
FNDA:0,_ZNK3MAS17IsolatedBuckBoost14get_efficiencyEv
FNDA:0,_ZN3MAS17IsolatedBuckBoost14set_efficiencyESt8optionalIdE
FNDA:0,_ZNK3MAS17IsolatedBuckBoost17get_input_voltageEv
FNDA:0,_ZN3MAS17IsolatedBuckBoost17set_input_voltageERKNS_22DimensionWithToleranceE
FNDA:0,_ZNK3MAS17IsolatedBuckBoost26get_maximum_switch_currentEv
FNDA:0,_ZN3MAS17IsolatedBuckBoost26set_maximum_switch_currentESt8optionalIdE
FNDA:0,_ZNK3MAS17IsolatedBuckBoost20get_operating_pointsEv
FNDA:0,_ZN3MAS17IsolatedBuckBoost20set_operating_pointsERKSt6vectorINS_31IsolatedBuckBoostOperatingPointESaIS2_EE
FNDA:0,_ZN3MAS17LlcOperatingPointC2Ev
FNDA:0,_ZN3MAS17LlcOperatingPointD0Ev
FNDA:0,_ZN3MAS17LlcOperatingPointD2Ev
FNDA:0,_ZNK3MAS17LlcOperatingPoint23get_ambient_temperatureEv
FNDA:0,_ZN3MAS17LlcOperatingPoint23set_ambient_temperatureERKd
FNDA:0,_ZNK3MAS17LlcOperatingPoint19get_output_currentsEv
FNDA:0,_ZN3MAS17LlcOperatingPoint19set_output_currentsERKSt6vectorIdSaIdEE
FNDA:0,_ZNK3MAS17LlcOperatingPoint19get_output_voltagesEv
FNDA:0,_ZN3MAS17LlcOperatingPoint19set_output_voltagesERKSt6vectorIdSaIdEE
FNDA:0,_ZNK3MAS17LlcOperatingPoint23get_switching_frequencyEv
FNDA:0,_ZN3MAS17LlcOperatingPoint23set_switching_frequencyERKd
FNDA:0,_ZN3MAS11LlcResonantC2Ev
FNDA:0,_ZN3MAS11LlcResonantD0Ev
FNDA:0,_ZN3MAS11LlcResonantD2Ev
FNDA:0,_ZN3MAS15CheckConstraintERKNSt7__cxx1112basic_stringIcSt11char_traitsIcESaIcEEERKNS_22ClassMemberConstraintsEd
FNDA:0,_ZNK3MAS11LlcResonant15get_bridge_typeEv
FNDA:0,_ZN3MAS11LlcResonant15set_bridge_typeESt8optionalINS_13LlcBridgeTypeEE
FNDA:0,_ZN3MAS11LlcResonant14set_efficiencyESt8optionalIdE
FNDA:0,_ZNK3MAS11LlcResonant20get_inductance_ratioEv
FNDA:0,_ZN3MAS11LlcResonant20set_inductance_ratioESt8optionalIdE
FNDA:0,_ZNK3MAS11LlcResonant17get_input_voltageEv
FNDA:0,_ZN3MAS11LlcResonant17set_input_voltageERKNS_22DimensionWithToleranceE
FNDA:0,_ZNK3MAS11LlcResonant32get_integrated_resonant_inductorEv
FNDA:0,_ZN3MAS11LlcResonant32set_integrated_resonant_inductorESt8optionalIbE
FNDA:0,_ZNK3MAS11LlcResonant27get_max_switching_frequencyEv
FNDA:0,_ZN3MAS11LlcResonant27set_max_switching_frequencyERKd
FNDA:0,_ZNK3MAS11LlcResonant27get_min_switching_frequencyEv
FNDA:0,_ZN3MAS11LlcResonant27set_min_switching_frequencyERKd
FNDA:0,_ZNK3MAS11LlcResonant20get_operating_pointsEv
FNDA:0,_ZN3MAS11LlcResonant20set_operating_pointsERKSt6vectorINS_17LlcOperatingPointESaIS2_EE
FNDA:0,_ZNK3MAS11LlcResonant18get_quality_factorEv
FNDA:0,_ZN3MAS11LlcResonant18set_quality_factorESt8optionalIdE
FNDA:0,_ZN3MAS11LlcResonant24set_resonant_capacitanceESt8optionalIdE
FNDA:0,_ZNK3MAS11LlcResonant22get_resonant_frequencyEv
FNDA:0,_ZN3MAS11LlcResonant22set_resonant_frequencyESt8optionalIdE
FNDA:0,_ZN3MAS11LlcResonant21set_series_inductanceESt8optionalIdE
FNDA:0,_ZN3MAS18PsfbOperatingPointC2Ev
FNDA:0,_ZN3MAS18PsfbOperatingPointD0Ev
FNDA:0,_ZN3MAS18PsfbOperatingPointD2Ev
FNDA:0,_ZNK3MAS18PsfbOperatingPoint23get_ambient_temperatureEv
FNDA:0,_ZN3MAS18PsfbOperatingPoint23set_ambient_temperatureERKd
FNDA:0,_ZNK3MAS18PsfbOperatingPoint19get_output_currentsEv
FNDA:0,_ZN3MAS18PsfbOperatingPoint19set_output_currentsERKSt6vectorIdSaIdEE
FNDA:0,_ZNK3MAS18PsfbOperatingPoint19get_output_voltagesEv
FNDA:0,_ZN3MAS18PsfbOperatingPoint19set_output_voltagesERKSt6vectorIdSaIdEE
FNDA:0,_ZNK3MAS18PsfbOperatingPoint15get_phase_shiftEv
FNDA:0,_ZN3MAS18PsfbOperatingPoint15set_phase_shiftERKd
FNDA:0,_ZNK3MAS18PsfbOperatingPoint23get_switching_frequencyEv
FNDA:0,_ZN3MAS18PsfbOperatingPoint23set_switching_frequencyERKd
FNDA:0,_ZN3MAS20PhaseShiftFullBridgeC2Ev
FNDA:0,_ZN3MAS20PhaseShiftFullBridgeD0Ev
FNDA:0,_ZN3MAS20PhaseShiftFullBridgeD2Ev
FNDA:0,_ZN3MAS20PhaseShiftFullBridge14set_efficiencyESt8optionalIdE
FNDA:0,_ZNK3MAS20PhaseShiftFullBridge17get_input_voltageEv
FNDA:0,_ZN3MAS20PhaseShiftFullBridge17set_input_voltageERKNS_22DimensionWithToleranceE
FNDA:0,_ZN3MAS20PhaseShiftFullBridge23set_maximum_phase_shiftESt8optionalIdE
FNDA:0,_ZNK3MAS20PhaseShiftFullBridge20get_operating_pointsEv
FNDA:0,_ZN3MAS20PhaseShiftFullBridge20set_operating_pointsERKSt6vectorINS_18PsfbOperatingPointESaIS2_EE
FNDA:0,_ZNK3MAS20PhaseShiftFullBridge21get_output_inductanceEv
FNDA:0,_ZN3MAS20PhaseShiftFullBridge21set_output_inductanceESt8optionalIdE
FNDA:0,_ZNK3MAS20PhaseShiftFullBridge18get_rectifier_typeEv
FNDA:0,_ZN3MAS20PhaseShiftFullBridge18set_rectifier_typeESt8optionalINS_17PsfbRectifierTypeEE
FNDA:0,_ZNK3MAS20PhaseShiftFullBridge21get_series_inductanceEv
FNDA:0,_ZN3MAS20PhaseShiftFullBridge21set_series_inductanceESt8optionalIdE
FNDA:0,_ZNK3MAS20PhaseShiftFullBridge26get_use_leakage_inductanceEv
FNDA:0,_ZN3MAS20PhaseShiftFullBridge26set_use_leakage_inductanceESt8optionalIbE
FNDA:0,_ZN3MAS22PushPullOperatingPointC2Ev
FNDA:0,_ZN3MAS22PushPullOperatingPointD0Ev
FNDA:0,_ZN3MAS22PushPullOperatingPointD2Ev
FNDA:0,_ZNK3MAS22PushPullOperatingPoint23get_ambient_temperatureEv
FNDA:0,_ZN3MAS22PushPullOperatingPoint23set_ambient_temperatureERKd
FNDA:0,_ZNK3MAS22PushPullOperatingPoint19get_output_currentsEv
FNDA:0,_ZN3MAS22PushPullOperatingPoint19set_output_currentsERKSt6vectorIdSaIdEE
FNDA:0,_ZNK3MAS22PushPullOperatingPoint19get_output_voltagesEv
FNDA:0,_ZN3MAS22PushPullOperatingPoint19set_output_voltagesERKSt6vectorIdSaIdEE
FNDA:0,_ZNK3MAS22PushPullOperatingPoint23get_switching_frequencyEv
FNDA:0,_ZN3MAS22PushPullOperatingPoint23set_switching_frequencyERKd
FNDA:0,_ZN3MAS8PushPullC2Ev
FNDA:0,_ZN3MAS8PushPullD0Ev
FNDA:0,_ZN3MAS8PushPullD2Ev
FNDA:0,_ZNK3MAS8PushPull24get_current_ripple_ratioEv
FNDA:0,_ZN3MAS8PushPull24set_current_ripple_ratioERKd
FNDA:0,_ZNK3MAS8PushPull22get_diode_voltage_dropEv
FNDA:0,_ZN3MAS8PushPull22set_diode_voltage_dropERKd
FNDA:0,_ZNK3MAS8PushPull14get_duty_cycleEv
FNDA:0,_ZN3MAS8PushPull14set_duty_cycleESt8optionalIdE
FNDA:0,_ZNK3MAS8PushPull14get_efficiencyEv
FNDA:0,_ZN3MAS8PushPull14set_efficiencyESt8optionalIdE
FNDA:0,_ZNK3MAS8PushPull17get_input_voltageEv
FNDA:0,_ZN3MAS8PushPull17set_input_voltageERKNS_22DimensionWithToleranceE
FNDA:0,_ZNK3MAS8PushPull32get_maximum_drain_source_voltageEv
FNDA:0,_ZN3MAS8PushPull32set_maximum_drain_source_voltageESt8optionalIdE
FNDA:0,_ZNK3MAS8PushPull26get_maximum_switch_currentEv
FNDA:0,_ZN3MAS8PushPull26set_maximum_switch_currentESt8optionalIdE
FNDA:0,_ZNK3MAS8PushPull20get_operating_pointsEv
FNDA:0,_ZN3MAS8PushPull20set_operating_pointsERKSt6vectorINS_22PushPullOperatingPointESaIS2_EE
FNDA:0,_ZN3MAS19SupportedTopologiesC2Ev
FNDA:0,_ZN3MAS19SupportedTopologiesD0Ev
FNDA:0,_ZN3MAS19SupportedTopologiesD2Ev
FNDA:0,_ZN3MAS19SupportedTopologies9set_boostESt8optionalINS_5BoostEE
FNDA:0,_ZN3MAS19SupportedTopologies8set_buckESt8optionalINS_4BuckEE
FNDA:0,_ZN3MAS19SupportedTopologies17set_cllc_resonantESt8optionalINS_12CllcResonantEE
FNDA:0,_ZN3MAS19SupportedTopologies23set_current_transformerESt8optionalINS_18CurrentTransformerEE
FNDA:0,_ZN3MAS19SupportedTopologies22set_dual_active_bridgeESt8optionalINS_16DualActiveBridgeEE
FNDA:0,_ZN3MAS19SupportedTopologies11set_flybackESt8optionalINS_7FlybackEE
FNDA:0,_ZN3MAS19SupportedTopologies11set_forwardESt8optionalINS_7ForwardEE
FNDA:0,_ZN3MAS19SupportedTopologies17set_isolated_buckESt8optionalINS_12IsolatedBuckEE
FNDA:0,_ZN3MAS19SupportedTopologies23set_isolated_buck_boostESt8optionalINS_17IsolatedBuckBoostEE
FNDA:0,_ZN3MAS19SupportedTopologies16set_llc_resonantESt8optionalINS_11LlcResonantEE
FNDA:0,_ZN3MAS19SupportedTopologies27set_phase_shift_full_bridgeESt8optionalINS_20PhaseShiftFullBridgeEE
FNDA:0,_ZN3MAS19SupportedTopologies13set_push_pullESt8optionalINS_8PushPullEE
FNDA:0,_ZN3MAS20ConverterInformationC2Ev
FNDA:0,_ZN3MAS20ConverterInformationD0Ev
FNDA:0,_ZN3MAS20ConverterInformationD2Ev
FNDA:0,_ZN3MAS20ConverterInformation24set_supported_topologiesESt8optionalINS_19SupportedTopologiesEE
FNDA:0,_ZN3MAS22InsulationRequirementsC2Ev
FNDA:0,_ZN3MAS22InsulationRequirementsD0Ev
FNDA:0,_ZN3MAS22InsulationRequirementsD2Ev
FNDA:0,_ZNK3MAS22InsulationRequirements12get_altitudeEv
FNDA:0,_ZN3MAS22InsulationRequirements12set_altitudeESt8optionalINS_22DimensionWithToleranceEE
FNDA:0,_ZNK3MAS22InsulationRequirements7get_ctiEv
FNDA:0,_ZN3MAS22InsulationRequirements7set_ctiESt8optionalINS_3CtiEE
FNDA:0,_ZNK3MAS22InsulationRequirements19get_insulation_typeEv
FNDA:0,_ZN3MAS22InsulationRequirements19set_insulation_typeESt8optionalINS_14InsulationTypeEE
FNDA:0,_ZNK3MAS22InsulationRequirements23get_main_supply_voltageEv
FNDA:0,_ZN3MAS22InsulationRequirements23set_main_supply_voltageESt8optionalINS_22DimensionWithToleranceEE
FNDA:0,_ZNK3MAS22InsulationRequirements24get_overvoltage_categoryEv
FNDA:0,_ZN3MAS22InsulationRequirements24set_overvoltage_categoryESt8optionalINS_19OvervoltageCategoryEE
FNDA:0,_ZNK3MAS22InsulationRequirements20get_pollution_degreeEv
FNDA:0,_ZN3MAS22InsulationRequirements20set_pollution_degreeESt8optionalINS_15PollutionDegreeEE
FNDA:0,_ZNK3MAS22InsulationRequirements13get_standardsEv
FNDA:0,_ZN3MAS22InsulationRequirements13set_standardsESt8optionalISt6vectorINS_19InsulationStandardsESaIS3_EEE
FNDA:0,_ZN3MAS17MaximumDimensionsC2Ev
FNDA:0,_ZN3MAS17MaximumDimensionsD0Ev
FNDA:0,_ZN3MAS17MaximumDimensionsD2Ev
FNDA:0,_ZNK3MAS17MaximumDimensions9get_depthEv
FNDA:0,_ZN3MAS17MaximumDimensions9set_depthESt8optionalIdE
FNDA:0,_ZNK3MAS17MaximumDimensions10get_heightEv
FNDA:0,_ZN3MAS17MaximumDimensions10set_heightESt8optionalIdE
FNDA:0,_ZNK3MAS17MaximumDimensions9get_widthEv
FNDA:0,_ZN3MAS17MaximumDimensions9set_widthESt8optionalIdE
FNDA:0,_ZN3MAS14ImpedancePointC2Ev
FNDA:0,_ZN3MAS14ImpedancePointD0Ev
FNDA:0,_ZN3MAS14ImpedancePointD2Ev
FNDA:0,_ZNK3MAS14ImpedancePoint18get_imaginary_partEv
FNDA:0,_ZN3MAS14ImpedancePoint18set_imaginary_partESt8optionalIdE
FNDA:0,_ZNK3MAS14ImpedancePoint13get_magnitudeEv
FNDA:0,_ZN3MAS14ImpedancePoint13set_magnitudeERKd
FNDA:0,_ZNK3MAS14ImpedancePoint9get_phaseEv
FNDA:0,_ZN3MAS14ImpedancePoint9set_phaseESt8optionalIdE
FNDA:0,_ZNK3MAS14ImpedancePoint13get_real_partEv
FNDA:0,_ZN3MAS14ImpedancePoint13set_real_partESt8optionalIdE
FNDA:0,_ZN3MAS20ImpedanceAtFrequencyC2Ev
FNDA:0,_ZN3MAS20ImpedanceAtFrequencyD0Ev
FNDA:0,_ZN3MAS20ImpedanceAtFrequencyD2Ev
FNDA:0,_ZNK3MAS20ImpedanceAtFrequency13get_frequencyEv
FNDA:0,_ZN3MAS20ImpedanceAtFrequency13set_frequencyERKd
FNDA:0,_ZNK3MAS20ImpedanceAtFrequency13get_impedanceEv
FNDA:0,_ZN3MAS20ImpedanceAtFrequency13set_impedanceERKNS_14ImpedancePointE
FNDA:0,_ZN3MAS18get_stack_optionalINS_10TopologiesEEESt8optionalIT_ERKN8nlohmann16json_abi_v3_11_310basic_jsonISt3mapSt6vectorNSt7__cxx1112basic_stringIcSt11char_traitsIcESaIcEEEblmdSaNS6_14adl_serializerES9_IhSaIhEEvEEPKc
FNDA:0,_ZN3MAS18get_stack_optionalINS_11ApplicationEEESt8optionalIT_ERKN8nlohmann16json_abi_v3_11_310basic_jsonISt3mapSt6vectorNSt7__cxx1112basic_stringIcSt11char_traitsIcESaIcEEEblmdSaNS6_14adl_serializerES9_IhSaIhEEvEEPKc
FNDA:0,_ZN3MAS18get_stack_optionalINS_11ColumnShapeEEESt8optionalIT_ERKN8nlohmann16json_abi_v3_11_310basic_jsonISt3mapSt6vectorNSt7__cxx1112basic_stringIcSt11char_traitsIcESaIcEEEblmdSaNS6_14adl_serializerES9_IhSaIhEEvEEPKc
FNDA:0,_ZN3MAS18get_stack_optionalINS_11LlcResonantEEESt8optionalIT_ERKN8nlohmann16json_abi_v3_11_310basic_jsonISt3mapSt6vectorNSt7__cxx1112basic_stringIcSt11char_traitsIcESaIcEEEblmdSaNS6_14adl_serializerES9_IhSaIhEEvEEPKc
FNDA:0,_ZN3MAS18get_stack_optionalINS_11OhmicLossesEEESt8optionalIT_ERKN8nlohmann16json_abi_v3_11_310basic_jsonISt3mapSt6vectorNSt7__cxx1112basic_stringIcSt11char_traitsIcESaIcEEEblmdSaNS6_14adl_serializerES9_IhSaIhEEvEEPKc
FNDA:0,_ZN3MAS18get_stack_optionalINS_11VoltageTypeEEESt8optionalIT_ERKN8nlohmann16json_abi_v3_11_310basic_jsonISt3mapSt6vectorNSt7__cxx1112basic_stringIcSt11char_traitsIcESaIcEEEblmdSaNS6_14adl_serializerES9_IhSaIhEEvEEPKc
FNDA:0,_ZN3MAS18get_stack_optionalINS_12CllcResonantEEESt8optionalIT_ERKN8nlohmann16json_abi_v3_11_310basic_jsonISt3mapSt6vectorNSt7__cxx1112basic_stringIcSt11char_traitsIcESaIcEEEblmdSaNS6_14adl_serializerES9_IhSaIhEEvEEPKc
FNDA:0,_ZN3MAS18get_stack_optionalINS_12FlybackModesEEESt8optionalIT_ERKN8nlohmann16json_abi_v3_11_310basic_jsonISt3mapSt6vectorNSt7__cxx1112basic_stringIcSt11char_traitsIcESaIcEEEblmdSaNS6_14adl_serializerES9_IhSaIhEEvEEPKc
FNDA:0,_ZN3MAS18get_stack_optionalINS_12IsolatedBuckEEESt8optionalIT_ERKN8nlohmann16json_abi_v3_11_310basic_jsonISt3mapSt6vectorNSt7__cxx1112basic_stringIcSt11char_traitsIcESaIcEEEblmdSaNS6_14adl_serializerES9_IhSaIhEEvEEPKc
FNDA:0,_ZN3MAS18get_stack_optionalINS_12WindingStyleEEESt8optionalIT_ERKN8nlohmann16json_abi_v3_11_310basic_jsonISt3mapSt6vectorNSt7__cxx1112basic_stringIcSt11char_traitsIcESaIcEEEblmdSaNS6_14adl_serializerES9_IhSaIhEEvEEPKc
FNDA:0,_ZN3MAS18get_stack_optionalINS_12WireStandardEEESt8optionalIT_ERKN8nlohmann16json_abi_v3_11_310basic_jsonISt3mapSt6vectorNSt7__cxx1112basic_stringIcSt11char_traitsIcESaIcEEEblmdSaNS6_14adl_serializerES9_IhSaIhEEvEEPKc
FNDA:0,_ZN3MAS18get_stack_optionalINS_13CoilAlignmentEEESt8optionalIT_ERKN8nlohmann16json_abi_v3_11_310basic_jsonISt3mapSt6vectorNSt7__cxx1112basic_stringIcSt11char_traitsIcESaIcEEEblmdSaNS6_14adl_serializerES9_IhSaIhEEvEEPKc
FNDA:0,_ZN3MAS18get_stack_optionalINS_13LlcBridgeTypeEEESt8optionalIT_ERKN8nlohmann16json_abi_v3_11_310basic_jsonISt3mapSt6vectorNSt7__cxx1112basic_stringIcSt11char_traitsIcESaIcEEEblmdSaNS6_14adl_serializerES9_IhSaIhEEvEEPKc
FNDA:0,_ZN3MAS18get_stack_optionalINS_13WaveformLabelEEESt8optionalIT_ERKN8nlohmann16json_abi_v3_11_310basic_jsonISt3mapSt6vectorNSt7__cxx1112basic_stringIcSt11char_traitsIcESaIcEEEblmdSaNS6_14adl_serializerES9_IhSaIhEEvEEPKc
FNDA:0,_ZN3MAS18get_stack_optionalINS_14ConnectionTypeEEESt8optionalIT_ERKN8nlohmann16json_abi_v3_11_310basic_jsonISt3mapSt6vectorNSt7__cxx1112basic_stringIcSt11char_traitsIcESaIcEEEblmdSaNS6_14adl_serializerES9_IhSaIhEEvEEPKc
FNDA:0,_ZN3MAS18get_stack_optionalINS_14InsulationTypeEEESt8optionalIT_ERKN8nlohmann16json_abi_v3_11_310basic_jsonISt3mapSt6vectorNSt7__cxx1112basic_stringIcSt11char_traitsIcESaIcEEEblmdSaNS6_14adl_serializerES9_IhSaIhEEvEEPKc
FNDA:0,_ZN3MAS18get_stack_optionalINS_14ModulationTypeEEESt8optionalIT_ERKN8nlohmann16json_abi_v3_11_310basic_jsonISt3mapSt6vectorNSt7__cxx1112basic_stringIcSt11char_traitsIcESaIcEEEblmdSaNS6_14adl_serializerES9_IhSaIhEEvEEPKc
FNDA:0,_ZN3MAS18get_stack_optionalINS_14OperatingPointEEESt8optionalIT_ERKN8nlohmann16json_abi_v3_11_310basic_jsonISt3mapSt6vectorNSt7__cxx1112basic_stringIcSt11char_traitsIcESaIcEEEblmdSaNS6_14adl_serializerES9_IhSaIhEEvEEPKc
FNDA:0,_ZN3MAS18get_stack_optionalINS_14SubApplicationEEESt8optionalIT_ERKN8nlohmann16json_abi_v3_11_310basic_jsonISt3mapSt6vectorNSt7__cxx1112basic_stringIcSt11char_traitsIcESaIcEEEblmdSaNS6_14adl_serializerES9_IhSaIhEEvEEPKc
FNDA:0,_ZN3MAS18get_stack_optionalINS_15FrequencyFactorEEESt8optionalIT_ERKN8nlohmann16json_abi_v3_11_310basic_jsonISt3mapSt6vectorNSt7__cxx1112basic_stringIcSt11char_traitsIcESaIcEEEblmdSaNS6_14adl_serializerES9_IhSaIhEEvEEPKc
FNDA:0,_ZN3MAS18get_stack_optionalINS_15ImpedanceOutputEEESt8optionalIT_ERKN8nlohmann16json_abi_v3_11_310basic_jsonISt3mapSt6vectorNSt7__cxx1112basic_stringIcSt11char_traitsIcESaIcEEEblmdSaNS6_14adl_serializerES9_IhSaIhEEvEEPKc
FNDA:0,_ZN3MAS18get_stack_optionalINS_15MagneticCircuitEEESt8optionalIT_ERKN8nlohmann16json_abi_v3_11_310basic_jsonISt3mapSt6vectorNSt7__cxx1112basic_stringIcSt11char_traitsIcESaIcEEEblmdSaNS6_14adl_serializerES9_IhSaIhEEvEEPKc
FNDA:0,_ZN3MAS18get_stack_optionalINS_15PollutionDegreeEEESt8optionalIT_ERKN8nlohmann16json_abi_v3_11_310basic_jsonISt3mapSt6vectorNSt7__cxx1112basic_stringIcSt11char_traitsIcESaIcEEEblmdSaNS6_14adl_serializerES9_IhSaIhEEvEEPKc
FNDA:0,_ZN3MAS18get_stack_optionalINS_15TurnOrientationEEESt8optionalIT_ERKN8nlohmann16json_abi_v3_11_310basic_jsonISt3mapSt6vectorNSt7__cxx1112basic_stringIcSt11char_traitsIcESaIcEEEblmdSaNS6_14adl_serializerES9_IhSaIhEEvEEPKc
FNDA:0,_ZN3MAS18get_stack_optionalINS_16CoordinateSystemEEESt8optionalIT_ERKN8nlohmann16json_abi_v3_11_310basic_jsonISt3mapSt6vectorNSt7__cxx1112basic_stringIcSt11char_traitsIcESaIcEEEblmdSaNS6_14adl_serializerES9_IhSaIhEEvEEPKc
FNDA:0,_ZN3MAS18get_stack_optionalINS_16CoreLossesOutputEEESt8optionalIT_ERKN8nlohmann16json_abi_v3_11_310basic_jsonISt3mapSt6vectorNSt7__cxx1112basic_stringIcSt11char_traitsIcESaIcEEEblmdSaNS6_14adl_serializerES9_IhSaIhEEvEEPKc
FNDA:0,_ZN3MAS18get_stack_optionalINS_16DualActiveBridgeEEESt8optionalIT_ERKN8nlohmann16json_abi_v3_11_310basic_jsonISt3mapSt6vectorNSt7__cxx1112basic_stringIcSt11char_traitsIcESaIcEEEblmdSaNS6_14adl_serializerES9_IhSaIhEEvEEPKc
FNDA:0,_ZN3MAS18get_stack_optionalINS_16InductanceOutputEEESt8optionalIT_ERKN8nlohmann16json_abi_v3_11_310basic_jsonISt3mapSt6vectorNSt7__cxx1112basic_stringIcSt11char_traitsIcESaIcEEEblmdSaNS6_14adl_serializerES9_IhSaIhEEvEEPKc
FNDA:0,_ZN3MAS18get_stack_optionalINS_16ManufacturerInfoEEESt8optionalIT_ERKN8nlohmann16json_abi_v3_11_310basic_jsonISt3mapSt6vectorNSt7__cxx1112basic_stringIcSt11char_traitsIcESaIcEEEblmdSaNS6_14adl_serializerES9_IhSaIhEEvEEPKc
FNDA:0,_ZN3MAS18get_stack_optionalINS_16SignalDescriptorEEESt8optionalIT_ERKN8nlohmann16json_abi_v3_11_310basic_jsonISt3mapSt6vectorNSt7__cxx1112basic_stringIcSt11char_traitsIcESaIcEEEblmdSaNS6_14adl_serializerES9_IhSaIhEEvEEPKc
FNDA:0,_ZN3MAS18get_stack_optionalINS_16TemperaturePointEEESt8optionalIT_ERKN8nlohmann16json_abi_v3_11_310basic_jsonISt3mapSt6vectorNSt7__cxx1112basic_stringIcSt11char_traitsIcESaIcEEEblmdSaNS6_14adl_serializerES9_IhSaIhEEvEEPKc
FNDA:0,_ZN3MAS18get_stack_optionalINS_16WiringTechnologyEEESt8optionalIT_ERKN8nlohmann16json_abi_v3_11_310basic_jsonISt3mapSt6vectorNSt7__cxx1112basic_stringIcSt11char_traitsIcESaIcEEEblmdSaNS6_14adl_serializerES9_IhSaIhEEvEEPKc
FNDA:0,_ZN3MAS18get_stack_optionalINS_17IsolatedBuckBoostEEESt8optionalIT_ERKN8nlohmann16json_abi_v3_11_310basic_jsonISt3mapSt6vectorNSt7__cxx1112basic_stringIcSt11char_traitsIcESaIcEEEblmdSaNS6_14adl_serializerES9_IhSaIhEEvEEPKc
FNDA:0,_ZN3MAS18get_stack_optionalINS_17MaximumDimensionsEEESt8optionalIT_ERKN8nlohmann16json_abi_v3_11_310basic_jsonISt3mapSt6vectorNSt7__cxx1112basic_stringIcSt11char_traitsIcESaIcEEEblmdSaNS6_14adl_serializerES9_IhSaIhEEvEEPKc
FNDA:0,_ZN3MAS18get_stack_optionalINS_17PsfbRectifierTypeEEESt8optionalIT_ERKN8nlohmann16json_abi_v3_11_310basic_jsonISt3mapSt6vectorNSt7__cxx1112basic_stringIcSt11char_traitsIcESaIcEEEblmdSaNS6_14adl_serializerES9_IhSaIhEEvEEPKc
FNDA:0,_ZN3MAS18get_stack_optionalINS_17TemperatureFactorEEESt8optionalIT_ERKN8nlohmann16json_abi_v3_11_310basic_jsonISt3mapSt6vectorNSt7__cxx1112basic_stringIcSt11char_traitsIcESaIcEEEblmdSaNS6_14adl_serializerES9_IhSaIhEEvEEPKc
FNDA:0,_ZN3MAS18get_stack_optionalINS_17TemperatureOutputEEESt8optionalIT_ERKN8nlohmann16json_abi_v3_11_310basic_jsonISt3mapSt6vectorNSt7__cxx1112basic_stringIcSt11char_traitsIcESaIcEEEblmdSaNS6_14adl_serializerES9_IhSaIhEEvEEPKc
FNDA:0,_ZN3MAS18get_stack_optionalINS_18CurrentTransformerEEESt8optionalIT_ERKN8nlohmann16json_abi_v3_11_310basic_jsonISt3mapSt6vectorNSt7__cxx1112basic_stringIcSt11char_traitsIcESaIcEEEblmdSaNS6_14adl_serializerES9_IhSaIhEEvEEPKc
FNDA:0,_ZN3MAS18get_stack_optionalINS_18WindingLossElementEEESt8optionalIT_ERKN8nlohmann16json_abi_v3_11_310basic_jsonISt3mapSt6vectorNSt7__cxx1112basic_stringIcSt11char_traitsIcESaIcEEEblmdSaNS6_14adl_serializerES9_IhSaIhEEvEEPKc
FNDA:0,_ZN3MAS18get_stack_optionalINS_18WindingOrientationEEESt8optionalIT_ERKN8nlohmann16json_abi_v3_11_310basic_jsonISt3mapSt6vectorNSt7__cxx1112basic_stringIcSt11char_traitsIcESaIcEEEblmdSaNS6_14adl_serializerES9_IhSaIhEEvEEPKc
FNDA:0,_ZN3MAS18get_stack_optionalINS_18WindingWindowShapeEEESt8optionalIT_ERKN8nlohmann16json_abi_v3_11_310basic_jsonISt3mapSt6vectorNSt7__cxx1112basic_stringIcSt11char_traitsIcESaIcEEEblmdSaNS6_14adl_serializerES9_IhSaIhEEvEEPKc
FNDA:0,_ZN3MAS18get_stack_optionalINS_19MaterialCompositionEEESt8optionalIT_ERKN8nlohmann16json_abi_v3_11_310basic_jsonISt3mapSt6vectorNSt7__cxx1112basic_stringIcSt11char_traitsIcESaIcEEEblmdSaNS6_14adl_serializerES9_IhSaIhEEvEEPKc
FNDA:0,_ZN3MAS18get_stack_optionalINS_19OvervoltageCategoryEEESt8optionalIT_ERKN8nlohmann16json_abi_v3_11_310basic_jsonISt3mapSt6vectorNSt7__cxx1112basic_stringIcSt11char_traitsIcESaIcEEEblmdSaNS6_14adl_serializerES9_IhSaIhEEvEEPKc
FNDA:0,_ZN3MAS18get_stack_optionalINS_19SupportedTopologiesEEESt8optionalIT_ERKN8nlohmann16json_abi_v3_11_310basic_jsonISt3mapSt6vectorNSt7__cxx1112basic_stringIcSt11char_traitsIcESaIcEEEblmdSaNS6_14adl_serializerES9_IhSaIhEEvEEPKc
FNDA:0,_ZN3MAS18get_stack_optionalINS_19WindingLossesOutputEEESt8optionalIT_ERKN8nlohmann16json_abi_v3_11_310basic_jsonISt3mapSt6vectorNSt7__cxx1112basic_stringIcSt11char_traitsIcESaIcEEEblmdSaNS6_14adl_serializerES9_IhSaIhEEvEEPKc
FNDA:0,_ZN3MAS18get_stack_optionalINS_20ConverterInformationEEESt8optionalIT_ERKN8nlohmann16json_abi_v3_11_310basic_jsonISt3mapSt6vectorNSt7__cxx1112basic_stringIcSt11char_traitsIcESaIcEEEblmdSaNS6_14adl_serializerES9_IhSaIhEEvEEPKc
FNDA:0,_ZN3MAS18get_stack_optionalINS_20PhaseShiftFullBridgeEEESt8optionalIT_ERKN8nlohmann16json_abi_v3_11_310basic_jsonISt3mapSt6vectorNSt7__cxx1112basic_stringIcSt11char_traitsIcESaIcEEEblmdSaNS6_14adl_serializerES9_IhSaIhEEvEEPKc
FNDA:0,_ZN3MAS18get_stack_optionalINS_22DimensionWithToleranceEEESt8optionalIT_ERKN8nlohmann16json_abi_v3_11_310basic_jsonISt3mapSt6vectorNSt7__cxx1112basic_stringIcSt11char_traitsIcESaIcEEEblmdSaNS6_14adl_serializerES9_IhSaIhEEvEEPKc
FNDA:0,_ZN3MAS18get_stack_optionalINS_22InsulationRequirementsEEESt8optionalIT_ERKN8nlohmann16json_abi_v3_11_310basic_jsonISt3mapSt6vectorNSt7__cxx1112basic_stringIcSt11char_traitsIcESaIcEEEblmdSaNS6_14adl_serializerES9_IhSaIhEEvEEPKc
FNDA:0,_ZN3MAS18get_stack_optionalINS_23ComplexPermeabilityDataEEESt8optionalIT_ERKN8nlohmann16json_abi_v3_11_310basic_jsonISt3mapSt6vectorNSt7__cxx1112basic_stringIcSt11char_traitsIcESaIcEEEblmdSaNS6_14adl_serializerES9_IhSaIhEEvEEPKc
FNDA:0,_ZN3MAS18get_stack_optionalINS_23LeakageInductanceOutputEEESt8optionalIT_ERKN8nlohmann16json_abi_v3_11_310basic_jsonISt3mapSt6vectorNSt7__cxx1112basic_stringIcSt11char_traitsIcESaIcEEEblmdSaNS6_14adl_serializerES9_IhSaIhEEvEEPKc
FNDA:0,_ZN3MAS18get_stack_optionalINS_23TurnCrossSectionalShapeEEESt8optionalIT_ERKN8nlohmann16json_abi_v3_11_310basic_jsonISt3mapSt6vectorNSt7__cxx1112basic_stringIcSt11char_traitsIcESaIcEEEblmdSaNS6_14adl_serializerES9_IhSaIhEEvEEPKc
FNDA:0,_ZN3MAS18get_stack_optionalINS_24CoreProcessedDescriptionEEESt8optionalIT_ERKN8nlohmann16json_abi_v3_11_310basic_jsonISt3mapSt6vectorNSt7__cxx1112basic_stringIcSt11char_traitsIcESaIcEEEblmdSaNS6_14adl_serializerES9_IhSaIhEEvEEPKc
FNDA:0,_ZN3MAS18get_stack_optionalINS_24MagneticManufacturerInfoEEESt8optionalIT_ERKN8nlohmann16json_abi_v3_11_310basic_jsonISt3mapSt6vectorNSt7__cxx1112basic_stringIcSt11char_traitsIcESaIcEEEblmdSaNS6_14adl_serializerES9_IhSaIhEEvEEPKc
FNDA:0,_ZN3MAS18get_stack_optionalINS_25InsulationWireCoatingTypeEEESt8optionalIT_ERKN8nlohmann16json_abi_v3_11_310basic_jsonISt3mapSt6vectorNSt7__cxx1112basic_stringIcSt11char_traitsIcESaIcEEEblmdSaNS6_14adl_serializerES9_IhSaIhEEvEEPKc
FNDA:0,_ZN3MAS18get_stack_optionalINS_25MagneticFieldDcBiasFactorEEESt8optionalIT_ERKN8nlohmann16json_abi_v3_11_310basic_jsonISt3mapSt6vectorNSt7__cxx1112basic_stringIcSt11char_traitsIcESaIcEEEblmdSaNS6_14adl_serializerES9_IhSaIhEEvEEPKc
FNDA:0,_ZN3MAS18get_stack_optionalINS_25MagneticFluxDensityFactorEEESt8optionalIT_ERKN8nlohmann16json_abi_v3_11_310basic_jsonISt3mapSt6vectorNSt7__cxx1112basic_stringIcSt11char_traitsIcESaIcEEEblmdSaNS6_14adl_serializerES9_IhSaIhEEvEEPKc
FNDA:0,_ZN3MAS18get_stack_optionalINS_27BobbinFunctionalDescriptionEEESt8optionalIT_ERKN8nlohmann16json_abi_v3_11_310basic_jsonISt3mapSt6vectorNSt7__cxx1112basic_stringIcSt11char_traitsIcESaIcEEEblmdSaNS6_14adl_serializerES9_IhSaIhEEvEEPKc
FNDA:0,_ZN3MAS18get_stack_optionalINS_27CoreMaterialRecommendationsEEESt8optionalIT_ERKN8nlohmann16json_abi_v3_11_310basic_jsonISt3mapSt6vectorNSt7__cxx1112basic_stringIcSt11char_traitsIcESaIcEEEblmdSaNS6_14adl_serializerES9_IhSaIhEEvEEPKc
FNDA:0,_ZN3MAS18get_stack_optionalINS_28InsulationCoordinationOutputEEESt8optionalIT_ERKN8nlohmann16json_abi_v3_11_310basic_jsonISt3mapSt6vectorNSt7__cxx1112basic_stringIcSt11char_traitsIcESaIcEEEblmdSaNS6_14adl_serializerES9_IhSaIhEEvEEPKc
FNDA:0,_ZN3MAS18get_stack_optionalINS_28RoshenAdditionalCoefficientsEEESt8optionalIT_ERKN8nlohmann16json_abi_v3_11_310basic_jsonISt3mapSt6vectorNSt7__cxx1112basic_stringIcSt11char_traitsIcESaIcEEEblmdSaNS6_14adl_serializerES9_IhSaIhEEvEEPKc
FNDA:0,_ZN3MAS18get_stack_optionalINS_30CoreBobbinProcessedDescriptionEEESt8optionalIT_ERKN8nlohmann16json_abi_v3_11_310basic_jsonISt3mapSt6vectorNSt7__cxx1112basic_stringIcSt11char_traitsIcESaIcEEEblmdSaNS6_14adl_serializerES9_IhSaIhEEvEEPKc
FNDA:0,_ZN3MAS18get_stack_optionalINS_31WindingWindowCurrentFieldOutputEEESt8optionalIT_ERKN8nlohmann16json_abi_v3_11_310basic_jsonISt3mapSt6vectorNSt7__cxx1112basic_stringIcSt11char_traitsIcESaIcEEEblmdSaNS6_14adl_serializerES9_IhSaIhEEvEEPKc
FNDA:0,_ZN3MAS18get_stack_optionalINS_32InitialPermeabilitModifierMethodEEESt8optionalIT_ERKN8nlohmann16json_abi_v3_11_310basic_jsonISt3mapSt6vectorNSt7__cxx1112basic_stringIcSt11char_traitsIcESaIcEEEblmdSaNS6_14adl_serializerES9_IhSaIhEEvEEPKc
FNDA:0,_ZN3MAS18get_stack_optionalINS_35MagneticManufacturerRecommendationsEEESt8optionalIT_ERKN8nlohmann16json_abi_v3_11_310basic_jsonISt3mapSt6vectorNSt7__cxx1112basic_stringIcSt11char_traitsIcESaIcEEEblmdSaNS6_14adl_serializerES9_IhSaIhEEvEEPKc
FNDA:0,_ZN3MAS18get_stack_optionalINS_38WindingWindowCurrentDensityFieldOutputEEESt8optionalIT_ERKN8nlohmann16json_abi_v3_11_310basic_jsonISt3mapSt6vectorNSt7__cxx1112basic_stringIcSt11char_traitsIcESaIcEEEblmdSaNS6_14adl_serializerES9_IhSaIhEEvEEPKc
FNDA:0,_ZN3MAS18get_stack_optionalINS_3CtiEEESt8optionalIT_ERKN8nlohmann16json_abi_v3_11_310basic_jsonISt3mapSt6vectorNSt7__cxx1112basic_stringIcSt11char_traitsIcESaIcEEEblmdSaNS6_14adl_serializerES9_IhSaIhEEvEEPKc
FNDA:0,_ZN3MAS18get_stack_optionalINS_40WindingWindowMagneticStrengthFieldOutputEEESt8optionalIT_ERKN8nlohmann16json_abi_v3_11_310basic_jsonISt3mapSt6vectorNSt7__cxx1112basic_stringIcSt11char_traitsIcESaIcEEEblmdSaNS6_14adl_serializerES9_IhSaIhEEvEEPKc
FNDA:0,_ZN3MAS18get_stack_optionalINS_4BuckEEESt8optionalIT_ERKN8nlohmann16json_abi_v3_11_310basic_jsonISt3mapSt6vectorNSt7__cxx1112basic_stringIcSt11char_traitsIcESaIcEEEblmdSaNS6_14adl_serializerES9_IhSaIhEEvEEPKc
FNDA:0,_ZN3MAS18get_stack_optionalINS_5BoostEEESt8optionalIT_ERKN8nlohmann16json_abi_v3_11_310basic_jsonISt3mapSt6vectorNSt7__cxx1112basic_stringIcSt11char_traitsIcESaIcEEEblmdSaNS6_14adl_serializerES9_IhSaIhEEvEEPKc
FNDA:0,_ZN3MAS18get_stack_optionalINS_6MarketEEESt8optionalIT_ERKN8nlohmann16json_abi_v3_11_310basic_jsonISt3mapSt6vectorNSt7__cxx1112basic_stringIcSt11char_traitsIcESaIcEEEblmdSaNS6_14adl_serializerES9_IhSaIhEEvEEPKc
FNDA:0,_ZN3MAS18get_stack_optionalINS_6PinoutEEESt8optionalIT_ERKN8nlohmann16json_abi_v3_11_310basic_jsonISt3mapSt6vectorNSt7__cxx1112basic_stringIcSt11char_traitsIcESaIcEEEblmdSaNS6_14adl_serializerES9_IhSaIhEEvEEPKc
FNDA:0,_ZN3MAS18get_stack_optionalINS_6StatusEEESt8optionalIT_ERKN8nlohmann16json_abi_v3_11_310basic_jsonISt3mapSt6vectorNSt7__cxx1112basic_stringIcSt11char_traitsIcESaIcEEEblmdSaNS6_14adl_serializerES9_IhSaIhEEvEEPKc
FNDA:0,_ZN3MAS18get_stack_optionalINS_7CoatingEEESt8optionalIT_ERKN8nlohmann16json_abi_v3_11_310basic_jsonISt3mapSt6vectorNSt7__cxx1112basic_stringIcSt11char_traitsIcESaIcEEEblmdSaNS6_14adl_serializerES9_IhSaIhEEvEEPKc
FNDA:0,_ZN3MAS18get_stack_optionalINS_7CoolingEEESt8optionalIT_ERKN8nlohmann16json_abi_v3_11_310basic_jsonISt3mapSt6vectorNSt7__cxx1112basic_stringIcSt11char_traitsIcESaIcEEEblmdSaNS6_14adl_serializerES9_IhSaIhEEvEEPKc
FNDA:0,_ZN3MAS18get_stack_optionalINS_7FlybackEEESt8optionalIT_ERKN8nlohmann16json_abi_v3_11_310basic_jsonISt3mapSt6vectorNSt7__cxx1112basic_stringIcSt11char_traitsIcESaIcEEEblmdSaNS6_14adl_serializerES9_IhSaIhEEvEEPKc
FNDA:0,_ZN3MAS18get_stack_optionalINS_7ForwardEEESt8optionalIT_ERKN8nlohmann16json_abi_v3_11_310basic_jsonISt3mapSt6vectorNSt7__cxx1112basic_stringIcSt11char_traitsIcESaIcEEEblmdSaNS6_14adl_serializerES9_IhSaIhEEvEEPKc
FNDA:0,_ZN3MAS18get_stack_optionalINS_8PushPullEEESt8optionalIT_ERKN8nlohmann16json_abi_v3_11_310basic_jsonISt3mapSt6vectorNSt7__cxx1112basic_stringIcSt11char_traitsIcESaIcEEEblmdSaNS6_14adl_serializerES9_IhSaIhEEvEEPKc
FNDA:0,_ZN3MAS18get_stack_optionalINS_8WaveformEEESt8optionalIT_ERKN8nlohmann16json_abi_v3_11_310basic_jsonISt3mapSt6vectorNSt7__cxx1112basic_stringIcSt11char_traitsIcESaIcEEEblmdSaNS6_14adl_serializerES9_IhSaIhEEvEEPKc
FNDA:0,_ZN3MAS18get_stack_optionalINS_9DirectionEEESt8optionalIT_ERKN8nlohmann16json_abi_v3_11_310basic_jsonISt3mapSt6vectorNSt7__cxx1112basic_stringIcSt11char_traitsIcESaIcEEEblmdSaNS6_14adl_serializerES9_IhSaIhEEvEEPKc
FNDA:0,_ZN3MAS18get_stack_optionalINS_9HarmonicsEEESt8optionalIT_ERKN8nlohmann16json_abi_v3_11_310basic_jsonISt3mapSt6vectorNSt7__cxx1112basic_stringIcSt11char_traitsIcESaIcEEEblmdSaNS6_14adl_serializerES9_IhSaIhEEvEEPKc
FNDA:0,_ZN3MAS18get_stack_optionalINS_9ProcessedEEESt8optionalIT_ERKN8nlohmann16json_abi_v3_11_310basic_jsonISt3mapSt6vectorNSt7__cxx1112basic_stringIcSt11char_traitsIcESaIcEEEblmdSaNS6_14adl_serializerES9_IhSaIhEEvEEPKc
FNDA:0,_ZN3MAS18get_stack_optionalINSt7__cxx1112basic_stringIcSt11char_traitsIcESaIcEEEEESt8optionalIT_ERKN8nlohmann16json_abi_v3_11_310basic_jsonISt3mapSt6vectorS6_blmdSaNSB_14adl_serializerESE_IhSaIhEEvEEPKc
FNDA:0,_ZN3MAS18get_stack_optionalISt3mapINSt7__cxx1112basic_stringIcSt11char_traitsIcESaIcEEENS_26InitialPermeabilitModifierESt4lessIS7_ESaISt4pairIKS7_S8_EEEEESt8optionalIT_ERKN8nlohmann16json_abi_v3_11_310basic_jsonIS1_St6vectorS7_blmdSaNSK_14adl_serializerESM_IhSaIhEEvEEPKc
FNDA:0,_ZN3MAS18get_stack_optionalISt3mapINSt7__cxx1112basic_stringIcSt11char_traitsIcESaIcEEES1_IS7_NS_23ScalarMatrixAtFrequencyESt4lessIS7_ESaISt4pairIKS7_S8_EEESA_SaISB_ISC_SF_EEEEESt8optionalIT_ERKN8nlohmann16json_abi_v3_11_310basic_jsonIS1_St6vectorS7_blmdSaNSN_14adl_serializerESP_IhSaIhEEvEEPKc
FNDA:0,_ZN3MAS18get_stack_optionalISt3mapINSt7__cxx1112basic_stringIcSt11char_traitsIcESaIcEEES1_IS7_NS_28TripoleCapacitancePerWindingESt4lessIS7_ESaISt4pairIKS7_S8_EEESA_SaISB_ISC_SF_EEEEESt8optionalIT_ERKN8nlohmann16json_abi_v3_11_310basic_jsonIS1_St6vectorS7_blmdSaNSN_14adl_serializerESP_IhSaIhEEvEEPKc
FNDA:0,_ZN3MAS18get_stack_optionalISt3mapINSt7__cxx1112basic_stringIcSt11char_traitsIcESaIcEEES1_IS7_NS_29SixCapacitorNetworkPerWindingESt4lessIS7_ESaISt4pairIKS7_S8_EEESA_SaISB_ISC_SF_EEEEESt8optionalIT_ERKN8nlohmann16json_abi_v3_11_310basic_jsonIS1_St6vectorS7_blmdSaNSN_14adl_serializerESP_IhSaIhEEvEEPKc
FNDA:0,_ZN3MAS18get_stack_optionalISt3mapINSt7__cxx1112basic_stringIcSt11char_traitsIcESaIcEEES1_IS7_dSt4lessIS7_ESaISt4pairIKS7_dEEES9_SaISA_ISB_SE_EEEEESt8optionalIT_ERKN8nlohmann16json_abi_v3_11_310basic_jsonIS1_St6vectorS7_blmdSaNSM_14adl_serializerESO_IhSaIhEEvEEPKc
FNDA:0,_ZN3MAS18get_stack_optionalISt3mapINSt7__cxx1112basic_stringIcSt11char_traitsIcESaIcEEESt6vectorISt7variantIJS8_INS_15MassLossesPointESaISA_EENS_28MagnetecCoreLossesMethodDataEEESaISE_EESt4lessIS7_ESaISt4pairIKS7_SG_EEEEESt8optionalIT_ERKN8nlohmann16json_abi_v3_11_310basic_jsonIS1_S8_S7_blmdSaNSS_14adl_serializerES8_IhSaIhEEvEEPKc
FNDA:0,_ZN3MAS18get_stack_optionalISt3mapINSt7__cxx1112basic_stringIcSt11char_traitsIcESaIcEEESt7variantIJNS_22DimensionWithToleranceEdEESt4lessIS7_ESaISt4pairIKS7_SA_EEEEESt8optionalIT_ERKN8nlohmann16json_abi_v3_11_310basic_jsonIS1_St6vectorS7_blmdSaNSM_14adl_serializerESO_IhSaIhEEvEEPKc
FNDA:0,_ZN3MAS18get_stack_optionalISt6vectorINS_13IsolationSideESaIS2_EEEESt8optionalIT_ERKN8nlohmann16json_abi_v3_11_310basic_jsonISt3mapS1_NSt7__cxx1112basic_stringIcSt11char_traitsIcESaIcEEEblmdSaNS9_14adl_serializerES1_IhSaIhEEvEEPKc
FNDA:0,_ZN3MAS18get_stack_optionalISt6vectorINS_14BhCycleElementESaIS2_EEEESt8optionalIT_ERKN8nlohmann16json_abi_v3_11_310basic_jsonISt3mapS1_NSt7__cxx1112basic_stringIcSt11char_traitsIcESaIcEEEblmdSaNS9_14adl_serializerES1_IhSaIhEEvEEPKc
FNDA:0,_ZN3MAS18get_stack_optionalISt6vectorINS_14ConnectionTypeESaIS2_EEEESt8optionalIT_ERKN8nlohmann16json_abi_v3_11_310basic_jsonISt3mapS1_NSt7__cxx1112basic_stringIcSt11char_traitsIcESaIcEEEblmdSaNS9_14adl_serializerES1_IhSaIhEEvEEPKc
FNDA:0,_ZN3MAS18get_stack_optionalISt6vectorINS_15DistributorInfoESaIS2_EEEESt8optionalIT_ERKN8nlohmann16json_abi_v3_11_310basic_jsonISt3mapS1_NSt7__cxx1112basic_stringIcSt11char_traitsIcESaIcEEEblmdSaNS9_14adl_serializerES1_IhSaIhEEvEEPKc
FNDA:0,_ZN3MAS18get_stack_optionalISt6vectorINS_15LossFactorPointESaIS2_EEEESt8optionalIT_ERKN8nlohmann16json_abi_v3_11_310basic_jsonISt3mapS1_NSt7__cxx1112basic_stringIcSt11char_traitsIcESaIcEEEblmdSaNS9_14adl_serializerES1_IhSaIhEEvEEPKc
FNDA:0,_ZN3MAS18get_stack_optionalISt6vectorINS_16ResistivityPointESaIS2_EEEESt8optionalIT_ERKN8nlohmann16json_abi_v3_11_310basic_jsonISt3mapS1_NSt7__cxx1112basic_stringIcSt11char_traitsIcESaIcEEEblmdSaNS9_14adl_serializerES1_IhSaIhEEvEEPKc
FNDA:0,_ZN3MAS18get_stack_optionalISt6vectorINS_17ConnectionElementESaIS2_EEEESt8optionalIT_ERKN8nlohmann16json_abi_v3_11_310basic_jsonISt3mapS1_NSt7__cxx1112basic_stringIcSt11char_traitsIcESaIcEEEblmdSaNS9_14adl_serializerES1_IhSaIhEEvEEPKc
FNDA:0,_ZN3MAS18get_stack_optionalISt6vectorINS_17DielectricVoltageESaIS2_EEEESt8optionalIT_ERKN8nlohmann16json_abi_v3_11_310basic_jsonISt3mapS1_NSt7__cxx1112basic_stringIcSt11char_traitsIcESaIcEEEblmdSaNS9_14adl_serializerES1_IhSaIhEEvEEPKc
FNDA:0,_ZN3MAS18get_stack_optionalISt6vectorINS_19InsulationStandardsESaIS2_EEEESt8optionalIT_ERKN8nlohmann16json_abi_v3_11_310basic_jsonISt3mapS1_NSt7__cxx1112basic_stringIcSt11char_traitsIcESaIcEEEblmdSaNS9_14adl_serializerES1_IhSaIhEEvEEPKc
FNDA:0,_ZN3MAS18get_stack_optionalISt6vectorINS_20ImpedanceAtFrequencyESaIS2_EEEESt8optionalIT_ERKN8nlohmann16json_abi_v3_11_310basic_jsonISt3mapS1_NSt7__cxx1112basic_stringIcSt11char_traitsIcESaIcEEEblmdSaNS9_14adl_serializerES1_IhSaIhEEvEEPKc
FNDA:0,_ZN3MAS18get_stack_optionalISt6vectorINS_20PinWindingConnectionESaIS2_EEEESt8optionalIT_ERKN8nlohmann16json_abi_v3_11_310basic_jsonISt3mapS1_NSt7__cxx1112basic_stringIcSt11char_traitsIcESaIcEEEblmdSaNS9_14adl_serializerES1_IhSaIhEEvEEPKc
FNDA:0,_ZN3MAS18get_stack_optionalISt6vectorINS_21VolumetricLossesPointESaIS2_EEEESt8optionalIT_ERKN8nlohmann16json_abi_v3_11_310basic_jsonISt3mapS1_NSt7__cxx1112basic_stringIcSt11char_traitsIcESaIcEEEblmdSaNS9_14adl_serializerES1_IhSaIhEEvEEPKc
FNDA:0,_ZN3MAS18get_stack_optionalISt6vectorINS_22AirGapReluctanceOutputESaIS2_EEEESt8optionalIT_ERKN8nlohmann16json_abi_v3_11_310basic_jsonISt3mapS1_NSt7__cxx1112basic_stringIcSt11char_traitsIcESaIcEEEblmdSaNS9_14adl_serializerES1_IhSaIhEEvEEPKc
FNDA:0,_ZN3MAS18get_stack_optionalISt6vectorINS_22DimensionWithToleranceESaIS2_EEEESt8optionalIT_ERKN8nlohmann16json_abi_v3_11_310basic_jsonISt3mapS1_NSt7__cxx1112basic_stringIcSt11char_traitsIcESaIcEEEblmdSaNS9_14adl_serializerES1_IhSaIhEEvEEPKc
FNDA:0,_ZN3MAS18get_stack_optionalISt6vectorINS_22StrayCapacitanceOutputESaIS2_EEEESt8optionalIT_ERKN8nlohmann16json_abi_v3_11_310basic_jsonISt3mapS1_NSt7__cxx1112basic_stringIcSt11char_traitsIcESaIcEEEblmdSaNS9_14adl_serializerES1_IhSaIhEEvEEPKc
FNDA:0,_ZN3MAS18get_stack_optionalISt6vectorINS_23ScalarMatrixAtFrequencyESaIS2_EEEESt8optionalIT_ERKN8nlohmann16json_abi_v3_11_310basic_jsonISt3mapS1_NSt7__cxx1112basic_stringIcSt11char_traitsIcESaIcEEEblmdSaNS9_14adl_serializerES1_IhSaIhEEvEEPKc
FNDA:0,_ZN3MAS18get_stack_optionalISt6vectorINS_23WindingLossesPerElementESaIS2_EEEESt8optionalIT_ERKN8nlohmann16json_abi_v3_11_310basic_jsonISt3mapS1_NSt7__cxx1112basic_stringIcSt11char_traitsIcESaIcEEEblmdSaNS9_14adl_serializerES1_IhSaIhEEvEEPKc
FNDA:0,_ZN3MAS18get_stack_optionalISt6vectorINS_24ComplexMatrixAtFrequencyESaIS2_EEEESt8optionalIT_ERKN8nlohmann16json_abi_v3_11_310basic_jsonISt3mapS1_NSt7__cxx1112basic_stringIcSt11char_traitsIcESaIcEEEblmdSaNS9_14adl_serializerES1_IhSaIhEEvEEPKc
FNDA:0,_ZN3MAS18get_stack_optionalISt6vectorINS_26ThermalConductivityElementESaIS2_EEEESt8optionalIT_ERKN8nlohmann16json_abi_v3_11_310basic_jsonISt3mapS1_NSt7__cxx1112basic_stringIcSt11char_traitsIcESaIcEEEblmdSaNS9_14adl_serializerES1_IhSaIhEEvEEPKc
FNDA:0,_ZN3MAS18get_stack_optionalISt6vectorINS_33CoreGeometricalDescriptionElementESaIS2_EEEESt8optionalIT_ERKN8nlohmann16json_abi_v3_11_310basic_jsonISt3mapS1_NSt7__cxx1112basic_stringIcSt11char_traitsIcESaIcEEEblmdSaNS9_14adl_serializerES1_IhSaIhEEvEEPKc
FNDA:0,_ZN3MAS18get_stack_optionalISt6vectorINS_35SteinmetzCoreLossesMethodRangeDatumESaIS2_EEEESt8optionalIT_ERKN8nlohmann16json_abi_v3_11_310basic_jsonISt3mapS1_NSt7__cxx1112basic_stringIcSt11char_traitsIcESaIcEEEblmdSaNS9_14adl_serializerES1_IhSaIhEEvEEPKc
FNDA:0,_ZN3MAS18get_stack_optionalISt6vectorINS_3PinESaIS2_EEEESt8optionalIT_ERKN8nlohmann16json_abi_v3_11_310basic_jsonISt3mapS1_NSt7__cxx1112basic_stringIcSt11char_traitsIcESaIcEEEblmdSaNS9_14adl_serializerES1_IhSaIhEEvEEPKc
FNDA:0,_ZN3MAS18get_stack_optionalISt6vectorINS_4TurnESaIS2_EEEESt8optionalIT_ERKN8nlohmann16json_abi_v3_11_310basic_jsonISt3mapS1_NSt7__cxx1112basic_stringIcSt11char_traitsIcESaIcEEEblmdSaNS9_14adl_serializerES1_IhSaIhEEvEEPKc
FNDA:0,_ZN3MAS18get_stack_optionalISt6vectorINS_5GroupESaIS2_EEEESt8optionalIT_ERKN8nlohmann16json_abi_v3_11_310basic_jsonISt3mapS1_NSt7__cxx1112basic_stringIcSt11char_traitsIcESaIcEEEblmdSaNS9_14adl_serializerES1_IhSaIhEEvEEPKc
FNDA:0,_ZN3MAS18get_stack_optionalISt6vectorINS_5LayerESaIS2_EEEESt8optionalIT_ERKN8nlohmann16json_abi_v3_11_310basic_jsonISt3mapS1_NSt7__cxx1112basic_stringIcSt11char_traitsIcESaIcEEEblmdSaNS9_14adl_serializerES1_IhSaIhEEvEEPKc
FNDA:0,_ZN3MAS18get_stack_optionalISt6vectorINS_7SectionESaIS2_EEEESt8optionalIT_ERKN8nlohmann16json_abi_v3_11_310basic_jsonISt3mapS1_NSt7__cxx1112basic_stringIcSt11char_traitsIcESaIcEEEblmdSaNS9_14adl_serializerES1_IhSaIhEEvEEPKc
FNDA:0,_ZN3MAS18get_stack_optionalISt6vectorINS_9MachiningESaIS2_EEEESt8optionalIT_ERKN8nlohmann16json_abi_v3_11_310basic_jsonISt3mapS1_NSt7__cxx1112basic_stringIcSt11char_traitsIcESaIcEEEblmdSaNS9_14adl_serializerES1_IhSaIhEEvEEPKc
FNDA:0,_ZN3MAS18get_stack_optionalISt6vectorINSt7__cxx1112basic_stringIcSt11char_traitsIcESaIcEEESaIS7_EEEESt8optionalIT_ERKN8nlohmann16json_abi_v3_11_310basic_jsonISt3mapS1_S7_blmdSaNSE_14adl_serializerES1_IhSaIhEEvEEPKc
FNDA:0,_ZN3MAS18get_stack_optionalISt6vectorIS1_IdSaIdEESaIS3_EEEESt8optionalIT_ERKN8nlohmann16json_abi_v3_11_310basic_jsonISt3mapS1_NSt7__cxx1112basic_stringIcSt11char_traitsIcESaIcEEEblmdSaNSA_14adl_serializerES1_IhSaIhEEvEEPKc
FNDA:0,_ZN3MAS18get_stack_optionalISt6vectorIdSaIdEEEESt8optionalIT_ERKN8nlohmann16json_abi_v3_11_310basic_jsonISt3mapS1_NSt7__cxx1112basic_stringIcSt11char_traitsIcESaIcEEEblmdSaNS8_14adl_serializerES1_IhSaIhEEvEEPKc
FNDA:0,_ZN3MAS18get_stack_optionalISt6vectorIlSaIlEEEESt8optionalIT_ERKN8nlohmann16json_abi_v3_11_310basic_jsonISt3mapS1_NSt7__cxx1112basic_stringIcSt11char_traitsIcESaIcEEEblmdSaNS8_14adl_serializerES1_IhSaIhEEvEEPKc
FNDA:0,_ZN3MAS18get_stack_optionalISt7variantIJNS_12CoreMaterialENSt7__cxx1112basic_stringIcSt11char_traitsIcESaIcEEEEEEESt8optionalIT_ERKN8nlohmann16json_abi_v3_11_310basic_jsonISt3mapSt6vectorS8_blmdSaNSE_14adl_serializerESH_IhSaIhEEvEEPKc
FNDA:0,_ZN3MAS18get_stack_optionalISt7variantIJNS_12WireMaterialENSt7__cxx1112basic_stringIcSt11char_traitsIcESaIcEEEEEEESt8optionalIT_ERKN8nlohmann16json_abi_v3_11_310basic_jsonISt3mapSt6vectorS8_blmdSaNSE_14adl_serializerESH_IhSaIhEEvEEPKc
FNDA:0,_ZN3MAS18get_stack_optionalISt7variantIJNS_18InsulationMaterialENSt7__cxx1112basic_stringIcSt11char_traitsIcESaIcEEEEEEESt8optionalIT_ERKN8nlohmann16json_abi_v3_11_310basic_jsonISt3mapSt6vectorS8_blmdSaNSE_14adl_serializerESH_IhSaIhEEvEEPKc
FNDA:0,_ZN3MAS18get_stack_optionalISt7variantIJNS_21InsulationWireCoatingENSt7__cxx1112basic_stringIcSt11char_traitsIcESaIcEEEEEEESt8optionalIT_ERKN8nlohmann16json_abi_v3_11_310basic_jsonISt3mapSt6vectorS8_blmdSaNSE_14adl_serializerESH_IhSaIhEEvEEPKc
FNDA:0,_ZN3MAS18get_stack_optionalISt7variantIJNS_9CoreShapeENSt7__cxx1112basic_stringIcSt11char_traitsIcESaIcEEEEEEESt8optionalIT_ERKN8nlohmann16json_abi_v3_11_310basic_jsonISt3mapSt6vectorS8_blmdSaNSE_14adl_serializerESH_IhSaIhEEvEEPKc
FNDA:0,_ZN3MAS18get_stack_optionalISt7variantIJNS_9WireRoundENSt7__cxx1112basic_stringIcSt11char_traitsIcESaIcEEEEEEESt8optionalIT_ERKN8nlohmann16json_abi_v3_11_310basic_jsonISt3mapSt6vectorS8_blmdSaNSE_14adl_serializerESH_IhSaIhEEvEEPKc
FNDA:0,_ZN3MAS18get_stack_optionalISt7variantIJSt6vectorINS_17PermeabilityPointESaIS3_EES3_EEEESt8optionalIT_ERKN8nlohmann16json_abi_v3_11_310basic_jsonISt3mapS2_NSt7__cxx1112basic_stringIcSt11char_traitsIcESaIcEEEblmdSaNSB_14adl_serializerES2_IhSaIhEEvEEPKc
FNDA:0,_ZN3MAS18get_stack_optionalISt7variantIJSt6vectorIdSaIdEENS_10MarginInfoEEEEESt8optionalIT_ERKN8nlohmann16json_abi_v3_11_310basic_jsonISt3mapS2_NSt7__cxx1112basic_stringIcSt11char_traitsIcESaIcEEEblmdSaNSB_14adl_serializerES2_IhSaIhEEvEEPKc
FNDA:0,_ZN3MAS18get_stack_optionalIbEESt8optionalIT_ERKN8nlohmann16json_abi_v3_11_310basic_jsonISt3mapSt6vectorNSt7__cxx1112basic_stringIcSt11char_traitsIcESaIcEEEblmdSaNS5_14adl_serializerES8_IhSaIhEEvEEPKc
FNDA:0,_ZN3MAS18get_stack_optionalIdEESt8optionalIT_ERKN8nlohmann16json_abi_v3_11_310basic_jsonISt3mapSt6vectorNSt7__cxx1112basic_stringIcSt11char_traitsIcESaIcEEEblmdSaNS5_14adl_serializerES8_IhSaIhEEvEEPKc
FNDA:0,_ZN3MAS18get_stack_optionalIlEESt8optionalIT_ERKN8nlohmann16json_abi_v3_11_310basic_jsonISt3mapSt6vectorNSt7__cxx1112basic_stringIcSt11char_traitsIcESaIcEEEblmdSaNS5_14adl_serializerES8_IhSaIhEEvEEPKc
FNDA:0,_ZN3MAS18DesignRequirementsC2Ev
FNDA:0,_ZN3MAS18DesignRequirementsD0Ev
FNDA:1,_ZN3MAS18DesignRequirementsD2Ev
FNDA:0,_ZNK3MAS18DesignRequirements15get_applicationEv
FNDA:0,_ZN3MAS18DesignRequirements15set_applicationESt8optionalINS_11ApplicationEE
FNDA:0,_ZNK3MAS18DesignRequirements14get_insulationEv
FNDA:0,_ZN3MAS18DesignRequirements14set_insulationESt8optionalINS_22InsulationRequirementsEE
FNDA:0,_ZNK3MAS18DesignRequirements19get_isolation_sidesEv
FNDA:0,_ZN3MAS18DesignRequirements19set_isolation_sidesESt8optionalISt6vectorINS_13IsolationSideESaIS3_EEE
FNDA:0,_ZNK3MAS18DesignRequirements22get_leakage_inductanceEv
FNDA:0,_ZN3MAS18DesignRequirements22set_leakage_inductanceESt8optionalISt6vectorINS_22DimensionWithToleranceESaIS3_EEE
FNDA:0,_ZNK3MAS18DesignRequirements26get_magnetizing_inductanceEv
FNDA:0,_ZN3MAS18DesignRequirements34get_mutable_magnetizing_inductanceEv
FNDA:0,_ZN3MAS18DesignRequirements26set_magnetizing_inductanceERKNS_22DimensionWithToleranceE
FNDA:0,_ZNK3MAS18DesignRequirements10get_marketEv
FNDA:0,_ZN3MAS18DesignRequirements10set_marketESt8optionalINS_6MarketEE
FNDA:0,_ZNK3MAS18DesignRequirements22get_maximum_dimensionsEv
FNDA:0,_ZN3MAS18DesignRequirements22set_maximum_dimensionsESt8optionalINS_17MaximumDimensionsEE
FNDA:0,_ZNK3MAS18DesignRequirements18get_maximum_weightEv
FNDA:0,_ZN3MAS18DesignRequirements18set_maximum_weightESt8optionalIdE
FNDA:0,_ZNK3MAS18DesignRequirements21get_minimum_impedanceEv
FNDA:0,_ZN3MAS18DesignRequirements21set_minimum_impedanceESt8optionalISt6vectorINS_20ImpedanceAtFrequencyESaIS3_EEE
FNDA:0,_ZNK3MAS18DesignRequirements8get_nameB5cxx11Ev
FNDA:0,_ZN3MAS18DesignRequirements8set_nameESt8optionalINSt7__cxx1112basic_stringIcSt11char_traitsIcESaIcEEEE
FNDA:0,_ZNK3MAS18DesignRequirements25get_operating_temperatureEv
FNDA:0,_ZN3MAS18DesignRequirements25set_operating_temperatureESt8optionalINS_22DimensionWithToleranceEE
FNDA:0,_ZNK3MAS18DesignRequirements21get_stray_capacitanceEv
FNDA:0,_ZN3MAS18DesignRequirements21set_stray_capacitanceESt8optionalISt6vectorINS_22DimensionWithToleranceESaIS3_EEE
FNDA:0,_ZNK3MAS18DesignRequirements19get_sub_applicationEv
FNDA:0,_ZN3MAS18DesignRequirements19set_sub_applicationESt8optionalINS_14SubApplicationEE
FNDA:0,_ZNK3MAS18DesignRequirements17get_terminal_typeEv
FNDA:0,_ZN3MAS18DesignRequirements17set_terminal_typeESt8optionalISt6vectorINS_14ConnectionTypeESaIS3_EEE
FNDA:0,_ZNK3MAS18DesignRequirements12get_topologyEv
FNDA:0,_ZN3MAS18DesignRequirements12set_topologyESt8optionalINS_10TopologiesEE
FNDA:0,_ZNK3MAS18DesignRequirements16get_turns_ratiosEv
FNDA:0,_ZN3MAS18DesignRequirements24get_mutable_turns_ratiosEv
FNDA:0,_ZN3MAS18DesignRequirements16set_turns_ratiosERKSt6vectorINS_22DimensionWithToleranceESaIS2_EE
FNDA:0,_ZNK3MAS18DesignRequirements21get_wiring_technologyEv
FNDA:0,_ZN3MAS18DesignRequirements21set_wiring_technologyESt8optionalINS_16WiringTechnologyEE
FNDA:0,_ZN3MAS7CoolingC2Ev
FNDA:0,_ZN3MAS7CoolingD0Ev
FNDA:0,_ZN3MAS7CoolingD2Ev
FNDA:0,_ZNK3MAS7Cooling9get_fluidB5cxx11Ev
FNDA:0,_ZN3MAS7Cooling9set_fluidESt8optionalINSt7__cxx1112basic_stringIcSt11char_traitsIcESaIcEEEE
FNDA:0,_ZNK3MAS7Cooling15get_temperatureEv
FNDA:0,_ZN3MAS7Cooling15set_temperatureESt8optionalIdE
FNDA:0,_ZNK3MAS7Cooling17get_flow_diameterEv
FNDA:0,_ZN3MAS7Cooling17set_flow_diameterESt8optionalIdE
FNDA:0,_ZNK3MAS7Cooling12get_velocityEv
FNDA:0,_ZN3MAS7Cooling12set_velocityESt8optionalISt6vectorIdSaIdEEE
FNDA:0,_ZNK3MAS7Cooling14get_dimensionsEv
FNDA:0,_ZN3MAS7Cooling14set_dimensionsESt8optionalISt6vectorIdSaIdEEE
FNDA:0,_ZNK3MAS7Cooling32get_interface_thermal_resistanceEv
FNDA:0,_ZN3MAS7Cooling32set_interface_thermal_resistanceESt8optionalIdE
FNDA:0,_ZNK3MAS7Cooling23get_interface_thicknessEv
FNDA:0,_ZN3MAS7Cooling23set_interface_thicknessESt8optionalIdE
FNDA:0,_ZNK3MAS7Cooling22get_thermal_resistanceEv
FNDA:0,_ZN3MAS7Cooling22set_thermal_resistanceESt8optionalIdE
FNDA:0,_ZNK3MAS7Cooling23get_maximum_temperatureEv
FNDA:0,_ZN3MAS7Cooling23set_maximum_temperatureESt8optionalIdE
FNDA:0,_ZN3MAS19OperatingConditionsC2Ev
FNDA:0,_ZN3MAS19OperatingConditionsD0Ev
FNDA:0,_ZN3MAS19OperatingConditionsD2Ev
FNDA:0,_ZNK3MAS19OperatingConditions29get_ambient_relative_humidityEv
FNDA:0,_ZN3MAS19OperatingConditions29set_ambient_relative_humidityESt8optionalIdE
FNDA:0,_ZNK3MAS19OperatingConditions23get_ambient_temperatureEv
FNDA:0,_ZN3MAS19OperatingConditions23set_ambient_temperatureERKd
FNDA:0,_ZNK3MAS19OperatingConditions11get_coolingEv
FNDA:0,_ZN3MAS19OperatingConditions11set_coolingESt8optionalINS_7CoolingEE
FNDA:0,_ZNK3MAS19OperatingConditions8get_nameB5cxx11Ev
FNDA:0,_ZN3MAS19OperatingConditions8set_nameESt8optionalINSt7__cxx1112basic_stringIcSt11char_traitsIcESaIcEEEE
FNDA:0,_ZN3MAS9HarmonicsC2Ev
FNDA:0,_ZN3MAS9HarmonicsD0Ev
FNDA:0,_ZN3MAS9HarmonicsD2Ev
FNDA:0,_ZNK3MAS9Harmonics14get_amplitudesEv
FNDA:0,_ZN3MAS9Harmonics22get_mutable_amplitudesEv
FNDA:0,_ZN3MAS9Harmonics14set_amplitudesERKSt6vectorIdSaIdEE
FNDA:0,_ZNK3MAS9Harmonics15get_frequenciesEv
FNDA:0,_ZN3MAS9Harmonics23get_mutable_frequenciesEv
FNDA:0,_ZN3MAS9Harmonics15set_frequenciesERKSt6vectorIdSaIdEE
FNDA:0,_ZN3MAS9ProcessedC2Ev
FNDA:0,_ZN3MAS9ProcessedD0Ev
FNDA:0,_ZN3MAS9ProcessedD2Ev
FNDA:0,_ZNK3MAS9Processed26get_ac_effective_frequencyEv
FNDA:0,_ZN3MAS9Processed26set_ac_effective_frequencyESt8optionalIdE
FNDA:0,_ZNK3MAS9Processed11get_averageEv
FNDA:0,_ZN3MAS9Processed11set_averageESt8optionalIdE
FNDA:0,_ZNK3MAS9Processed13get_dead_timeEv
FNDA:0,_ZN3MAS9Processed13set_dead_timeESt8optionalIdE
FNDA:0,_ZNK3MAS9Processed14get_duty_cycleEv
FNDA:0,_ZN3MAS9Processed14set_duty_cycleESt8optionalIdE
FNDA:0,_ZNK3MAS9Processed23get_effective_frequencyEv
FNDA:0,_ZN3MAS9Processed23set_effective_frequencyESt8optionalIdE
FNDA:0,_ZNK3MAS9Processed9get_labelEv
FNDA:0,_ZN3MAS9Processed9set_labelERKNS_13WaveformLabelE
FNDA:0,_ZNK3MAS9Processed17get_negative_peakEv
FNDA:0,_ZN3MAS9Processed17set_negative_peakESt8optionalIdE
FNDA:0,_ZNK3MAS9Processed10get_offsetEv
FNDA:0,_ZN3MAS9Processed18get_mutable_offsetEv
FNDA:0,_ZN3MAS9Processed10set_offsetERKd
FNDA:0,_ZNK3MAS9Processed8get_peakEv
FNDA:0,_ZN3MAS9Processed8set_peakESt8optionalIdE
FNDA:0,_ZNK3MAS9Processed16get_peak_to_peakEv
FNDA:0,_ZN3MAS9Processed16set_peak_to_peakESt8optionalIdE
FNDA:0,_ZNK3MAS9Processed9get_phaseEv
FNDA:0,_ZN3MAS9Processed9set_phaseESt8optionalIdE
FNDA:0,_ZNK3MAS9Processed17get_positive_peakEv
FNDA:0,_ZN3MAS9Processed17set_positive_peakESt8optionalIdE
FNDA:0,_ZNK3MAS9Processed7get_rmsEv
FNDA:0,_ZN3MAS9Processed7set_rmsESt8optionalIdE
FNDA:0,_ZNK3MAS9Processed7get_thdEv
FNDA:0,_ZN3MAS9Processed7set_thdESt8optionalIdE
FNDA:0,_ZN3MAS8WaveformC2Ev
FNDA:0,_ZN3MAS8WaveformD0Ev
FNDA:0,_ZN3MAS8WaveformD2Ev
FNDA:0,_ZNK3MAS8Waveform8get_dataEv
FNDA:0,_ZN3MAS8Waveform16get_mutable_dataEv
FNDA:0,_ZN3MAS8Waveform8set_dataERKSt6vectorIdSaIdEE
FNDA:0,_ZNK3MAS8Waveform18get_number_periodsEv
FNDA:0,_ZN3MAS8Waveform18set_number_periodsESt8optionalIlE
FNDA:0,_ZNK3MAS8Waveform19get_ancillary_labelEv
FNDA:0,_ZN3MAS8Waveform19set_ancillary_labelESt8optionalINS_13WaveformLabelEE
FNDA:0,_ZNK3MAS8Waveform8get_timeEv
FNDA:0,_ZN3MAS8Waveform8set_timeESt8optionalISt6vectorIdSaIdEEE
FNDA:0,_ZN3MAS16SignalDescriptorC2Ev
FNDA:0,_ZN3MAS16SignalDescriptorD0Ev
FNDA:1,_ZN3MAS16SignalDescriptorD2Ev
FNDA:0,_ZNK3MAS16SignalDescriptor13get_harmonicsEv
FNDA:0,_ZN3MAS16SignalDescriptor13set_harmonicsESt8optionalINS_9HarmonicsEE
FNDA:0,_ZNK3MAS16SignalDescriptor13get_processedEv
FNDA:0,_ZN3MAS16SignalDescriptor13set_processedESt8optionalINS_9ProcessedEE
FNDA:0,_ZNK3MAS16SignalDescriptor12get_waveformEv
FNDA:0,_ZN3MAS16SignalDescriptor12set_waveformESt8optionalINS_8WaveformEE
FNDA:0,_ZN3MAS24OperatingPointExcitationC2Ev
FNDA:0,_ZN3MAS24OperatingPointExcitationD0Ev
FNDA:0,_ZN3MAS24OperatingPointExcitationD2Ev
FNDA:0,_ZNK3MAS24OperatingPointExcitation11get_currentEv
FNDA:0,_ZN3MAS24OperatingPointExcitation11set_currentESt8optionalINS_16SignalDescriptorEE
FNDA:0,_ZNK3MAS24OperatingPointExcitation13get_frequencyEv
FNDA:0,_ZN3MAS24OperatingPointExcitation13set_frequencyERKd
FNDA:0,_ZNK3MAS24OperatingPointExcitation27get_magnetic_field_strengthEv
FNDA:0,_ZN3MAS24OperatingPointExcitation27set_magnetic_field_strengthESt8optionalINS_16SignalDescriptorEE
FNDA:0,_ZNK3MAS24OperatingPointExcitation25get_magnetic_flux_densityEv
FNDA:0,_ZN3MAS24OperatingPointExcitation25set_magnetic_flux_densityESt8optionalINS_16SignalDescriptorEE
FNDA:0,_ZNK3MAS24OperatingPointExcitation23get_magnetizing_currentEv
FNDA:0,_ZN3MAS24OperatingPointExcitation23set_magnetizing_currentESt8optionalINS_16SignalDescriptorEE
FNDA:0,_ZNK3MAS24OperatingPointExcitation8get_nameB5cxx11Ev
FNDA:0,_ZN3MAS24OperatingPointExcitation8set_nameESt8optionalINSt7__cxx1112basic_stringIcSt11char_traitsIcESaIcEEEE
FNDA:0,_ZNK3MAS24OperatingPointExcitation11get_voltageEv
FNDA:0,_ZN3MAS24OperatingPointExcitation11set_voltageESt8optionalINS_16SignalDescriptorEE
FNDA:0,_ZN3MAS14OperatingPointC2Ev
FNDA:0,_ZN3MAS14OperatingPointD0Ev
FNDA:0,_ZN3MAS14OperatingPointD2Ev
FNDA:0,_ZNK3MAS14OperatingPoint14get_conditionsEv
FNDA:0,_ZN3MAS14OperatingPoint22get_mutable_conditionsEv
FNDA:0,_ZN3MAS14OperatingPoint14set_conditionsERKNS_19OperatingConditionsE
FNDA:0,_ZNK3MAS14OperatingPoint27get_excitations_per_windingEv
FNDA:0,_ZN3MAS14OperatingPoint35get_mutable_excitations_per_windingEv
FNDA:0,_ZN3MAS14OperatingPoint27set_excitations_per_windingERKSt6vectorINS_24OperatingPointExcitationESaIS2_EE
FNDA:0,_ZNK3MAS14OperatingPoint8get_nameB5cxx11Ev
FNDA:0,_ZN3MAS14OperatingPoint8set_nameESt8optionalINSt7__cxx1112basic_stringIcSt11char_traitsIcESaIcEEEE
FNDA:0,_ZN3MAS6InputsC2Ev
FNDA:0,_ZN3MAS6InputsD0Ev
FNDA:1,_ZN3MAS6InputsD2Ev
FNDA:0,_ZN3MAS6Inputs25set_converter_informationESt8optionalINS_20ConverterInformationEE
FNDA:0,_ZNK3MAS6Inputs23get_design_requirementsEv
FNDA:0,_ZN3MAS6Inputs31get_mutable_design_requirementsEv
FNDA:0,_ZN3MAS6Inputs23set_design_requirementsERKNS_18DesignRequirementsE
FNDA:0,_ZNK3MAS6Inputs20get_operating_pointsEv
FNDA:0,_ZN3MAS6Inputs28get_mutable_operating_pointsEv
FNDA:0,_ZN3MAS6Inputs20set_operating_pointsERKSt6vectorINS_14OperatingPointESaIS2_EE
FNDA:0,_ZN3MAS15DistributorInfoC2Ev
FNDA:0,_ZN3MAS15DistributorInfoD0Ev
FNDA:0,_ZN3MAS15DistributorInfoD2Ev
FNDA:0,_ZNK3MAS15DistributorInfo8get_costEv
FNDA:0,_ZN3MAS15DistributorInfo8set_costESt8optionalIdE
FNDA:0,_ZNK3MAS15DistributorInfo11get_countryB5cxx11Ev
FNDA:0,_ZN3MAS15DistributorInfo11set_countryESt8optionalINSt7__cxx1112basic_stringIcSt11char_traitsIcESaIcEEEE
FNDA:0,_ZNK3MAS15DistributorInfo20get_distributed_areaB5cxx11Ev
FNDA:0,_ZN3MAS15DistributorInfo20set_distributed_areaESt8optionalINSt7__cxx1112basic_stringIcSt11char_traitsIcESaIcEEEE
FNDA:0,_ZNK3MAS15DistributorInfo9get_emailB5cxx11Ev
FNDA:0,_ZN3MAS15DistributorInfo9set_emailESt8optionalINSt7__cxx1112basic_stringIcSt11char_traitsIcESaIcEEEE
FNDA:0,_ZNK3MAS15DistributorInfo8get_linkB5cxx11Ev
FNDA:0,_ZN3MAS15DistributorInfo8set_linkESt8optionalINSt7__cxx1112basic_stringIcSt11char_traitsIcESaIcEEEE
FNDA:0,_ZNK3MAS15DistributorInfo8get_nameB5cxx11Ev
FNDA:0,_ZN3MAS15DistributorInfo8set_nameERKNSt7__cxx1112basic_stringIcSt11char_traitsIcESaIcEEE
FNDA:0,_ZNK3MAS15DistributorInfo9get_phoneB5cxx11Ev
FNDA:0,_ZN3MAS15DistributorInfo9set_phoneESt8optionalINSt7__cxx1112basic_stringIcSt11char_traitsIcESaIcEEEE
FNDA:0,_ZNK3MAS15DistributorInfo12get_quantityEv
FNDA:0,_ZN3MAS15DistributorInfo12set_quantityERKd
FNDA:0,_ZNK3MAS15DistributorInfo13get_referenceB5cxx11Ev
FNDA:0,_ZN3MAS15DistributorInfo13set_referenceERKNSt7__cxx1112basic_stringIcSt11char_traitsIcESaIcEEE
FNDA:0,_ZNK3MAS15DistributorInfo14get_updated_atB5cxx11Ev
FNDA:0,_ZN3MAS15DistributorInfo14set_updated_atESt8optionalINSt7__cxx1112basic_stringIcSt11char_traitsIcESaIcEEEE
FNDA:0,_ZN3MAS20PinWindingConnectionD0Ev
FNDA:0,_ZN3MAS20PinWindingConnectionD2Ev
FNDA:0,_ZNK3MAS20PinWindingConnection7get_pinB5cxx11Ev
FNDA:0,_ZN3MAS20PinWindingConnection7set_pinESt8optionalINSt7__cxx1112basic_stringIcSt11char_traitsIcESaIcEEEE
FNDA:0,_ZNK3MAS20PinWindingConnection11get_windingB5cxx11Ev
FNDA:0,_ZN3MAS20PinWindingConnection11set_windingESt8optionalINSt7__cxx1112basic_stringIcSt11char_traitsIcESaIcEEEE
FNDA:0,_ZN3MAS25DielectricStrengthElementC2Ev
FNDA:0,_ZN3MAS25DielectricStrengthElementD0Ev
FNDA:0,_ZN3MAS25DielectricStrengthElementD2Ev
FNDA:0,_ZNK3MAS25DielectricStrengthElement12get_humidityEv
FNDA:0,_ZN3MAS25DielectricStrengthElement12set_humidityESt8optionalIdE
FNDA:0,_ZNK3MAS25DielectricStrengthElement15get_temperatureEv
FNDA:0,_ZN3MAS25DielectricStrengthElement15set_temperatureESt8optionalIdE
FNDA:0,_ZNK3MAS25DielectricStrengthElement13get_thicknessEv
FNDA:0,_ZN3MAS25DielectricStrengthElement13set_thicknessESt8optionalIdE
FNDA:0,_ZNK3MAS25DielectricStrengthElement9get_valueEv
FNDA:0,_ZN3MAS25DielectricStrengthElement9set_valueERKd
FNDA:0,_ZN3MAS22DimensionWithToleranceC2Ev
FNDA:1,_ZN3MAS16ManufacturerInfoC2Ev
FNDA:0,_ZN3MAS16ManufacturerInfoD0Ev
FNDA:1,_ZN3MAS16ManufacturerInfoD2Ev
FNDA:0,_ZN3MAS22DimensionWithToleranceD0Ev
FNDA:23,_ZN3MAS22DimensionWithToleranceD2Ev
FNDA:0,_ZNK3MAS16ManufacturerInfo8get_costB5cxx11Ev
FNDA:0,_ZN3MAS16ManufacturerInfo8set_costESt8optionalINSt7__cxx1112basic_stringIcSt11char_traitsIcESaIcEEEE
FNDA:0,_ZNK3MAS16ManufacturerInfo17get_datasheet_urlB5cxx11Ev
FNDA:0,_ZN3MAS16ManufacturerInfo17set_datasheet_urlESt8optionalINSt7__cxx1112basic_stringIcSt11char_traitsIcESaIcEEEE
FNDA:0,_ZNK3MAS16ManufacturerInfo15get_descriptionB5cxx11Ev
FNDA:0,_ZN3MAS16ManufacturerInfo15set_descriptionESt8optionalINSt7__cxx1112basic_stringIcSt11char_traitsIcESaIcEEEE
FNDA:0,_ZNK3MAS16ManufacturerInfo10get_familyB5cxx11Ev
FNDA:0,_ZN3MAS16ManufacturerInfo10set_familyESt8optionalINSt7__cxx1112basic_stringIcSt11char_traitsIcESaIcEEEE
FNDA:0,_ZNK3MAS16ManufacturerInfo8get_nameB5cxx11Ev
FNDA:0,_ZN3MAS16ManufacturerInfo8set_nameERKNSt7__cxx1112basic_stringIcSt11char_traitsIcESaIcEEE
FNDA:0,_ZNK3MAS16ManufacturerInfo14get_order_codeB5cxx11Ev
FNDA:0,_ZN3MAS16ManufacturerInfo14set_order_codeESt8optionalINSt7__cxx1112basic_stringIcSt11char_traitsIcESaIcEEEE
FNDA:0,_ZNK3MAS16ManufacturerInfo13get_referenceB5cxx11Ev
FNDA:0,_ZN3MAS16ManufacturerInfo13set_referenceESt8optionalINSt7__cxx1112basic_stringIcSt11char_traitsIcESaIcEEEE
FNDA:0,_ZNK3MAS16ManufacturerInfo10get_statusEv
FNDA:0,_ZN3MAS16ManufacturerInfo10set_statusESt8optionalINS_6StatusEE
FNDA:0,_ZN3MAS16ResistivityPointC2Ev
FNDA:0,_ZN3MAS16ResistivityPointD0Ev
FNDA:0,_ZN3MAS16ResistivityPointD2Ev
FNDA:0,_ZNK3MAS16ResistivityPoint15get_temperatureEv
FNDA:0,_ZN3MAS16ResistivityPoint15set_temperatureESt8optionalIdE
FNDA:0,_ZNK3MAS16ResistivityPoint9get_valueEv
FNDA:0,_ZN3MAS16ResistivityPoint9set_valueERKd
FNDA:0,_ZN3MAS18InsulationMaterialC2Ev
FNDA:0,_ZN3MAS18InsulationMaterialD0Ev
FNDA:0,_ZN3MAS18InsulationMaterialD2Ev
FNDA:0,_ZNK3MAS18InsulationMaterial11get_aliasesB5cxx11Ev
FNDA:0,_ZN3MAS18InsulationMaterial11set_aliasesESt8optionalISt6vectorINSt7__cxx1112basic_stringIcSt11char_traitsIcESaIcEEESaIS8_EEE
FNDA:0,_ZNK3MAS18InsulationMaterial15get_compositionB5cxx11Ev
FNDA:0,_ZN3MAS18InsulationMaterial15set_compositionESt8optionalINSt7__cxx1112basic_stringIcSt11char_traitsIcESaIcEEEE
FNDA:0,_ZNK3MAS18InsulationMaterial23get_dielectric_strengthEv
FNDA:0,_ZN3MAS18InsulationMaterial23set_dielectric_strengthERKSt6vectorINS_25DielectricStrengthElementESaIS2_EE
FNDA:0,_ZNK3MAS18InsulationMaterial21get_manufacturer_infoEv
FNDA:0,_ZN3MAS18InsulationMaterial21set_manufacturer_infoESt8optionalINS_16ManufacturerInfoEE
FNDA:0,_ZNK3MAS18InsulationMaterial17get_melting_pointEv
FNDA:0,_ZN3MAS18InsulationMaterial17set_melting_pointESt8optionalIdE
FNDA:0,_ZNK3MAS18InsulationMaterial8get_nameB5cxx11Ev
FNDA:0,_ZN3MAS18InsulationMaterial8set_nameERKNSt7__cxx1112basic_stringIcSt11char_traitsIcESaIcEEE
FNDA:0,_ZNK3MAS22DimensionWithTolerance19get_exclude_maximumEv
FNDA:0,_ZNK3MAS18InsulationMaterial25get_relative_permittivityEv
FNDA:0,_ZN3MAS18InsulationMaterial25set_relative_permittivityESt8optionalIdE
FNDA:0,_ZN3MAS22DimensionWithTolerance19set_exclude_maximumESt8optionalIbE
FNDA:0,_ZNK3MAS18InsulationMaterial15get_resistivityEv
FNDA:0,_ZN3MAS18InsulationMaterial15set_resistivityESt8optionalISt6vectorINS_16ResistivityPointESaIS3_EEE
FNDA:0,_ZNK3MAS18InsulationMaterial17get_specific_heatEv
FNDA:0,_ZN3MAS18InsulationMaterial17set_specific_heatESt8optionalIdE
FNDA:0,_ZNK3MAS18InsulationMaterial21get_temperature_classEv
FNDA:0,_ZN3MAS18InsulationMaterial21set_temperature_classESt8optionalIdE
FNDA:0,_ZNK3MAS18InsulationMaterial24get_thermal_conductivityEv
FNDA:0,_ZN3MAS18InsulationMaterial24set_thermal_conductivityESt8optionalIdE
FNDA:0,_ZN3MAS3PinC2Ev
FNDA:0,_ZN3MAS3PinD0Ev
FNDA:0,_ZN3MAS3PinD2Ev
FNDA:0,_ZNK3MAS22DimensionWithTolerance19get_exclude_minimumEv
FNDA:0,_ZNK3MAS3Pin15get_coordinatesEv
FNDA:0,_ZN3MAS3Pin15set_coordinatesESt8optionalISt6vectorIdSaIdEEE
FNDA:0,_ZN3MAS22DimensionWithTolerance19set_exclude_minimumESt8optionalIbE
FNDA:0,_ZNK3MAS3Pin14get_dimensionsEv
FNDA:0,_ZN3MAS3Pin14set_dimensionsERKSt6vectorIdSaIdEE
FNDA:0,_ZNK3MAS3Pin8get_nameB5cxx11Ev
FNDA:0,_ZN3MAS3Pin8set_nameESt8optionalINSt7__cxx1112basic_stringIcSt11char_traitsIcESaIcEEEE
FNDA:0,_ZNK3MAS3Pin12get_rotationEv
FNDA:0,_ZN3MAS3Pin12set_rotationESt8optionalISt6vectorIdSaIdEEE
FNDA:0,_ZNK3MAS3Pin9get_shapeEv
FNDA:0,_ZN3MAS3Pin9set_shapeERKNS_8PinShapeE
FNDA:0,_ZNK3MAS3Pin8get_typeEv
FNDA:0,_ZN3MAS3Pin8set_typeERKNS_18PinDescriptionTypeE
FNDA:0,_ZN3MAS6PinoutC2Ev
FNDA:0,_ZN3MAS6PinoutD0Ev
FNDA:0,_ZN3MAS6PinoutD2Ev
FNDA:0,_ZNK3MAS22DimensionWithTolerance11get_maximumEv
FNDA:0,_ZNK3MAS6Pinout17get_central_pitchEv
FNDA:0,_ZN3MAS6Pinout17set_central_pitchESt8optionalIdE
FNDA:0,_ZN3MAS22DimensionWithTolerance11set_maximumESt8optionalIdE
FNDA:0,_ZNK3MAS6Pinout15get_number_pinsEv
FNDA:0,_ZN3MAS6Pinout15set_number_pinsERKl
FNDA:0,_ZNK3MAS6Pinout23get_number_pins_per_rowEv
FNDA:0,_ZN3MAS6Pinout23set_number_pins_per_rowESt8optionalISt6vectorIlSaIlEEE
FNDA:0,_ZNK3MAS6Pinout15get_number_rowsEv
FNDA:0,_ZN3MAS6Pinout15set_number_rowsESt8optionalIlE
FNDA:0,_ZNK3MAS6Pinout19get_pin_descriptionEv
FNDA:0,_ZN3MAS6Pinout19set_pin_descriptionERKNS_3PinE
FNDA:0,_ZNK3MAS6Pinout9get_pitchEv
FNDA:0,_ZN3MAS6Pinout9set_pitchERKSt7variantIJSt6vectorIdSaIdEEdEE
FNDA:0,_ZNK3MAS6Pinout16get_row_distanceEv
FNDA:0,_ZN3MAS6Pinout16set_row_distanceERKd
FNDA:0,_ZN3MAS27BobbinFunctionalDescriptionC2Ev
FNDA:0,_ZN3MAS27BobbinFunctionalDescriptionD0Ev
FNDA:0,_ZN3MAS27BobbinFunctionalDescriptionD2Ev
FNDA:0,_ZNK3MAS22DimensionWithTolerance11get_minimumEv
FNDA:0,_ZN3MAS22DimensionWithTolerance11set_minimumESt8optionalIdE
FNDA:0,_ZNK3MAS27BobbinFunctionalDescription15get_connectionsEv
FNDA:0,_ZN3MAS27BobbinFunctionalDescription15set_connectionsESt8optionalISt6vectorINS_20PinWindingConnectionESaIS3_EEE
FNDA:0,_ZNK3MAS27BobbinFunctionalDescription14get_dimensionsB5cxx11Ev
FNDA:0,_ZN3MAS27BobbinFunctionalDescription14set_dimensionsERKSt3mapINSt7__cxx1112basic_stringIcSt11char_traitsIcESaIcEEESt7variantIJNS_22DimensionWithToleranceEdEESt4lessIS7_ESaISt4pairIKS7_SA_EEE
FNDA:0,_ZNK3MAS27BobbinFunctionalDescription10get_familyEv
FNDA:0,_ZN3MAS27BobbinFunctionalDescription10set_familyERKNS_12BobbinFamilyE
FNDA:0,_ZNK3MAS27BobbinFunctionalDescription18get_family_subtypeB5cxx11Ev
FNDA:0,_ZN3MAS27BobbinFunctionalDescription18set_family_subtypeESt8optionalINSt7__cxx1112basic_stringIcSt11char_traitsIcESaIcEEEE
FNDA:0,_ZNK3MAS27BobbinFunctionalDescription12get_materialB5cxx11Ev
FNDA:0,_ZN3MAS27BobbinFunctionalDescription12set_materialESt8optionalISt7variantIJNS_18InsulationMaterialENSt7__cxx1112basic_stringIcSt11char_traitsIcESaIcEEEEEE
FNDA:0,_ZNK3MAS27BobbinFunctionalDescription10get_pinoutEv
FNDA:0,_ZN3MAS27BobbinFunctionalDescription10set_pinoutESt8optionalINS_6PinoutEE
FNDA:0,_ZNK3MAS27BobbinFunctionalDescription9get_shapeB5cxx11Ev
FNDA:0,_ZN3MAS27BobbinFunctionalDescription9set_shapeERKNSt7__cxx1112basic_stringIcSt11char_traitsIcESaIcEEE
FNDA:0,_ZNK3MAS27BobbinFunctionalDescription8get_typeEv
FNDA:0,_ZN3MAS27BobbinFunctionalDescription8set_typeERKNS_25FunctionalDescriptionTypeE
FNDA:0,_ZNK3MAS22DimensionWithTolerance11get_nominalEv
FNDA:0,_ZN3MAS22DimensionWithTolerance11set_nominalESt8optionalIdE
FNDA:0,_ZN3MAS20WindingWindowElementC2Ev
FNDA:0,_ZN3MAS20WindingWindowElementD0Ev
FNDA:0,_ZN3MAS20WindingWindowElementD2Ev
FNDA:0,_ZNK3MAS20WindingWindowElement8get_areaEv
FNDA:0,_ZN3MAS20WindingWindowElement8set_areaESt8optionalIdE
FNDA:0,_ZNK3MAS20WindingWindowElement15get_coordinatesEv
FNDA:0,_ZN3MAS20WindingWindowElement15set_coordinatesESt8optionalISt6vectorIdSaIdEEE
FNDA:0,_ZNK3MAS22DimensionWithTolerance8get_unitB5cxx11Ev
FNDA:0,_ZNK3MAS20WindingWindowElement10get_heightEv
FNDA:0,_ZN3MAS20WindingWindowElement10set_heightESt8optionalIdE
FNDA:0,_ZN3MAS22DimensionWithTolerance8set_unitESt8optionalINSt7__cxx1112basic_stringIcSt11char_traitsIcESaIcEEEE
FNDA:0,_ZNK3MAS20WindingWindowElement22get_sections_alignmentEv
FNDA:0,_ZN3MAS20WindingWindowElement22set_sections_alignmentESt8optionalINS_13CoilAlignmentEE
FNDA:0,_ZNK3MAS20WindingWindowElement24get_sections_orientationEv
FNDA:0,_ZN3MAS20WindingWindowElement24set_sections_orientationESt8optionalINS_18WindingOrientationEE
FNDA:0,_ZNK3MAS20WindingWindowElement9get_shapeEv
FNDA:0,_ZN3MAS20WindingWindowElement9set_shapeESt8optionalINS_18WindingWindowShapeEE
FNDA:0,_ZNK3MAS20WindingWindowElement9get_widthEv
FNDA:0,_ZN3MAS20WindingWindowElement9set_widthESt8optionalIdE
FNDA:0,_ZNK3MAS20WindingWindowElement9get_angleEv
FNDA:0,_ZN3MAS20WindingWindowElement9set_angleESt8optionalIdE
FNDA:0,_ZNK3MAS20WindingWindowElement17get_radial_heightEv
FNDA:0,_ZN3MAS20WindingWindowElement17set_radial_heightESt8optionalIdE
FNDA:0,_ZN3MAS30CoreBobbinProcessedDescriptionC2Ev
FNDA:0,_ZN3MAS30CoreBobbinProcessedDescriptionD0Ev
FNDA:0,_ZN3MAS30CoreBobbinProcessedDescriptionD2Ev
FNDA:0,_ZNK3MAS30CoreBobbinProcessedDescription16get_column_depthEv
FNDA:0,_ZN3MAS30CoreBobbinProcessedDescription16set_column_depthERKd
FNDA:0,_ZNK3MAS30CoreBobbinProcessedDescription16get_column_shapeEv
FNDA:0,_ZN3MAS30CoreBobbinProcessedDescription16set_column_shapeERKNS_11ColumnShapeE
FNDA:0,_ZNK3MAS30CoreBobbinProcessedDescription20get_column_thicknessEv
FNDA:0,_ZN3MAS30CoreBobbinProcessedDescription20set_column_thicknessERKd
FNDA:0,_ZNK3MAS30CoreBobbinProcessedDescription16get_column_widthEv
FNDA:0,_ZN3MAS30CoreBobbinProcessedDescription16set_column_widthESt8optionalIdE
FNDA:0,_ZNK3MAS30CoreBobbinProcessedDescription15get_coordinatesEv
FNDA:0,_ZN3MAS30CoreBobbinProcessedDescription15set_coordinatesESt8optionalISt6vectorIdSaIdEEE
FNDA:0,_ZNK3MAS30CoreBobbinProcessedDescription8get_pinsEv
FNDA:0,_ZN3MAS30CoreBobbinProcessedDescription8set_pinsESt8optionalISt6vectorINS_3PinESaIS3_EEE
FNDA:0,_ZNK3MAS30CoreBobbinProcessedDescription18get_wall_thicknessEv
FNDA:0,_ZN3MAS30CoreBobbinProcessedDescription18set_wall_thicknessERKd
FNDA:0,_ZNK3MAS30CoreBobbinProcessedDescription19get_winding_windowsEv
FNDA:0,_ZN3MAS30CoreBobbinProcessedDescription27get_mutable_winding_windowsEv
FNDA:0,_ZN3MAS30CoreBobbinProcessedDescription19set_winding_windowsERKSt6vectorINS_20WindingWindowElementESaIS2_EE
FNDA:3,_ZN3MAS6BobbinC2Ev
FNDA:0,_ZN3MAS6BobbinD0Ev
FNDA:3,_ZN3MAS6BobbinD2Ev
FNDA:0,_ZN3MAS18BaseOperatingPointC2Ev
FNDA:0,_ZN3MAS18BaseOperatingPointD0Ev
FNDA:0,_ZN3MAS18BaseOperatingPointD2Ev
FNDA:0,_ZNK3MAS6Bobbin21get_distributors_infoEv
FNDA:0,_ZN3MAS6Bobbin21set_distributors_infoESt8optionalISt6vectorINS_15DistributorInfoESaIS3_EEE
FNDA:0,_ZNK3MAS6Bobbin26get_functional_descriptionEv
FNDA:0,_ZN3MAS6Bobbin26set_functional_descriptionESt8optionalINS_27BobbinFunctionalDescriptionEE
FNDA:0,_ZNK3MAS6Bobbin21get_manufacturer_infoEv
FNDA:0,_ZN3MAS6Bobbin21set_manufacturer_infoESt8optionalINS_16ManufacturerInfoEE
FNDA:0,_ZNK3MAS6Bobbin8get_nameB5cxx11Ev
FNDA:0,_ZN3MAS6Bobbin8set_nameESt8optionalINSt7__cxx1112basic_stringIcSt11char_traitsIcESaIcEEEE
FNDA:0,_ZNK3MAS6Bobbin25get_processed_descriptionEv
FNDA:0,_ZN3MAS6Bobbin25set_processed_descriptionESt8optionalINS_30CoreBobbinProcessedDescriptionEE
FNDA:0,_ZN3MAS17ConnectionElementD0Ev
FNDA:0,_ZN3MAS17ConnectionElementD2Ev
FNDA:0,_ZNK3MAS17ConnectionElement13get_directionEv
FNDA:0,_ZN3MAS17ConnectionElement13set_directionESt8optionalINS_9DirectionEE
FNDA:0,_ZNK3MAS17ConnectionElement10get_lengthEv
FNDA:0,_ZN3MAS17ConnectionElement10set_lengthESt8optionalIdE
FNDA:0,_ZNK3MAS17ConnectionElement10get_metricEv
FNDA:0,_ZN3MAS17ConnectionElement10set_metricESt8optionalIlE
FNDA:0,_ZNK3MAS17ConnectionElement12get_pin_nameB5cxx11Ev
FNDA:0,_ZN3MAS17ConnectionElement12set_pin_nameESt8optionalINSt7__cxx1112basic_stringIcSt11char_traitsIcESaIcEEEE
FNDA:0,_ZNK3MAS17ConnectionElement8get_typeEv
FNDA:0,_ZN3MAS17ConnectionElement8set_typeESt8optionalINS_14ConnectionTypeEE
FNDA:0,_ZN3MAS21InsulationWireCoatingC2Ev
FNDA:0,_ZN3MAS21InsulationWireCoatingD0Ev
FNDA:0,_ZN3MAS21InsulationWireCoatingD2Ev
FNDA:0,_ZNK3MAS21InsulationWireCoating21get_breakdown_voltageEv
FNDA:0,_ZN3MAS21InsulationWireCoating21set_breakdown_voltageESt8optionalIdE
FNDA:0,_ZNK3MAS21InsulationWireCoating9get_gradeEv
FNDA:0,_ZN3MAS21InsulationWireCoating9set_gradeESt8optionalIlE
FNDA:0,_ZNK3MAS21InsulationWireCoating12get_materialB5cxx11Ev
FNDA:0,_ZN3MAS21InsulationWireCoating12set_materialESt8optionalISt7variantIJNS_18InsulationMaterialENSt7__cxx1112basic_stringIcSt11char_traitsIcESaIcEEEEEE
FNDA:0,_ZNK3MAS21InsulationWireCoating17get_number_layersEv
FNDA:0,_ZN3MAS21InsulationWireCoating17set_number_layersESt8optionalIlE
FNDA:0,_ZNK3MAS18BaseOperatingPoint23get_ambient_temperatureEv
FNDA:0,_ZNK3MAS21InsulationWireCoating22get_temperature_ratingEv
FNDA:0,_ZN3MAS21InsulationWireCoating22set_temperature_ratingESt8optionalIdE
FNDA:0,_ZNK3MAS21InsulationWireCoating13get_thicknessEv
FNDA:0,_ZN3MAS21InsulationWireCoating13set_thicknessESt8optionalINS_22DimensionWithToleranceEE
FNDA:0,_ZNK3MAS21InsulationWireCoating20get_thickness_layersEv
FNDA:0,_ZN3MAS21InsulationWireCoating20set_thickness_layersESt8optionalIdE
FNDA:0,_ZN3MAS18BaseOperatingPoint23set_ambient_temperatureERKd
FNDA:0,_ZNK3MAS21InsulationWireCoating8get_typeEv
FNDA:0,_ZN3MAS21InsulationWireCoating8set_typeESt8optionalINS_25InsulationWireCoatingTypeEE
FNDA:0,_ZN3MAS11ResistivityC2Ev
FNDA:0,_ZN3MAS11ResistivityD0Ev
FNDA:0,_ZN3MAS11ResistivityD2Ev
FNDA:0,_ZNK3MAS11Resistivity25get_reference_temperatureEv
FNDA:0,_ZN3MAS11Resistivity25set_reference_temperatureERKd
FNDA:0,_ZNK3MAS11Resistivity19get_reference_valueEv
FNDA:0,_ZN3MAS11Resistivity19set_reference_valueERKd
FNDA:0,_ZNK3MAS11Resistivity27get_temperature_coefficientEv
FNDA:0,_ZN3MAS11Resistivity27set_temperature_coefficientERKd
FNDA:0,_ZN3MAS26ThermalConductivityElementC2Ev
FNDA:0,_ZN3MAS26ThermalConductivityElementD0Ev
FNDA:0,_ZN3MAS26ThermalConductivityElementD2Ev
FNDA:0,_ZN8nlohmann16json_abi_v3_11_314adl_serializerISt8optionalIN3MAS10TopologiesEEvE7to_jsonERNS0_10basic_jsonISt3mapSt6vectorNSt7__cxx1112basic_stringIcSt11char_traitsIcESaIcEEEblmdSaS1_S9_IhSaIhEEvEERKS5_
FNDA:0,_ZN8nlohmann16json_abi_v3_11_314adl_serializerISt8optionalIN3MAS11ApplicationEEvE7to_jsonERNS0_10basic_jsonISt3mapSt6vectorNSt7__cxx1112basic_stringIcSt11char_traitsIcESaIcEEEblmdSaS1_S9_IhSaIhEEvEERKS5_
FNDA:0,_ZN8nlohmann16json_abi_v3_11_314adl_serializerISt8optionalIN3MAS11ColumnShapeEEvE7to_jsonERNS0_10basic_jsonISt3mapSt6vectorNSt7__cxx1112basic_stringIcSt11char_traitsIcESaIcEEEblmdSaS1_S9_IhSaIhEEvEERKS5_
FNDA:0,_ZN8nlohmann16json_abi_v3_11_314adl_serializerISt8optionalIN3MAS11OhmicLossesEEvE7to_jsonERNS0_10basic_jsonISt3mapSt6vectorNSt7__cxx1112basic_stringIcSt11char_traitsIcESaIcEEEblmdSaS1_S9_IhSaIhEEvEERKS5_
FNDA:0,_ZN8nlohmann16json_abi_v3_11_314adl_serializerISt8optionalIN3MAS11VoltageTypeEEvE7to_jsonERNS0_10basic_jsonISt3mapSt6vectorNSt7__cxx1112basic_stringIcSt11char_traitsIcESaIcEEEblmdSaS1_S9_IhSaIhEEvEERKS5_
FNDA:0,_ZN8nlohmann16json_abi_v3_11_314adl_serializerISt8optionalIN3MAS12WindingStyleEEvE7to_jsonERNS0_10basic_jsonISt3mapSt6vectorNSt7__cxx1112basic_stringIcSt11char_traitsIcESaIcEEEblmdSaS1_S9_IhSaIhEEvEERKS5_
FNDA:0,_ZN8nlohmann16json_abi_v3_11_314adl_serializerISt8optionalIN3MAS12WireStandardEEvE7to_jsonERNS0_10basic_jsonISt3mapSt6vectorNSt7__cxx1112basic_stringIcSt11char_traitsIcESaIcEEEblmdSaS1_S9_IhSaIhEEvEERKS5_
FNDA:0,_ZN8nlohmann16json_abi_v3_11_314adl_serializerISt8optionalIN3MAS13CoilAlignmentEEvE7to_jsonERNS0_10basic_jsonISt3mapSt6vectorNSt7__cxx1112basic_stringIcSt11char_traitsIcESaIcEEEblmdSaS1_S9_IhSaIhEEvEERKS5_
FNDA:0,_ZN8nlohmann16json_abi_v3_11_314adl_serializerISt8optionalIN3MAS13WaveformLabelEEvE7to_jsonERNS0_10basic_jsonISt3mapSt6vectorNSt7__cxx1112basic_stringIcSt11char_traitsIcESaIcEEEblmdSaS1_S9_IhSaIhEEvEERKS5_
FNDA:0,_ZN8nlohmann16json_abi_v3_11_314adl_serializerISt8optionalIN3MAS14ConnectionTypeEEvE7to_jsonERNS0_10basic_jsonISt3mapSt6vectorNSt7__cxx1112basic_stringIcSt11char_traitsIcESaIcEEEblmdSaS1_S9_IhSaIhEEvEERKS5_
FNDA:0,_ZN8nlohmann16json_abi_v3_11_314adl_serializerISt8optionalIN3MAS14InsulationTypeEEvE7to_jsonERNS0_10basic_jsonISt3mapSt6vectorNSt7__cxx1112basic_stringIcSt11char_traitsIcESaIcEEEblmdSaS1_S9_IhSaIhEEvEERKS5_
FNDA:0,_ZN8nlohmann16json_abi_v3_11_314adl_serializerISt8optionalIN3MAS14OperatingPointEEvE7to_jsonERNS0_10basic_jsonISt3mapSt6vectorNSt7__cxx1112basic_stringIcSt11char_traitsIcESaIcEEEblmdSaS1_S9_IhSaIhEEvEERKS5_
FNDA:0,_ZN8nlohmann16json_abi_v3_11_314adl_serializerISt8optionalIN3MAS14SubApplicationEEvE7to_jsonERNS0_10basic_jsonISt3mapSt6vectorNSt7__cxx1112basic_stringIcSt11char_traitsIcESaIcEEEblmdSaS1_S9_IhSaIhEEvEERKS5_
FNDA:0,_ZN8nlohmann16json_abi_v3_11_314adl_serializerISt8optionalIN3MAS15FrequencyFactorEEvE7to_jsonERNS0_10basic_jsonISt3mapSt6vectorNSt7__cxx1112basic_stringIcSt11char_traitsIcESaIcEEEblmdSaS1_S9_IhSaIhEEvEERKS5_
FNDA:0,_ZN8nlohmann16json_abi_v3_11_314adl_serializerISt8optionalIN3MAS15ImpedanceOutputEEvE7to_jsonERNS0_10basic_jsonISt3mapSt6vectorNSt7__cxx1112basic_stringIcSt11char_traitsIcESaIcEEEblmdSaS1_S9_IhSaIhEEvEERKS5_
FNDA:0,_ZN8nlohmann16json_abi_v3_11_314adl_serializerISt8optionalIN3MAS15MagneticCircuitEEvE7to_jsonERNS0_10basic_jsonISt3mapSt6vectorNSt7__cxx1112basic_stringIcSt11char_traitsIcESaIcEEEblmdSaS1_S9_IhSaIhEEvEERKS5_
FNDA:0,_ZN8nlohmann16json_abi_v3_11_314adl_serializerISt8optionalIN3MAS15PollutionDegreeEEvE7to_jsonERNS0_10basic_jsonISt3mapSt6vectorNSt7__cxx1112basic_stringIcSt11char_traitsIcESaIcEEEblmdSaS1_S9_IhSaIhEEvEERKS5_
FNDA:0,_ZN8nlohmann16json_abi_v3_11_314adl_serializerISt8optionalIN3MAS15TurnOrientationEEvE7to_jsonERNS0_10basic_jsonISt3mapSt6vectorNSt7__cxx1112basic_stringIcSt11char_traitsIcESaIcEEEblmdSaS1_S9_IhSaIhEEvEERKS5_
FNDA:0,_ZN8nlohmann16json_abi_v3_11_314adl_serializerISt8optionalIN3MAS16CoordinateSystemEEvE7to_jsonERNS0_10basic_jsonISt3mapSt6vectorNSt7__cxx1112basic_stringIcSt11char_traitsIcESaIcEEEblmdSaS1_S9_IhSaIhEEvEERKS5_
FNDA:0,_ZN8nlohmann16json_abi_v3_11_314adl_serializerISt8optionalIN3MAS16CoreLossesOutputEEvE7to_jsonERNS0_10basic_jsonISt3mapSt6vectorNSt7__cxx1112basic_stringIcSt11char_traitsIcESaIcEEEblmdSaS1_S9_IhSaIhEEvEERKS5_
FNDA:0,_ZN8nlohmann16json_abi_v3_11_314adl_serializerISt8optionalIN3MAS16InductanceOutputEEvE7to_jsonERNS0_10basic_jsonISt3mapSt6vectorNSt7__cxx1112basic_stringIcSt11char_traitsIcESaIcEEEblmdSaS1_S9_IhSaIhEEvEERKS5_
FNDA:0,_ZN8nlohmann16json_abi_v3_11_314adl_serializerISt8optionalIN3MAS16ManufacturerInfoEEvE7to_jsonERNS0_10basic_jsonISt3mapSt6vectorNSt7__cxx1112basic_stringIcSt11char_traitsIcESaIcEEEblmdSaS1_S9_IhSaIhEEvEERKS5_
FNDA:0,_ZN8nlohmann16json_abi_v3_11_314adl_serializerISt8optionalIN3MAS16SignalDescriptorEEvE7to_jsonERNS0_10basic_jsonISt3mapSt6vectorNSt7__cxx1112basic_stringIcSt11char_traitsIcESaIcEEEblmdSaS1_S9_IhSaIhEEvEERKS5_
FNDA:0,_ZN8nlohmann16json_abi_v3_11_314adl_serializerISt8optionalIN3MAS16TemperaturePointEEvE7to_jsonERNS0_10basic_jsonISt3mapSt6vectorNSt7__cxx1112basic_stringIcSt11char_traitsIcESaIcEEEblmdSaS1_S9_IhSaIhEEvEERKS5_
FNDA:0,_ZN8nlohmann16json_abi_v3_11_314adl_serializerISt8optionalIN3MAS16WiringTechnologyEEvE7to_jsonERNS0_10basic_jsonISt3mapSt6vectorNSt7__cxx1112basic_stringIcSt11char_traitsIcESaIcEEEblmdSaS1_S9_IhSaIhEEvEERKS5_
FNDA:0,_ZN8nlohmann16json_abi_v3_11_314adl_serializerISt8optionalIN3MAS17MaximumDimensionsEEvE7to_jsonERNS0_10basic_jsonISt3mapSt6vectorNSt7__cxx1112basic_stringIcSt11char_traitsIcESaIcEEEblmdSaS1_S9_IhSaIhEEvEERKS5_
FNDA:0,_ZN8nlohmann16json_abi_v3_11_314adl_serializerISt8optionalIN3MAS17TemperatureFactorEEvE7to_jsonERNS0_10basic_jsonISt3mapSt6vectorNSt7__cxx1112basic_stringIcSt11char_traitsIcESaIcEEEblmdSaS1_S9_IhSaIhEEvEERKS5_
FNDA:0,_ZN8nlohmann16json_abi_v3_11_314adl_serializerISt8optionalIN3MAS17TemperatureOutputEEvE7to_jsonERNS0_10basic_jsonISt3mapSt6vectorNSt7__cxx1112basic_stringIcSt11char_traitsIcESaIcEEEblmdSaS1_S9_IhSaIhEEvEERKS5_
FNDA:0,_ZN8nlohmann16json_abi_v3_11_314adl_serializerISt8optionalIN3MAS18WindingLossElementEEvE7to_jsonERNS0_10basic_jsonISt3mapSt6vectorNSt7__cxx1112basic_stringIcSt11char_traitsIcESaIcEEEblmdSaS1_S9_IhSaIhEEvEERKS5_
FNDA:0,_ZN8nlohmann16json_abi_v3_11_314adl_serializerISt8optionalIN3MAS18WindingOrientationEEvE7to_jsonERNS0_10basic_jsonISt3mapSt6vectorNSt7__cxx1112basic_stringIcSt11char_traitsIcESaIcEEEblmdSaS1_S9_IhSaIhEEvEERKS5_
FNDA:0,_ZN8nlohmann16json_abi_v3_11_314adl_serializerISt8optionalIN3MAS18WindingWindowShapeEEvE7to_jsonERNS0_10basic_jsonISt3mapSt6vectorNSt7__cxx1112basic_stringIcSt11char_traitsIcESaIcEEEblmdSaS1_S9_IhSaIhEEvEERKS5_
FNDA:0,_ZN8nlohmann16json_abi_v3_11_314adl_serializerISt8optionalIN3MAS19MaterialCompositionEEvE7to_jsonERNS0_10basic_jsonISt3mapSt6vectorNSt7__cxx1112basic_stringIcSt11char_traitsIcESaIcEEEblmdSaS1_S9_IhSaIhEEvEERKS5_
FNDA:0,_ZN8nlohmann16json_abi_v3_11_314adl_serializerISt8optionalIN3MAS19OvervoltageCategoryEEvE7to_jsonERNS0_10basic_jsonISt3mapSt6vectorNSt7__cxx1112basic_stringIcSt11char_traitsIcESaIcEEEblmdSaS1_S9_IhSaIhEEvEERKS5_
FNDA:0,_ZN8nlohmann16json_abi_v3_11_314adl_serializerISt8optionalIN3MAS19WindingLossesOutputEEvE7to_jsonERNS0_10basic_jsonISt3mapSt6vectorNSt7__cxx1112basic_stringIcSt11char_traitsIcESaIcEEEblmdSaS1_S9_IhSaIhEEvEERKS5_
FNDA:0,_ZN8nlohmann16json_abi_v3_11_314adl_serializerISt8optionalIN3MAS22DimensionWithToleranceEEvE7to_jsonERNS0_10basic_jsonISt3mapSt6vectorNSt7__cxx1112basic_stringIcSt11char_traitsIcESaIcEEEblmdSaS1_S9_IhSaIhEEvEERKS5_
FNDA:0,_ZN8nlohmann16json_abi_v3_11_314adl_serializerISt8optionalIN3MAS22InsulationRequirementsEEvE7to_jsonERNS0_10basic_jsonISt3mapSt6vectorNSt7__cxx1112basic_stringIcSt11char_traitsIcESaIcEEEblmdSaS1_S9_IhSaIhEEvEERKS5_
FNDA:0,_ZN8nlohmann16json_abi_v3_11_314adl_serializerISt8optionalIN3MAS23ComplexPermeabilityDataEEvE7to_jsonERNS0_10basic_jsonISt3mapSt6vectorNSt7__cxx1112basic_stringIcSt11char_traitsIcESaIcEEEblmdSaS1_S9_IhSaIhEEvEERKS5_
FNDA:0,_ZN8nlohmann16json_abi_v3_11_314adl_serializerISt8optionalIN3MAS23LeakageInductanceOutputEEvE7to_jsonERNS0_10basic_jsonISt3mapSt6vectorNSt7__cxx1112basic_stringIcSt11char_traitsIcESaIcEEEblmdSaS1_S9_IhSaIhEEvEERKS5_
FNDA:0,_ZN8nlohmann16json_abi_v3_11_314adl_serializerISt8optionalIN3MAS23TurnCrossSectionalShapeEEvE7to_jsonERNS0_10basic_jsonISt3mapSt6vectorNSt7__cxx1112basic_stringIcSt11char_traitsIcESaIcEEEblmdSaS1_S9_IhSaIhEEvEERKS5_
FNDA:0,_ZN8nlohmann16json_abi_v3_11_314adl_serializerISt8optionalIN3MAS24CoreProcessedDescriptionEEvE7to_jsonERNS0_10basic_jsonISt3mapSt6vectorNSt7__cxx1112basic_stringIcSt11char_traitsIcESaIcEEEblmdSaS1_S9_IhSaIhEEvEERKS5_
FNDA:0,_ZN8nlohmann16json_abi_v3_11_314adl_serializerISt8optionalIN3MAS24MagneticManufacturerInfoEEvE7to_jsonERNS0_10basic_jsonISt3mapSt6vectorNSt7__cxx1112basic_stringIcSt11char_traitsIcESaIcEEEblmdSaS1_S9_IhSaIhEEvEERKS5_
FNDA:0,_ZN8nlohmann16json_abi_v3_11_314adl_serializerISt8optionalIN3MAS25InsulationWireCoatingTypeEEvE7to_jsonERNS0_10basic_jsonISt3mapSt6vectorNSt7__cxx1112basic_stringIcSt11char_traitsIcESaIcEEEblmdSaS1_S9_IhSaIhEEvEERKS5_
FNDA:0,_ZN8nlohmann16json_abi_v3_11_314adl_serializerISt8optionalIN3MAS25MagneticFieldDcBiasFactorEEvE7to_jsonERNS0_10basic_jsonISt3mapSt6vectorNSt7__cxx1112basic_stringIcSt11char_traitsIcESaIcEEEblmdSaS1_S9_IhSaIhEEvEERKS5_
FNDA:0,_ZN8nlohmann16json_abi_v3_11_314adl_serializerISt8optionalIN3MAS25MagneticFluxDensityFactorEEvE7to_jsonERNS0_10basic_jsonISt3mapSt6vectorNSt7__cxx1112basic_stringIcSt11char_traitsIcESaIcEEEblmdSaS1_S9_IhSaIhEEvEERKS5_
FNDA:0,_ZN8nlohmann16json_abi_v3_11_314adl_serializerISt8optionalIN3MAS27BobbinFunctionalDescriptionEEvE7to_jsonERNS0_10basic_jsonISt3mapSt6vectorNSt7__cxx1112basic_stringIcSt11char_traitsIcESaIcEEEblmdSaS1_S9_IhSaIhEEvEERKS5_
FNDA:0,_ZN8nlohmann16json_abi_v3_11_314adl_serializerISt8optionalIN3MAS27CoreMaterialRecommendationsEEvE7to_jsonERNS0_10basic_jsonISt3mapSt6vectorNSt7__cxx1112basic_stringIcSt11char_traitsIcESaIcEEEblmdSaS1_S9_IhSaIhEEvEERKS5_
FNDA:0,_ZN8nlohmann16json_abi_v3_11_314adl_serializerISt8optionalIN3MAS28InsulationCoordinationOutputEEvE7to_jsonERNS0_10basic_jsonISt3mapSt6vectorNSt7__cxx1112basic_stringIcSt11char_traitsIcESaIcEEEblmdSaS1_S9_IhSaIhEEvEERKS5_
FNDA:0,_ZN8nlohmann16json_abi_v3_11_314adl_serializerISt8optionalIN3MAS28RoshenAdditionalCoefficientsEEvE7to_jsonERNS0_10basic_jsonISt3mapSt6vectorNSt7__cxx1112basic_stringIcSt11char_traitsIcESaIcEEEblmdSaS1_S9_IhSaIhEEvEERKS5_
FNDA:0,_ZN8nlohmann16json_abi_v3_11_314adl_serializerISt8optionalIN3MAS30CoreBobbinProcessedDescriptionEEvE7to_jsonERNS0_10basic_jsonISt3mapSt6vectorNSt7__cxx1112basic_stringIcSt11char_traitsIcESaIcEEEblmdSaS1_S9_IhSaIhEEvEERKS5_
FNDA:0,_ZN8nlohmann16json_abi_v3_11_314adl_serializerISt8optionalIN3MAS31WindingWindowCurrentFieldOutputEEvE7to_jsonERNS0_10basic_jsonISt3mapSt6vectorNSt7__cxx1112basic_stringIcSt11char_traitsIcESaIcEEEblmdSaS1_S9_IhSaIhEEvEERKS5_
FNDA:0,_ZN8nlohmann16json_abi_v3_11_314adl_serializerISt8optionalIN3MAS32InitialPermeabilitModifierMethodEEvE7to_jsonERNS0_10basic_jsonISt3mapSt6vectorNSt7__cxx1112basic_stringIcSt11char_traitsIcESaIcEEEblmdSaS1_S9_IhSaIhEEvEERKS5_
FNDA:0,_ZN8nlohmann16json_abi_v3_11_314adl_serializerISt8optionalIN3MAS35MagneticManufacturerRecommendationsEEvE7to_jsonERNS0_10basic_jsonISt3mapSt6vectorNSt7__cxx1112basic_stringIcSt11char_traitsIcESaIcEEEblmdSaS1_S9_IhSaIhEEvEERKS5_
FNDA:0,_ZN8nlohmann16json_abi_v3_11_314adl_serializerISt8optionalIN3MAS38WindingWindowCurrentDensityFieldOutputEEvE7to_jsonERNS0_10basic_jsonISt3mapSt6vectorNSt7__cxx1112basic_stringIcSt11char_traitsIcESaIcEEEblmdSaS1_S9_IhSaIhEEvEERKS5_
FNDA:0,_ZN8nlohmann16json_abi_v3_11_314adl_serializerISt8optionalIN3MAS3CtiEEvE7to_jsonERNS0_10basic_jsonISt3mapSt6vectorNSt7__cxx1112basic_stringIcSt11char_traitsIcESaIcEEEblmdSaS1_S9_IhSaIhEEvEERKS5_
FNDA:0,_ZN8nlohmann16json_abi_v3_11_314adl_serializerISt8optionalIN3MAS40WindingWindowMagneticStrengthFieldOutputEEvE7to_jsonERNS0_10basic_jsonISt3mapSt6vectorNSt7__cxx1112basic_stringIcSt11char_traitsIcESaIcEEEblmdSaS1_S9_IhSaIhEEvEERKS5_
FNDA:0,_ZN8nlohmann16json_abi_v3_11_314adl_serializerISt8optionalIN3MAS6MarketEEvE7to_jsonERNS0_10basic_jsonISt3mapSt6vectorNSt7__cxx1112basic_stringIcSt11char_traitsIcESaIcEEEblmdSaS1_S9_IhSaIhEEvEERKS5_
FNDA:0,_ZN8nlohmann16json_abi_v3_11_314adl_serializerISt8optionalIN3MAS6PinoutEEvE7to_jsonERNS0_10basic_jsonISt3mapSt6vectorNSt7__cxx1112basic_stringIcSt11char_traitsIcESaIcEEEblmdSaS1_S9_IhSaIhEEvEERKS5_
FNDA:0,_ZN8nlohmann16json_abi_v3_11_314adl_serializerISt8optionalIN3MAS6StatusEEvE7to_jsonERNS0_10basic_jsonISt3mapSt6vectorNSt7__cxx1112basic_stringIcSt11char_traitsIcESaIcEEEblmdSaS1_S9_IhSaIhEEvEERKS5_
FNDA:0,_ZN8nlohmann16json_abi_v3_11_314adl_serializerISt8optionalIN3MAS7CoatingEEvE7to_jsonERNS0_10basic_jsonISt3mapSt6vectorNSt7__cxx1112basic_stringIcSt11char_traitsIcESaIcEEEblmdSaS1_S9_IhSaIhEEvEERKS5_
FNDA:0,_ZN8nlohmann16json_abi_v3_11_314adl_serializerISt8optionalIN3MAS7CoolingEEvE7to_jsonERNS0_10basic_jsonISt3mapSt6vectorNSt7__cxx1112basic_stringIcSt11char_traitsIcESaIcEEEblmdSaS1_S9_IhSaIhEEvEERKS5_
FNDA:0,_ZN8nlohmann16json_abi_v3_11_314adl_serializerISt8optionalIN3MAS8WaveformEEvE7to_jsonERNS0_10basic_jsonISt3mapSt6vectorNSt7__cxx1112basic_stringIcSt11char_traitsIcESaIcEEEblmdSaS1_S9_IhSaIhEEvEERKS5_
FNDA:0,_ZN8nlohmann16json_abi_v3_11_314adl_serializerISt8optionalIN3MAS9DirectionEEvE7to_jsonERNS0_10basic_jsonISt3mapSt6vectorNSt7__cxx1112basic_stringIcSt11char_traitsIcESaIcEEEblmdSaS1_S9_IhSaIhEEvEERKS5_
FNDA:0,_ZN8nlohmann16json_abi_v3_11_314adl_serializerISt8optionalIN3MAS9HarmonicsEEvE7to_jsonERNS0_10basic_jsonISt3mapSt6vectorNSt7__cxx1112basic_stringIcSt11char_traitsIcESaIcEEEblmdSaS1_S9_IhSaIhEEvEERKS5_
FNDA:0,_ZN8nlohmann16json_abi_v3_11_314adl_serializerISt8optionalIN3MAS9ProcessedEEvE7to_jsonERNS0_10basic_jsonISt3mapSt6vectorNSt7__cxx1112basic_stringIcSt11char_traitsIcESaIcEEEblmdSaS1_S9_IhSaIhEEvEERKS5_
FNDA:0,_ZN8nlohmann16json_abi_v3_11_314adl_serializerISt8optionalINSt7__cxx1112basic_stringIcSt11char_traitsIcESaIcEEEEvE7to_jsonERNS0_10basic_jsonISt3mapSt6vectorS8_blmdSaS1_SD_IhSaIhEEvEERKS9_
FNDA:0,_ZN8nlohmann16json_abi_v3_11_314adl_serializerISt8optionalISt3mapINSt7__cxx1112basic_stringIcSt11char_traitsIcESaIcEEEN3MAS26InitialPermeabilitModifierESt4lessIS9_ESaISt4pairIKS9_SB_EEEEvE7to_jsonERNS0_10basic_jsonIS3_St6vectorS9_blmdSaS1_SM_IhSaIhEEvEERKSJ_
FNDA:0,_ZN8nlohmann16json_abi_v3_11_314adl_serializerISt8optionalISt3mapINSt7__cxx1112basic_stringIcSt11char_traitsIcESaIcEEES3_IS9_N3MAS23ScalarMatrixAtFrequencyESt4lessIS9_ESaISt4pairIKS9_SB_EEESD_SaISE_ISF_SI_EEEEvE7to_jsonERNS0_10basic_jsonIS3_St6vectorS9_blmdSaS1_SP_IhSaIhEEvEERKSM_
FNDA:0,_ZN8nlohmann16json_abi_v3_11_314adl_serializerISt8optionalISt3mapINSt7__cxx1112basic_stringIcSt11char_traitsIcESaIcEEES3_IS9_N3MAS28TripoleCapacitancePerWindingESt4lessIS9_ESaISt4pairIKS9_SB_EEESD_SaISE_ISF_SI_EEEEvE7to_jsonERNS0_10basic_jsonIS3_St6vectorS9_blmdSaS1_SP_IhSaIhEEvEERKSM_
FNDA:0,_ZN8nlohmann16json_abi_v3_11_314adl_serializerISt8optionalISt3mapINSt7__cxx1112basic_stringIcSt11char_traitsIcESaIcEEES3_IS9_N3MAS29SixCapacitorNetworkPerWindingESt4lessIS9_ESaISt4pairIKS9_SB_EEESD_SaISE_ISF_SI_EEEEvE7to_jsonERNS0_10basic_jsonIS3_St6vectorS9_blmdSaS1_SP_IhSaIhEEvEERKSM_
FNDA:0,_ZN8nlohmann16json_abi_v3_11_314adl_serializerISt8optionalISt3mapINSt7__cxx1112basic_stringIcSt11char_traitsIcESaIcEEES3_IS9_dSt4lessIS9_ESaISt4pairIKS9_dEEESB_SaISC_ISD_SG_EEEEvE7to_jsonERNS0_10basic_jsonIS3_St6vectorS9_blmdSaS1_SN_IhSaIhEEvEERKSK_
FNDA:0,_ZN8nlohmann16json_abi_v3_11_314adl_serializerISt8optionalISt3mapINSt7__cxx1112basic_stringIcSt11char_traitsIcESaIcEEESt6vectorISt7variantIJSA_IN3MAS15MassLossesPointESaISD_EENSC_28MagnetecCoreLossesMethodDataEEESaISH_EESt4lessIS9_ESaISt4pairIKS9_SJ_EEEEvE7to_jsonERNS0_10basic_jsonIS3_SA_S9_blmdSaS1_SA_IhSaIhEEvEERKSR_
FNDA:0,_ZN8nlohmann16json_abi_v3_11_314adl_serializerISt8optionalISt3mapINSt7__cxx1112basic_stringIcSt11char_traitsIcESaIcEEESt7variantIJN3MAS22DimensionWithToleranceEdEESt4lessIS9_ESaISt4pairIKS9_SD_EEEEvE7to_jsonERNS0_10basic_jsonIS3_St6vectorS9_blmdSaS1_SO_IhSaIhEEvEERKSL_
FNDA:0,_ZN8nlohmann16json_abi_v3_11_314adl_serializerISt8optionalISt6vectorIN3MAS13IsolationSideESaIS5_EEEvE7to_jsonERNS0_10basic_jsonISt3mapS3_NSt7__cxx1112basic_stringIcSt11char_traitsIcESaIcEEEblmdSaS1_S3_IhSaIhEEvEERKS8_
FNDA:0,_ZN8nlohmann16json_abi_v3_11_314adl_serializerISt8optionalISt6vectorIN3MAS14BhCycleElementESaIS5_EEEvE7to_jsonERNS0_10basic_jsonISt3mapS3_NSt7__cxx1112basic_stringIcSt11char_traitsIcESaIcEEEblmdSaS1_S3_IhSaIhEEvEERKS8_
FNDA:0,_ZN8nlohmann16json_abi_v3_11_314adl_serializerISt8optionalISt6vectorIN3MAS14ConnectionTypeESaIS5_EEEvE7to_jsonERNS0_10basic_jsonISt3mapS3_NSt7__cxx1112basic_stringIcSt11char_traitsIcESaIcEEEblmdSaS1_S3_IhSaIhEEvEERKS8_
FNDA:0,_ZN8nlohmann16json_abi_v3_11_314adl_serializerISt8optionalISt6vectorIN3MAS15DistributorInfoESaIS5_EEEvE7to_jsonERNS0_10basic_jsonISt3mapS3_NSt7__cxx1112basic_stringIcSt11char_traitsIcESaIcEEEblmdSaS1_S3_IhSaIhEEvEERKS8_
FNDA:0,_ZN8nlohmann16json_abi_v3_11_314adl_serializerISt8optionalISt6vectorIN3MAS15LossFactorPointESaIS5_EEEvE7to_jsonERNS0_10basic_jsonISt3mapS3_NSt7__cxx1112basic_stringIcSt11char_traitsIcESaIcEEEblmdSaS1_S3_IhSaIhEEvEERKS8_
FNDA:0,_ZN8nlohmann16json_abi_v3_11_314adl_serializerISt8optionalISt6vectorIN3MAS16ResistivityPointESaIS5_EEEvE7to_jsonERNS0_10basic_jsonISt3mapS3_NSt7__cxx1112basic_stringIcSt11char_traitsIcESaIcEEEblmdSaS1_S3_IhSaIhEEvEERKS8_
FNDA:0,_ZN8nlohmann16json_abi_v3_11_314adl_serializerISt8optionalISt6vectorIN3MAS17ConnectionElementESaIS5_EEEvE7to_jsonERNS0_10basic_jsonISt3mapS3_NSt7__cxx1112basic_stringIcSt11char_traitsIcESaIcEEEblmdSaS1_S3_IhSaIhEEvEERKS8_
FNDA:0,_ZN8nlohmann16json_abi_v3_11_314adl_serializerISt8optionalISt6vectorIN3MAS17DielectricVoltageESaIS5_EEEvE7to_jsonERNS0_10basic_jsonISt3mapS3_NSt7__cxx1112basic_stringIcSt11char_traitsIcESaIcEEEblmdSaS1_S3_IhSaIhEEvEERKS8_
FNDA:0,_ZN8nlohmann16json_abi_v3_11_314adl_serializerISt8optionalISt6vectorIN3MAS19InsulationStandardsESaIS5_EEEvE7to_jsonERNS0_10basic_jsonISt3mapS3_NSt7__cxx1112basic_stringIcSt11char_traitsIcESaIcEEEblmdSaS1_S3_IhSaIhEEvEERKS8_
FNDA:0,_ZN8nlohmann16json_abi_v3_11_314adl_serializerISt8optionalISt6vectorIN3MAS20ImpedanceAtFrequencyESaIS5_EEEvE7to_jsonERNS0_10basic_jsonISt3mapS3_NSt7__cxx1112basic_stringIcSt11char_traitsIcESaIcEEEblmdSaS1_S3_IhSaIhEEvEERKS8_
FNDA:0,_ZN8nlohmann16json_abi_v3_11_314adl_serializerISt8optionalISt6vectorIN3MAS20PinWindingConnectionESaIS5_EEEvE7to_jsonERNS0_10basic_jsonISt3mapS3_NSt7__cxx1112basic_stringIcSt11char_traitsIcESaIcEEEblmdSaS1_S3_IhSaIhEEvEERKS8_
FNDA:0,_ZN8nlohmann16json_abi_v3_11_314adl_serializerISt8optionalISt6vectorIN3MAS21VolumetricLossesPointESaIS5_EEEvE7to_jsonERNS0_10basic_jsonISt3mapS3_NSt7__cxx1112basic_stringIcSt11char_traitsIcESaIcEEEblmdSaS1_S3_IhSaIhEEvEERKS8_
FNDA:0,_ZN8nlohmann16json_abi_v3_11_314adl_serializerISt8optionalISt6vectorIN3MAS22AirGapReluctanceOutputESaIS5_EEEvE7to_jsonERNS0_10basic_jsonISt3mapS3_NSt7__cxx1112basic_stringIcSt11char_traitsIcESaIcEEEblmdSaS1_S3_IhSaIhEEvEERKS8_
FNDA:0,_ZN8nlohmann16json_abi_v3_11_314adl_serializerISt8optionalISt6vectorIN3MAS22DimensionWithToleranceESaIS5_EEEvE7to_jsonERNS0_10basic_jsonISt3mapS3_NSt7__cxx1112basic_stringIcSt11char_traitsIcESaIcEEEblmdSaS1_S3_IhSaIhEEvEERKS8_
FNDA:0,_ZN8nlohmann16json_abi_v3_11_314adl_serializerISt8optionalISt6vectorIN3MAS22StrayCapacitanceOutputESaIS5_EEEvE7to_jsonERNS0_10basic_jsonISt3mapS3_NSt7__cxx1112basic_stringIcSt11char_traitsIcESaIcEEEblmdSaS1_S3_IhSaIhEEvEERKS8_
FNDA:0,_ZN8nlohmann16json_abi_v3_11_314adl_serializerISt8optionalISt6vectorIN3MAS23ScalarMatrixAtFrequencyESaIS5_EEEvE7to_jsonERNS0_10basic_jsonISt3mapS3_NSt7__cxx1112basic_stringIcSt11char_traitsIcESaIcEEEblmdSaS1_S3_IhSaIhEEvEERKS8_
FNDA:0,_ZN8nlohmann16json_abi_v3_11_314adl_serializerISt8optionalISt6vectorIN3MAS23WindingLossesPerElementESaIS5_EEEvE7to_jsonERNS0_10basic_jsonISt3mapS3_NSt7__cxx1112basic_stringIcSt11char_traitsIcESaIcEEEblmdSaS1_S3_IhSaIhEEvEERKS8_
FNDA:0,_ZN8nlohmann16json_abi_v3_11_314adl_serializerISt8optionalISt6vectorIN3MAS24ComplexMatrixAtFrequencyESaIS5_EEEvE7to_jsonERNS0_10basic_jsonISt3mapS3_NSt7__cxx1112basic_stringIcSt11char_traitsIcESaIcEEEblmdSaS1_S3_IhSaIhEEvEERKS8_
FNDA:0,_ZN8nlohmann16json_abi_v3_11_314adl_serializerISt8optionalISt6vectorIN3MAS26ThermalConductivityElementESaIS5_EEEvE7to_jsonERNS0_10basic_jsonISt3mapS3_NSt7__cxx1112basic_stringIcSt11char_traitsIcESaIcEEEblmdSaS1_S3_IhSaIhEEvEERKS8_
FNDA:0,_ZN8nlohmann16json_abi_v3_11_314adl_serializerISt8optionalISt6vectorIN3MAS33CoreGeometricalDescriptionElementESaIS5_EEEvE7to_jsonERNS0_10basic_jsonISt3mapS3_NSt7__cxx1112basic_stringIcSt11char_traitsIcESaIcEEEblmdSaS1_S3_IhSaIhEEvEERKS8_
FNDA:0,_ZN8nlohmann16json_abi_v3_11_314adl_serializerISt8optionalISt6vectorIN3MAS35SteinmetzCoreLossesMethodRangeDatumESaIS5_EEEvE7to_jsonERNS0_10basic_jsonISt3mapS3_NSt7__cxx1112basic_stringIcSt11char_traitsIcESaIcEEEblmdSaS1_S3_IhSaIhEEvEERKS8_
FNDA:0,_ZN8nlohmann16json_abi_v3_11_314adl_serializerISt8optionalISt6vectorIN3MAS3PinESaIS5_EEEvE7to_jsonERNS0_10basic_jsonISt3mapS3_NSt7__cxx1112basic_stringIcSt11char_traitsIcESaIcEEEblmdSaS1_S3_IhSaIhEEvEERKS8_
FNDA:0,_ZN8nlohmann16json_abi_v3_11_314adl_serializerISt8optionalISt6vectorIN3MAS4TurnESaIS5_EEEvE7to_jsonERNS0_10basic_jsonISt3mapS3_NSt7__cxx1112basic_stringIcSt11char_traitsIcESaIcEEEblmdSaS1_S3_IhSaIhEEvEERKS8_
FNDA:0,_ZN8nlohmann16json_abi_v3_11_314adl_serializerISt8optionalISt6vectorIN3MAS5GroupESaIS5_EEEvE7to_jsonERNS0_10basic_jsonISt3mapS3_NSt7__cxx1112basic_stringIcSt11char_traitsIcESaIcEEEblmdSaS1_S3_IhSaIhEEvEERKS8_
FNDA:0,_ZN8nlohmann16json_abi_v3_11_314adl_serializerISt8optionalISt6vectorIN3MAS5LayerESaIS5_EEEvE7to_jsonERNS0_10basic_jsonISt3mapS3_NSt7__cxx1112basic_stringIcSt11char_traitsIcESaIcEEEblmdSaS1_S3_IhSaIhEEvEERKS8_
FNDA:0,_ZN8nlohmann16json_abi_v3_11_314adl_serializerISt8optionalISt6vectorIN3MAS7SectionESaIS5_EEEvE7to_jsonERNS0_10basic_jsonISt3mapS3_NSt7__cxx1112basic_stringIcSt11char_traitsIcESaIcEEEblmdSaS1_S3_IhSaIhEEvEERKS8_
FNDA:0,_ZN8nlohmann16json_abi_v3_11_314adl_serializerISt8optionalISt6vectorIN3MAS9MachiningESaIS5_EEEvE7to_jsonERNS0_10basic_jsonISt3mapS3_NSt7__cxx1112basic_stringIcSt11char_traitsIcESaIcEEEblmdSaS1_S3_IhSaIhEEvEERKS8_
FNDA:0,_ZN8nlohmann16json_abi_v3_11_314adl_serializerISt8optionalISt6vectorINSt7__cxx1112basic_stringIcSt11char_traitsIcESaIcEEESaIS9_EEEvE7to_jsonERNS0_10basic_jsonISt3mapS3_S9_blmdSaS1_S3_IhSaIhEEvEERKSC_
FNDA:0,_ZN8nlohmann16json_abi_v3_11_314adl_serializerISt8optionalISt6vectorIS3_IdSaIdEESaIS5_EEEvE7to_jsonERNS0_10basic_jsonISt3mapS3_NSt7__cxx1112basic_stringIcSt11char_traitsIcESaIcEEEblmdSaS1_S3_IhSaIhEEvEERKS8_
FNDA:0,_ZN8nlohmann16json_abi_v3_11_314adl_serializerISt8optionalISt6vectorIdSaIdEEEvE7to_jsonERNS0_10basic_jsonISt3mapS3_NSt7__cxx1112basic_stringIcSt11char_traitsIcESaIcEEEblmdSaS1_S3_IhSaIhEEvEERKS6_
FNDA:0,_ZN8nlohmann16json_abi_v3_11_314adl_serializerISt8optionalISt6vectorIlSaIlEEEvE7to_jsonERNS0_10basic_jsonISt3mapS3_NSt7__cxx1112basic_stringIcSt11char_traitsIcESaIcEEEblmdSaS1_S3_IhSaIhEEvEERKS6_
FNDA:0,_ZN8nlohmann16json_abi_v3_11_314adl_serializerISt8optionalISt7variantIJN3MAS12CoreMaterialENSt7__cxx1112basic_stringIcSt11char_traitsIcESaIcEEEEEEvE7to_jsonERNS0_10basic_jsonISt3mapSt6vectorSB_blmdSaS1_SH_IhSaIhEEvEERKSD_
FNDA:0,_ZN8nlohmann16json_abi_v3_11_314adl_serializerISt8optionalISt7variantIJN3MAS12WireMaterialENSt7__cxx1112basic_stringIcSt11char_traitsIcESaIcEEEEEEvE7to_jsonERNS0_10basic_jsonISt3mapSt6vectorSB_blmdSaS1_SH_IhSaIhEEvEERKSD_
FNDA:0,_ZN8nlohmann16json_abi_v3_11_314adl_serializerISt8optionalISt7variantIJN3MAS18InsulationMaterialENSt7__cxx1112basic_stringIcSt11char_traitsIcESaIcEEEEEEvE7to_jsonERNS0_10basic_jsonISt3mapSt6vectorSB_blmdSaS1_SH_IhSaIhEEvEERKSD_
FNDA:0,_ZN8nlohmann16json_abi_v3_11_314adl_serializerISt8optionalISt7variantIJN3MAS21InsulationWireCoatingENSt7__cxx1112basic_stringIcSt11char_traitsIcESaIcEEEEEEvE7to_jsonERNS0_10basic_jsonISt3mapSt6vectorSB_blmdSaS1_SH_IhSaIhEEvEERKSD_
FNDA:0,_ZN8nlohmann16json_abi_v3_11_314adl_serializerISt8optionalISt7variantIJN3MAS9CoreShapeENSt7__cxx1112basic_stringIcSt11char_traitsIcESaIcEEEEEEvE7to_jsonERNS0_10basic_jsonISt3mapSt6vectorSB_blmdSaS1_SH_IhSaIhEEvEERKSD_
FNDA:0,_ZN8nlohmann16json_abi_v3_11_314adl_serializerISt8optionalISt7variantIJN3MAS9WireRoundENSt7__cxx1112basic_stringIcSt11char_traitsIcESaIcEEEEEEvE7to_jsonERNS0_10basic_jsonISt3mapSt6vectorSB_blmdSaS1_SH_IhSaIhEEvEERKSD_
FNDA:0,_ZN8nlohmann16json_abi_v3_11_314adl_serializerISt8optionalISt7variantIJSt6vectorIN3MAS17PermeabilityPointESaIS6_EES6_EEEvE7to_jsonERNS0_10basic_jsonISt3mapS4_NSt7__cxx1112basic_stringIcSt11char_traitsIcESaIcEEEblmdSaS1_S4_IhSaIhEEvEERKSA_
FNDA:0,_ZN8nlohmann16json_abi_v3_11_314adl_serializerISt8optionalISt7variantIJSt6vectorIdSaIdEEN3MAS10MarginInfoEEEEvE7to_jsonERNS0_10basic_jsonISt3mapS4_NSt7__cxx1112basic_stringIcSt11char_traitsIcESaIcEEEblmdSaS1_S4_IhSaIhEEvEERKSA_
FNDA:0,_ZN8nlohmann16json_abi_v3_11_314adl_serializerISt8optionalIbEvE7to_jsonERNS0_10basic_jsonISt3mapSt6vectorNSt7__cxx1112basic_stringIcSt11char_traitsIcESaIcEEEblmdSaS1_S7_IhSaIhEEvEERKS3_
FNDA:0,_ZN8nlohmann16json_abi_v3_11_314adl_serializerISt8optionalIdEvE7to_jsonERNS0_10basic_jsonISt3mapSt6vectorNSt7__cxx1112basic_stringIcSt11char_traitsIcESaIcEEEblmdSaS1_S7_IhSaIhEEvEERKS3_
FNDA:0,_ZN8nlohmann16json_abi_v3_11_314adl_serializerISt8optionalIlEvE7to_jsonERNS0_10basic_jsonISt3mapSt6vectorNSt7__cxx1112basic_stringIcSt11char_traitsIcESaIcEEEblmdSaS1_S7_IhSaIhEEvEERKS3_
FNDA:0,_ZNK3MAS18BaseOperatingPoint19get_output_currentsEv
FNDA:0,_ZNK3MAS26ThermalConductivityElement15get_temperatureEv
FNDA:0,_ZN3MAS26ThermalConductivityElement15set_temperatureERKd
FNDA:0,_ZNK3MAS26ThermalConductivityElement9get_valueEv
FNDA:0,_ZN3MAS26ThermalConductivityElement9set_valueERKd
FNDA:0,_ZN3MAS18BaseOperatingPoint19set_output_currentsERKSt6vectorIdSaIdEE
FNDA:0,_ZN3MAS12WireMaterialC2Ev
FNDA:0,_ZN3MAS12WireMaterialD0Ev
FNDA:0,_ZN3MAS12WireMaterialD2Ev
FNDA:0,_ZNK3MAS12WireMaterial8get_nameB5cxx11Ev
FNDA:0,_ZN3MAS12WireMaterial8set_nameERKNSt7__cxx1112basic_stringIcSt11char_traitsIcESaIcEEE
FNDA:0,_ZNK3MAS12WireMaterial16get_permeabilityEv
FNDA:0,_ZN3MAS12WireMaterial16set_permeabilityERKd
FNDA:0,_ZNK3MAS12WireMaterial15get_resistivityEv
FNDA:0,_ZN3MAS12WireMaterial15set_resistivityERKNS_11ResistivityE
FNDA:0,_ZNK3MAS12WireMaterial24get_thermal_conductivityEv
FNDA:0,_ZN3MAS12WireMaterial24set_thermal_conductivityESt8optionalISt6vectorINS_26ThermalConductivityElementESaIS3_EEE
FNDA:0,_ZNK3MAS18BaseOperatingPoint19get_output_voltagesEv
FNDA:0,_ZN3MAS9WireRoundC2Ev
FNDA:0,_ZN3MAS9WireRoundD0Ev
FNDA:0,_ZN3MAS9WireRoundD2Ev
FNDA:0,_ZN3MAS18BaseOperatingPoint19set_output_voltagesERKSt6vectorIdSaIdEE
FNDA:0,_ZNK3MAS9WireRound23get_conducting_diameterEv
FNDA:0,_ZN3MAS9WireRound23set_conducting_diameterERKNS_22DimensionWithToleranceE
FNDA:0,_ZNK3MAS9WireRound12get_materialB5cxx11Ev
FNDA:0,_ZN3MAS9WireRound12set_materialESt8optionalISt7variantIJNS_12WireMaterialENSt7__cxx1112basic_stringIcSt11char_traitsIcESaIcEEEEEE
FNDA:0,_ZNK3MAS9WireRound18get_outer_diameterEv
FNDA:0,_ZN3MAS9WireRound18set_outer_diameterESt8optionalINS_22DimensionWithToleranceEE
FNDA:0,_ZNK3MAS9WireRound11get_coatingB5cxx11Ev
FNDA:0,_ZN3MAS9WireRound11set_coatingESt8optionalISt7variantIJNS_21InsulationWireCoatingENSt7__cxx1112basic_stringIcSt11char_traitsIcESaIcEEEEEE
FNDA:0,_ZNK3MAS9WireRound19get_conducting_areaEv
FNDA:0,_ZN3MAS9WireRound19set_conducting_areaESt8optionalINS_22DimensionWithToleranceEE
FNDA:0,_ZNK3MAS9WireRound21get_manufacturer_infoEv
FNDA:0,_ZN3MAS9WireRound21set_manufacturer_infoESt8optionalINS_16ManufacturerInfoEE
FNDA:0,_ZNK3MAS9WireRound8get_nameB5cxx11Ev
FNDA:0,_ZN3MAS9WireRound8set_nameESt8optionalINSt7__cxx1112basic_stringIcSt11char_traitsIcESaIcEEEE
FNDA:0,_ZNK3MAS9WireRound21get_number_conductorsEv
FNDA:0,_ZN3MAS9WireRound21set_number_conductorsESt8optionalIlE
FNDA:0,_ZNK3MAS9WireRound12get_standardEv
FNDA:0,_ZN3MAS9WireRound12set_standardESt8optionalINS_12WireStandardEE
FNDA:0,_ZNK3MAS18BaseOperatingPoint23get_switching_frequencyEv
FNDA:0,_ZNK3MAS9WireRound17get_standard_nameB5cxx11Ev
FNDA:0,_ZN3MAS9WireRound17set_standard_nameESt8optionalINSt7__cxx1112basic_stringIcSt11char_traitsIcESaIcEEEE
FNDA:0,_ZNK3MAS9WireRound8get_typeEv
FNDA:0,_ZN3MAS9WireRound8set_typeERKNS_8WireTypeE
FNDA:0,_ZN3MAS18BaseOperatingPoint23set_switching_frequencyERKd
FNDA:1,_ZN3MAS4WireC2Ev
FNDA:0,_ZN3MAS4WireD0Ev
FNDA:1,_ZN3MAS4WireD2Ev
FNDA:0,_ZNK3MAS4Wire23get_conducting_diameterEv
FNDA:0,_ZN3MAS4Wire23set_conducting_diameterESt8optionalINS_22DimensionWithToleranceEE
FNDA:0,_ZNK3MAS4Wire12get_materialB5cxx11Ev
FNDA:0,_ZN3MAS4Wire12set_materialESt8optionalISt7variantIJNS_12WireMaterialENSt7__cxx1112basic_stringIcSt11char_traitsIcESaIcEEEEEE
FNDA:0,_ZNK3MAS4Wire18get_outer_diameterEv
FNDA:0,_ZN3MAS4Wire18set_outer_diameterESt8optionalINS_22DimensionWithToleranceEE
FNDA:0,_ZNK3MAS4Wire11get_coatingB5cxx11Ev
FNDA:0,_ZN3MAS4Wire11set_coatingESt8optionalISt7variantIJNS_21InsulationWireCoatingENSt7__cxx1112basic_stringIcSt11char_traitsIcESaIcEEEEEE
FNDA:0,_ZNK3MAS4Wire19get_conducting_areaEv
FNDA:0,_ZN3MAS4Wire19set_conducting_areaESt8optionalINS_22DimensionWithToleranceEE
FNDA:0,_ZNK3MAS4Wire21get_manufacturer_infoEv
FNDA:0,_ZN3MAS4Wire21set_manufacturer_infoESt8optionalINS_16ManufacturerInfoEE
FNDA:0,_ZNK3MAS4Wire8get_nameB5cxx11Ev
FNDA:0,_ZN3MAS4Wire8set_nameESt8optionalINSt7__cxx1112basic_stringIcSt11char_traitsIcESaIcEEEE
FNDA:0,_ZNK3MAS4Wire21get_number_conductorsEv
FNDA:0,_ZN3MAS4Wire21set_number_conductorsESt8optionalIlE
FNDA:0,_ZNK3MAS4Wire12get_standardEv
FNDA:0,_ZN3MAS4Wire12set_standardESt8optionalINS_12WireStandardEE
FNDA:0,_ZN3MAS5BoostC2Ev
FNDA:0,_ZNK3MAS4Wire17get_standard_nameB5cxx11Ev
FNDA:0,_ZN3MAS4Wire17set_standard_nameESt8optionalINSt7__cxx1112basic_stringIcSt11char_traitsIcESaIcEEEE
FNDA:0,_ZNK3MAS4Wire8get_typeEv
FNDA:0,_ZN3MAS4Wire8set_typeERKNS_8WireTypeE
FNDA:0,_ZN3MAS5BoostD0Ev
FNDA:0,_ZN3MAS5BoostD2Ev
FNDA:0,_ZNK3MAS4Wire21get_conducting_heightEv
FNDA:0,_ZN3MAS4Wire21set_conducting_heightESt8optionalINS_22DimensionWithToleranceEE
FNDA:0,_ZNK3MAS4Wire20get_conducting_widthEv
FNDA:0,_ZN3MAS4Wire20set_conducting_widthESt8optionalINS_22DimensionWithToleranceEE
FNDA:0,_ZNK3MAS4Wire16get_outer_heightEv
FNDA:0,_ZN3MAS4Wire16set_outer_heightESt8optionalINS_22DimensionWithToleranceEE
FNDA:0,_ZNK3MAS4Wire15get_outer_widthEv
FNDA:0,_ZN3MAS4Wire15set_outer_widthESt8optionalINS_22DimensionWithToleranceEE
FNDA:0,_ZNK3MAS4Wire15get_edge_radiusEv
FNDA:0,_ZN3MAS4Wire15set_edge_radiusESt8optionalINS_22DimensionWithToleranceEE
FNDA:0,_ZNK3MAS4Wire10get_strandB5cxx11Ev
FNDA:0,_ZN3MAS4Wire10set_strandESt8optionalISt7variantIJNS_9WireRoundENSt7__cxx1112basic_stringIcSt11char_traitsIcESaIcEEEEEE
FNDA:1,_ZN3MAS25CoilFunctionalDescriptionC2Ev
FNDA:0,_ZN3MAS25CoilFunctionalDescriptionD0Ev
FNDA:1,_ZN3MAS25CoilFunctionalDescriptionD2Ev
FNDA:0,_ZNK3MAS25CoilFunctionalDescription15get_connectionsEv
FNDA:0,_ZN3MAS25CoilFunctionalDescription15set_connectionsESt8optionalISt6vectorINS_17ConnectionElementESaIS3_EEE
FNDA:0,_ZNK3MAS25CoilFunctionalDescription18get_isolation_sideEv
FNDA:1,_ZN3MAS25CoilFunctionalDescription18set_isolation_sideERKNS_13IsolationSideE
FNDA:0,_ZNK3MAS25CoilFunctionalDescription8get_nameB5cxx11Ev
FNDA:1,_ZN3MAS25CoilFunctionalDescription8set_nameERKNSt7__cxx1112basic_stringIcSt11char_traitsIcESaIcEEE
FNDA:0,_ZNK3MAS25CoilFunctionalDescription20get_number_parallelsEv
FNDA:1,_ZN3MAS25CoilFunctionalDescription20set_number_parallelsERKl
FNDA:0,_ZNK3MAS25CoilFunctionalDescription16get_number_turnsEv
FNDA:1,_ZN3MAS25CoilFunctionalDescription16set_number_turnsERKl
FNDA:0,_ZNK3MAS25CoilFunctionalDescription8get_wireB5cxx11Ev
FNDA:1,_ZN3MAS25CoilFunctionalDescription8set_wireERKSt7variantIJNS_4WireENSt7__cxx1112basic_stringIcSt11char_traitsIcESaIcEEEEE
FNDA:0,_ZNK3MAS25CoilFunctionalDescription14get_wound_withB5cxx11Ev
FNDA:0,_ZN3MAS25CoilFunctionalDescription14set_wound_withESt8optionalISt6vectorINSt7__cxx1112basic_stringIcSt11char_traitsIcESaIcEEESaIS8_EEE
FNDA:0,_ZN3MAS14PartialWindingC2Ev
FNDA:0,_ZN3MAS14PartialWindingD0Ev
FNDA:0,_ZN3MAS14PartialWindingD2Ev
FNDA:0,_ZNK3MAS14PartialWinding15get_connectionsEv
FNDA:0,_ZN3MAS14PartialWinding15set_connectionsESt8optionalISt6vectorINS_17ConnectionElementESaIS3_EEE
FNDA:0,_ZNK3MAS14PartialWinding24get_parallels_proportionEv
FNDA:0,_ZN3MAS14PartialWinding24set_parallels_proportionERKSt6vectorIdSaIdEE
FNDA:0,_ZNK3MAS14PartialWinding11get_windingB5cxx11Ev
FNDA:0,_ZN3MAS14PartialWinding11set_windingERKNSt7__cxx1112basic_stringIcSt11char_traitsIcESaIcEEE
FNDA:0,_ZNK3MAS5Boost24get_current_ripple_ratioEv
FNDA:0,_ZN3MAS5GroupC2Ev
FNDA:0,_ZN3MAS5GroupD0Ev
FNDA:0,_ZN3MAS5GroupD2Ev
FNDA:0,_ZN8nlohmann16json_abi_v3_11_314adl_serializerISt8optionalIN3MAS10TopologiesEEvE9from_jsonERKNS0_10basic_jsonISt3mapSt6vectorNSt7__cxx1112basic_stringIcSt11char_traitsIcESaIcEEEblmdSaS1_S9_IhSaIhEEvEE
FNDA:0,_ZN8nlohmann16json_abi_v3_11_314adl_serializerISt8optionalIN3MAS11ApplicationEEvE9from_jsonERKNS0_10basic_jsonISt3mapSt6vectorNSt7__cxx1112basic_stringIcSt11char_traitsIcESaIcEEEblmdSaS1_S9_IhSaIhEEvEE
FNDA:0,_ZN8nlohmann16json_abi_v3_11_314adl_serializerISt8optionalIN3MAS11ColumnShapeEEvE9from_jsonERKNS0_10basic_jsonISt3mapSt6vectorNSt7__cxx1112basic_stringIcSt11char_traitsIcESaIcEEEblmdSaS1_S9_IhSaIhEEvEE
FNDA:0,_ZN8nlohmann16json_abi_v3_11_314adl_serializerISt8optionalIN3MAS11LlcResonantEEvE9from_jsonERKNS0_10basic_jsonISt3mapSt6vectorNSt7__cxx1112basic_stringIcSt11char_traitsIcESaIcEEEblmdSaS1_S9_IhSaIhEEvEE
FNDA:0,_ZN8nlohmann16json_abi_v3_11_314adl_serializerISt8optionalIN3MAS11OhmicLossesEEvE9from_jsonERKNS0_10basic_jsonISt3mapSt6vectorNSt7__cxx1112basic_stringIcSt11char_traitsIcESaIcEEEblmdSaS1_S9_IhSaIhEEvEE
FNDA:0,_ZN8nlohmann16json_abi_v3_11_314adl_serializerISt8optionalIN3MAS11VoltageTypeEEvE9from_jsonERKNS0_10basic_jsonISt3mapSt6vectorNSt7__cxx1112basic_stringIcSt11char_traitsIcESaIcEEEblmdSaS1_S9_IhSaIhEEvEE
FNDA:0,_ZN8nlohmann16json_abi_v3_11_314adl_serializerISt8optionalIN3MAS12CllcResonantEEvE9from_jsonERKNS0_10basic_jsonISt3mapSt6vectorNSt7__cxx1112basic_stringIcSt11char_traitsIcESaIcEEEblmdSaS1_S9_IhSaIhEEvEE
FNDA:0,_ZN8nlohmann16json_abi_v3_11_314adl_serializerISt8optionalIN3MAS12FlybackModesEEvE9from_jsonERKNS0_10basic_jsonISt3mapSt6vectorNSt7__cxx1112basic_stringIcSt11char_traitsIcESaIcEEEblmdSaS1_S9_IhSaIhEEvEE
FNDA:0,_ZN8nlohmann16json_abi_v3_11_314adl_serializerISt8optionalIN3MAS12IsolatedBuckEEvE9from_jsonERKNS0_10basic_jsonISt3mapSt6vectorNSt7__cxx1112basic_stringIcSt11char_traitsIcESaIcEEEblmdSaS1_S9_IhSaIhEEvEE
FNDA:0,_ZN8nlohmann16json_abi_v3_11_314adl_serializerISt8optionalIN3MAS12WindingStyleEEvE9from_jsonERKNS0_10basic_jsonISt3mapSt6vectorNSt7__cxx1112basic_stringIcSt11char_traitsIcESaIcEEEblmdSaS1_S9_IhSaIhEEvEE
FNDA:0,_ZN8nlohmann16json_abi_v3_11_314adl_serializerISt8optionalIN3MAS12WireStandardEEvE9from_jsonERKNS0_10basic_jsonISt3mapSt6vectorNSt7__cxx1112basic_stringIcSt11char_traitsIcESaIcEEEblmdSaS1_S9_IhSaIhEEvEE
FNDA:0,_ZN8nlohmann16json_abi_v3_11_314adl_serializerISt8optionalIN3MAS13CoilAlignmentEEvE9from_jsonERKNS0_10basic_jsonISt3mapSt6vectorNSt7__cxx1112basic_stringIcSt11char_traitsIcESaIcEEEblmdSaS1_S9_IhSaIhEEvEE
FNDA:0,_ZN8nlohmann16json_abi_v3_11_314adl_serializerISt8optionalIN3MAS13LlcBridgeTypeEEvE9from_jsonERKNS0_10basic_jsonISt3mapSt6vectorNSt7__cxx1112basic_stringIcSt11char_traitsIcESaIcEEEblmdSaS1_S9_IhSaIhEEvEE
FNDA:0,_ZN8nlohmann16json_abi_v3_11_314adl_serializerISt8optionalIN3MAS13WaveformLabelEEvE9from_jsonERKNS0_10basic_jsonISt3mapSt6vectorNSt7__cxx1112basic_stringIcSt11char_traitsIcESaIcEEEblmdSaS1_S9_IhSaIhEEvEE
FNDA:0,_ZN8nlohmann16json_abi_v3_11_314adl_serializerISt8optionalIN3MAS14ConnectionTypeEEvE9from_jsonERKNS0_10basic_jsonISt3mapSt6vectorNSt7__cxx1112basic_stringIcSt11char_traitsIcESaIcEEEblmdSaS1_S9_IhSaIhEEvEE
FNDA:0,_ZN8nlohmann16json_abi_v3_11_314adl_serializerISt8optionalIN3MAS14InsulationTypeEEvE9from_jsonERKNS0_10basic_jsonISt3mapSt6vectorNSt7__cxx1112basic_stringIcSt11char_traitsIcESaIcEEEblmdSaS1_S9_IhSaIhEEvEE
FNDA:0,_ZN8nlohmann16json_abi_v3_11_314adl_serializerISt8optionalIN3MAS14ModulationTypeEEvE9from_jsonERKNS0_10basic_jsonISt3mapSt6vectorNSt7__cxx1112basic_stringIcSt11char_traitsIcESaIcEEEblmdSaS1_S9_IhSaIhEEvEE
FNDA:0,_ZN8nlohmann16json_abi_v3_11_314adl_serializerISt8optionalIN3MAS14OperatingPointEEvE9from_jsonERKNS0_10basic_jsonISt3mapSt6vectorNSt7__cxx1112basic_stringIcSt11char_traitsIcESaIcEEEblmdSaS1_S9_IhSaIhEEvEE
FNDA:0,_ZN8nlohmann16json_abi_v3_11_314adl_serializerISt8optionalIN3MAS14SubApplicationEEvE9from_jsonERKNS0_10basic_jsonISt3mapSt6vectorNSt7__cxx1112basic_stringIcSt11char_traitsIcESaIcEEEblmdSaS1_S9_IhSaIhEEvEE
FNDA:0,_ZN8nlohmann16json_abi_v3_11_314adl_serializerISt8optionalIN3MAS15FrequencyFactorEEvE9from_jsonERKNS0_10basic_jsonISt3mapSt6vectorNSt7__cxx1112basic_stringIcSt11char_traitsIcESaIcEEEblmdSaS1_S9_IhSaIhEEvEE
FNDA:0,_ZN8nlohmann16json_abi_v3_11_314adl_serializerISt8optionalIN3MAS15ImpedanceOutputEEvE9from_jsonERKNS0_10basic_jsonISt3mapSt6vectorNSt7__cxx1112basic_stringIcSt11char_traitsIcESaIcEEEblmdSaS1_S9_IhSaIhEEvEE
FNDA:0,_ZN8nlohmann16json_abi_v3_11_314adl_serializerISt8optionalIN3MAS15MagneticCircuitEEvE9from_jsonERKNS0_10basic_jsonISt3mapSt6vectorNSt7__cxx1112basic_stringIcSt11char_traitsIcESaIcEEEblmdSaS1_S9_IhSaIhEEvEE
FNDA:0,_ZN8nlohmann16json_abi_v3_11_314adl_serializerISt8optionalIN3MAS15PollutionDegreeEEvE9from_jsonERKNS0_10basic_jsonISt3mapSt6vectorNSt7__cxx1112basic_stringIcSt11char_traitsIcESaIcEEEblmdSaS1_S9_IhSaIhEEvEE
FNDA:0,_ZN8nlohmann16json_abi_v3_11_314adl_serializerISt8optionalIN3MAS15TurnOrientationEEvE9from_jsonERKNS0_10basic_jsonISt3mapSt6vectorNSt7__cxx1112basic_stringIcSt11char_traitsIcESaIcEEEblmdSaS1_S9_IhSaIhEEvEE
FNDA:0,_ZN8nlohmann16json_abi_v3_11_314adl_serializerISt8optionalIN3MAS16CoordinateSystemEEvE9from_jsonERKNS0_10basic_jsonISt3mapSt6vectorNSt7__cxx1112basic_stringIcSt11char_traitsIcESaIcEEEblmdSaS1_S9_IhSaIhEEvEE
FNDA:0,_ZN8nlohmann16json_abi_v3_11_314adl_serializerISt8optionalIN3MAS16CoreLossesOutputEEvE9from_jsonERKNS0_10basic_jsonISt3mapSt6vectorNSt7__cxx1112basic_stringIcSt11char_traitsIcESaIcEEEblmdSaS1_S9_IhSaIhEEvEE
FNDA:0,_ZN8nlohmann16json_abi_v3_11_314adl_serializerISt8optionalIN3MAS16DualActiveBridgeEEvE9from_jsonERKNS0_10basic_jsonISt3mapSt6vectorNSt7__cxx1112basic_stringIcSt11char_traitsIcESaIcEEEblmdSaS1_S9_IhSaIhEEvEE
FNDA:0,_ZN8nlohmann16json_abi_v3_11_314adl_serializerISt8optionalIN3MAS16InductanceOutputEEvE9from_jsonERKNS0_10basic_jsonISt3mapSt6vectorNSt7__cxx1112basic_stringIcSt11char_traitsIcESaIcEEEblmdSaS1_S9_IhSaIhEEvEE
FNDA:0,_ZN8nlohmann16json_abi_v3_11_314adl_serializerISt8optionalIN3MAS16ManufacturerInfoEEvE9from_jsonERKNS0_10basic_jsonISt3mapSt6vectorNSt7__cxx1112basic_stringIcSt11char_traitsIcESaIcEEEblmdSaS1_S9_IhSaIhEEvEE
FNDA:0,_ZN8nlohmann16json_abi_v3_11_314adl_serializerISt8optionalIN3MAS16SignalDescriptorEEvE9from_jsonERKNS0_10basic_jsonISt3mapSt6vectorNSt7__cxx1112basic_stringIcSt11char_traitsIcESaIcEEEblmdSaS1_S9_IhSaIhEEvEE
FNDA:0,_ZN8nlohmann16json_abi_v3_11_314adl_serializerISt8optionalIN3MAS16TemperaturePointEEvE9from_jsonERKNS0_10basic_jsonISt3mapSt6vectorNSt7__cxx1112basic_stringIcSt11char_traitsIcESaIcEEEblmdSaS1_S9_IhSaIhEEvEE
FNDA:0,_ZN8nlohmann16json_abi_v3_11_314adl_serializerISt8optionalIN3MAS16WiringTechnologyEEvE9from_jsonERKNS0_10basic_jsonISt3mapSt6vectorNSt7__cxx1112basic_stringIcSt11char_traitsIcESaIcEEEblmdSaS1_S9_IhSaIhEEvEE
FNDA:0,_ZN8nlohmann16json_abi_v3_11_314adl_serializerISt8optionalIN3MAS17IsolatedBuckBoostEEvE9from_jsonERKNS0_10basic_jsonISt3mapSt6vectorNSt7__cxx1112basic_stringIcSt11char_traitsIcESaIcEEEblmdSaS1_S9_IhSaIhEEvEE
FNDA:0,_ZN8nlohmann16json_abi_v3_11_314adl_serializerISt8optionalIN3MAS17MaximumDimensionsEEvE9from_jsonERKNS0_10basic_jsonISt3mapSt6vectorNSt7__cxx1112basic_stringIcSt11char_traitsIcESaIcEEEblmdSaS1_S9_IhSaIhEEvEE
FNDA:0,_ZN8nlohmann16json_abi_v3_11_314adl_serializerISt8optionalIN3MAS17PsfbRectifierTypeEEvE9from_jsonERKNS0_10basic_jsonISt3mapSt6vectorNSt7__cxx1112basic_stringIcSt11char_traitsIcESaIcEEEblmdSaS1_S9_IhSaIhEEvEE
FNDA:0,_ZN8nlohmann16json_abi_v3_11_314adl_serializerISt8optionalIN3MAS17TemperatureFactorEEvE9from_jsonERKNS0_10basic_jsonISt3mapSt6vectorNSt7__cxx1112basic_stringIcSt11char_traitsIcESaIcEEEblmdSaS1_S9_IhSaIhEEvEE
FNDA:0,_ZN8nlohmann16json_abi_v3_11_314adl_serializerISt8optionalIN3MAS17TemperatureOutputEEvE9from_jsonERKNS0_10basic_jsonISt3mapSt6vectorNSt7__cxx1112basic_stringIcSt11char_traitsIcESaIcEEEblmdSaS1_S9_IhSaIhEEvEE
FNDA:0,_ZN8nlohmann16json_abi_v3_11_314adl_serializerISt8optionalIN3MAS18CurrentTransformerEEvE9from_jsonERKNS0_10basic_jsonISt3mapSt6vectorNSt7__cxx1112basic_stringIcSt11char_traitsIcESaIcEEEblmdSaS1_S9_IhSaIhEEvEE
FNDA:0,_ZN8nlohmann16json_abi_v3_11_314adl_serializerISt8optionalIN3MAS18WindingLossElementEEvE9from_jsonERKNS0_10basic_jsonISt3mapSt6vectorNSt7__cxx1112basic_stringIcSt11char_traitsIcESaIcEEEblmdSaS1_S9_IhSaIhEEvEE
FNDA:0,_ZN8nlohmann16json_abi_v3_11_314adl_serializerISt8optionalIN3MAS18WindingOrientationEEvE9from_jsonERKNS0_10basic_jsonISt3mapSt6vectorNSt7__cxx1112basic_stringIcSt11char_traitsIcESaIcEEEblmdSaS1_S9_IhSaIhEEvEE
FNDA:0,_ZN8nlohmann16json_abi_v3_11_314adl_serializerISt8optionalIN3MAS18WindingWindowShapeEEvE9from_jsonERKNS0_10basic_jsonISt3mapSt6vectorNSt7__cxx1112basic_stringIcSt11char_traitsIcESaIcEEEblmdSaS1_S9_IhSaIhEEvEE
FNDA:0,_ZN8nlohmann16json_abi_v3_11_314adl_serializerISt8optionalIN3MAS19MaterialCompositionEEvE9from_jsonERKNS0_10basic_jsonISt3mapSt6vectorNSt7__cxx1112basic_stringIcSt11char_traitsIcESaIcEEEblmdSaS1_S9_IhSaIhEEvEE
FNDA:0,_ZN8nlohmann16json_abi_v3_11_314adl_serializerISt8optionalIN3MAS19OvervoltageCategoryEEvE9from_jsonERKNS0_10basic_jsonISt3mapSt6vectorNSt7__cxx1112basic_stringIcSt11char_traitsIcESaIcEEEblmdSaS1_S9_IhSaIhEEvEE
FNDA:0,_ZN8nlohmann16json_abi_v3_11_314adl_serializerISt8optionalIN3MAS19SupportedTopologiesEEvE9from_jsonERKNS0_10basic_jsonISt3mapSt6vectorNSt7__cxx1112basic_stringIcSt11char_traitsIcESaIcEEEblmdSaS1_S9_IhSaIhEEvEE
FNDA:0,_ZN8nlohmann16json_abi_v3_11_314adl_serializerISt8optionalIN3MAS19WindingLossesOutputEEvE9from_jsonERKNS0_10basic_jsonISt3mapSt6vectorNSt7__cxx1112basic_stringIcSt11char_traitsIcESaIcEEEblmdSaS1_S9_IhSaIhEEvEE
FNDA:0,_ZN8nlohmann16json_abi_v3_11_314adl_serializerISt8optionalIN3MAS20ConverterInformationEEvE9from_jsonERKNS0_10basic_jsonISt3mapSt6vectorNSt7__cxx1112basic_stringIcSt11char_traitsIcESaIcEEEblmdSaS1_S9_IhSaIhEEvEE
FNDA:0,_ZN8nlohmann16json_abi_v3_11_314adl_serializerISt8optionalIN3MAS20PhaseShiftFullBridgeEEvE9from_jsonERKNS0_10basic_jsonISt3mapSt6vectorNSt7__cxx1112basic_stringIcSt11char_traitsIcESaIcEEEblmdSaS1_S9_IhSaIhEEvEE
FNDA:0,_ZN8nlohmann16json_abi_v3_11_314adl_serializerISt8optionalIN3MAS22DimensionWithToleranceEEvE9from_jsonERKNS0_10basic_jsonISt3mapSt6vectorNSt7__cxx1112basic_stringIcSt11char_traitsIcESaIcEEEblmdSaS1_S9_IhSaIhEEvEE
FNDA:0,_ZN8nlohmann16json_abi_v3_11_314adl_serializerISt8optionalIN3MAS22InsulationRequirementsEEvE9from_jsonERKNS0_10basic_jsonISt3mapSt6vectorNSt7__cxx1112basic_stringIcSt11char_traitsIcESaIcEEEblmdSaS1_S9_IhSaIhEEvEE
FNDA:0,_ZN8nlohmann16json_abi_v3_11_314adl_serializerISt8optionalIN3MAS23ComplexPermeabilityDataEEvE9from_jsonERKNS0_10basic_jsonISt3mapSt6vectorNSt7__cxx1112basic_stringIcSt11char_traitsIcESaIcEEEblmdSaS1_S9_IhSaIhEEvEE
FNDA:0,_ZN8nlohmann16json_abi_v3_11_314adl_serializerISt8optionalIN3MAS23LeakageInductanceOutputEEvE9from_jsonERKNS0_10basic_jsonISt3mapSt6vectorNSt7__cxx1112basic_stringIcSt11char_traitsIcESaIcEEEblmdSaS1_S9_IhSaIhEEvEE
FNDA:0,_ZN8nlohmann16json_abi_v3_11_314adl_serializerISt8optionalIN3MAS23TurnCrossSectionalShapeEEvE9from_jsonERKNS0_10basic_jsonISt3mapSt6vectorNSt7__cxx1112basic_stringIcSt11char_traitsIcESaIcEEEblmdSaS1_S9_IhSaIhEEvEE
FNDA:0,_ZN8nlohmann16json_abi_v3_11_314adl_serializerISt8optionalIN3MAS24CoreProcessedDescriptionEEvE9from_jsonERKNS0_10basic_jsonISt3mapSt6vectorNSt7__cxx1112basic_stringIcSt11char_traitsIcESaIcEEEblmdSaS1_S9_IhSaIhEEvEE
FNDA:0,_ZN8nlohmann16json_abi_v3_11_314adl_serializerISt8optionalIN3MAS24MagneticManufacturerInfoEEvE9from_jsonERKNS0_10basic_jsonISt3mapSt6vectorNSt7__cxx1112basic_stringIcSt11char_traitsIcESaIcEEEblmdSaS1_S9_IhSaIhEEvEE
FNDA:0,_ZN8nlohmann16json_abi_v3_11_314adl_serializerISt8optionalIN3MAS25InsulationWireCoatingTypeEEvE9from_jsonERKNS0_10basic_jsonISt3mapSt6vectorNSt7__cxx1112basic_stringIcSt11char_traitsIcESaIcEEEblmdSaS1_S9_IhSaIhEEvEE
FNDA:0,_ZN8nlohmann16json_abi_v3_11_314adl_serializerISt8optionalIN3MAS25MagneticFieldDcBiasFactorEEvE9from_jsonERKNS0_10basic_jsonISt3mapSt6vectorNSt7__cxx1112basic_stringIcSt11char_traitsIcESaIcEEEblmdSaS1_S9_IhSaIhEEvEE
FNDA:0,_ZN8nlohmann16json_abi_v3_11_314adl_serializerISt8optionalIN3MAS25MagneticFluxDensityFactorEEvE9from_jsonERKNS0_10basic_jsonISt3mapSt6vectorNSt7__cxx1112basic_stringIcSt11char_traitsIcESaIcEEEblmdSaS1_S9_IhSaIhEEvEE
FNDA:0,_ZN8nlohmann16json_abi_v3_11_314adl_serializerISt8optionalIN3MAS27BobbinFunctionalDescriptionEEvE9from_jsonERKNS0_10basic_jsonISt3mapSt6vectorNSt7__cxx1112basic_stringIcSt11char_traitsIcESaIcEEEblmdSaS1_S9_IhSaIhEEvEE
FNDA:0,_ZN8nlohmann16json_abi_v3_11_314adl_serializerISt8optionalIN3MAS27CoreMaterialRecommendationsEEvE9from_jsonERKNS0_10basic_jsonISt3mapSt6vectorNSt7__cxx1112basic_stringIcSt11char_traitsIcESaIcEEEblmdSaS1_S9_IhSaIhEEvEE
FNDA:0,_ZN8nlohmann16json_abi_v3_11_314adl_serializerISt8optionalIN3MAS28InsulationCoordinationOutputEEvE9from_jsonERKNS0_10basic_jsonISt3mapSt6vectorNSt7__cxx1112basic_stringIcSt11char_traitsIcESaIcEEEblmdSaS1_S9_IhSaIhEEvEE
FNDA:0,_ZN8nlohmann16json_abi_v3_11_314adl_serializerISt8optionalIN3MAS28RoshenAdditionalCoefficientsEEvE9from_jsonERKNS0_10basic_jsonISt3mapSt6vectorNSt7__cxx1112basic_stringIcSt11char_traitsIcESaIcEEEblmdSaS1_S9_IhSaIhEEvEE
FNDA:0,_ZN8nlohmann16json_abi_v3_11_314adl_serializerISt8optionalIN3MAS30CoreBobbinProcessedDescriptionEEvE9from_jsonERKNS0_10basic_jsonISt3mapSt6vectorNSt7__cxx1112basic_stringIcSt11char_traitsIcESaIcEEEblmdSaS1_S9_IhSaIhEEvEE
FNDA:0,_ZN8nlohmann16json_abi_v3_11_314adl_serializerISt8optionalIN3MAS31WindingWindowCurrentFieldOutputEEvE9from_jsonERKNS0_10basic_jsonISt3mapSt6vectorNSt7__cxx1112basic_stringIcSt11char_traitsIcESaIcEEEblmdSaS1_S9_IhSaIhEEvEE
FNDA:0,_ZN8nlohmann16json_abi_v3_11_314adl_serializerISt8optionalIN3MAS32InitialPermeabilitModifierMethodEEvE9from_jsonERKNS0_10basic_jsonISt3mapSt6vectorNSt7__cxx1112basic_stringIcSt11char_traitsIcESaIcEEEblmdSaS1_S9_IhSaIhEEvEE
FNDA:0,_ZN8nlohmann16json_abi_v3_11_314adl_serializerISt8optionalIN3MAS35MagneticManufacturerRecommendationsEEvE9from_jsonERKNS0_10basic_jsonISt3mapSt6vectorNSt7__cxx1112basic_stringIcSt11char_traitsIcESaIcEEEblmdSaS1_S9_IhSaIhEEvEE
FNDA:0,_ZN8nlohmann16json_abi_v3_11_314adl_serializerISt8optionalIN3MAS38WindingWindowCurrentDensityFieldOutputEEvE9from_jsonERKNS0_10basic_jsonISt3mapSt6vectorNSt7__cxx1112basic_stringIcSt11char_traitsIcESaIcEEEblmdSaS1_S9_IhSaIhEEvEE
FNDA:0,_ZN8nlohmann16json_abi_v3_11_314adl_serializerISt8optionalIN3MAS3CtiEEvE9from_jsonERKNS0_10basic_jsonISt3mapSt6vectorNSt7__cxx1112basic_stringIcSt11char_traitsIcESaIcEEEblmdSaS1_S9_IhSaIhEEvEE
FNDA:0,_ZN8nlohmann16json_abi_v3_11_314adl_serializerISt8optionalIN3MAS40WindingWindowMagneticStrengthFieldOutputEEvE9from_jsonERKNS0_10basic_jsonISt3mapSt6vectorNSt7__cxx1112basic_stringIcSt11char_traitsIcESaIcEEEblmdSaS1_S9_IhSaIhEEvEE
FNDA:0,_ZN8nlohmann16json_abi_v3_11_314adl_serializerISt8optionalIN3MAS4BuckEEvE9from_jsonERKNS0_10basic_jsonISt3mapSt6vectorNSt7__cxx1112basic_stringIcSt11char_traitsIcESaIcEEEblmdSaS1_S9_IhSaIhEEvEE
FNDA:0,_ZN8nlohmann16json_abi_v3_11_314adl_serializerISt8optionalIN3MAS5BoostEEvE9from_jsonERKNS0_10basic_jsonISt3mapSt6vectorNSt7__cxx1112basic_stringIcSt11char_traitsIcESaIcEEEblmdSaS1_S9_IhSaIhEEvEE
FNDA:0,_ZN8nlohmann16json_abi_v3_11_314adl_serializerISt8optionalIN3MAS6MarketEEvE9from_jsonERKNS0_10basic_jsonISt3mapSt6vectorNSt7__cxx1112basic_stringIcSt11char_traitsIcESaIcEEEblmdSaS1_S9_IhSaIhEEvEE
FNDA:0,_ZN8nlohmann16json_abi_v3_11_314adl_serializerISt8optionalIN3MAS6PinoutEEvE9from_jsonERKNS0_10basic_jsonISt3mapSt6vectorNSt7__cxx1112basic_stringIcSt11char_traitsIcESaIcEEEblmdSaS1_S9_IhSaIhEEvEE
FNDA:0,_ZN8nlohmann16json_abi_v3_11_314adl_serializerISt8optionalIN3MAS6StatusEEvE9from_jsonERKNS0_10basic_jsonISt3mapSt6vectorNSt7__cxx1112basic_stringIcSt11char_traitsIcESaIcEEEblmdSaS1_S9_IhSaIhEEvEE
FNDA:0,_ZN8nlohmann16json_abi_v3_11_314adl_serializerISt8optionalIN3MAS7CoatingEEvE9from_jsonERKNS0_10basic_jsonISt3mapSt6vectorNSt7__cxx1112basic_stringIcSt11char_traitsIcESaIcEEEblmdSaS1_S9_IhSaIhEEvEE
FNDA:0,_ZN8nlohmann16json_abi_v3_11_314adl_serializerISt8optionalIN3MAS7CoolingEEvE9from_jsonERKNS0_10basic_jsonISt3mapSt6vectorNSt7__cxx1112basic_stringIcSt11char_traitsIcESaIcEEEblmdSaS1_S9_IhSaIhEEvEE
FNDA:0,_ZN8nlohmann16json_abi_v3_11_314adl_serializerISt8optionalIN3MAS7FlybackEEvE9from_jsonERKNS0_10basic_jsonISt3mapSt6vectorNSt7__cxx1112basic_stringIcSt11char_traitsIcESaIcEEEblmdSaS1_S9_IhSaIhEEvEE
FNDA:0,_ZN8nlohmann16json_abi_v3_11_314adl_serializerISt8optionalIN3MAS7ForwardEEvE9from_jsonERKNS0_10basic_jsonISt3mapSt6vectorNSt7__cxx1112basic_stringIcSt11char_traitsIcESaIcEEEblmdSaS1_S9_IhSaIhEEvEE
FNDA:0,_ZN8nlohmann16json_abi_v3_11_314adl_serializerISt8optionalIN3MAS8PushPullEEvE9from_jsonERKNS0_10basic_jsonISt3mapSt6vectorNSt7__cxx1112basic_stringIcSt11char_traitsIcESaIcEEEblmdSaS1_S9_IhSaIhEEvEE
FNDA:0,_ZN8nlohmann16json_abi_v3_11_314adl_serializerISt8optionalIN3MAS8WaveformEEvE9from_jsonERKNS0_10basic_jsonISt3mapSt6vectorNSt7__cxx1112basic_stringIcSt11char_traitsIcESaIcEEEblmdSaS1_S9_IhSaIhEEvEE
FNDA:0,_ZN8nlohmann16json_abi_v3_11_314adl_serializerISt8optionalIN3MAS9DirectionEEvE9from_jsonERKNS0_10basic_jsonISt3mapSt6vectorNSt7__cxx1112basic_stringIcSt11char_traitsIcESaIcEEEblmdSaS1_S9_IhSaIhEEvEE
FNDA:0,_ZN8nlohmann16json_abi_v3_11_314adl_serializerISt8optionalIN3MAS9HarmonicsEEvE9from_jsonERKNS0_10basic_jsonISt3mapSt6vectorNSt7__cxx1112basic_stringIcSt11char_traitsIcESaIcEEEblmdSaS1_S9_IhSaIhEEvEE
FNDA:0,_ZN8nlohmann16json_abi_v3_11_314adl_serializerISt8optionalIN3MAS9ProcessedEEvE9from_jsonERKNS0_10basic_jsonISt3mapSt6vectorNSt7__cxx1112basic_stringIcSt11char_traitsIcESaIcEEEblmdSaS1_S9_IhSaIhEEvEE
FNDA:0,_ZN8nlohmann16json_abi_v3_11_314adl_serializerISt8optionalINSt7__cxx1112basic_stringIcSt11char_traitsIcESaIcEEEEvE9from_jsonERKNS0_10basic_jsonISt3mapSt6vectorS8_blmdSaS1_SD_IhSaIhEEvEE
FNDA:0,_ZN8nlohmann16json_abi_v3_11_314adl_serializerISt8optionalISt3mapINSt7__cxx1112basic_stringIcSt11char_traitsIcESaIcEEEN3MAS26InitialPermeabilitModifierESt4lessIS9_ESaISt4pairIKS9_SB_EEEEvE9from_jsonERKNS0_10basic_jsonIS3_St6vectorS9_blmdSaS1_SM_IhSaIhEEvEE
FNDA:0,_ZN8nlohmann16json_abi_v3_11_314adl_serializerISt8optionalISt3mapINSt7__cxx1112basic_stringIcSt11char_traitsIcESaIcEEES3_IS9_N3MAS23ScalarMatrixAtFrequencyESt4lessIS9_ESaISt4pairIKS9_SB_EEESD_SaISE_ISF_SI_EEEEvE9from_jsonERKNS0_10basic_jsonIS3_St6vectorS9_blmdSaS1_SP_IhSaIhEEvEE
FNDA:0,_ZN8nlohmann16json_abi_v3_11_314adl_serializerISt8optionalISt3mapINSt7__cxx1112basic_stringIcSt11char_traitsIcESaIcEEES3_IS9_N3MAS28TripoleCapacitancePerWindingESt4lessIS9_ESaISt4pairIKS9_SB_EEESD_SaISE_ISF_SI_EEEEvE9from_jsonERKNS0_10basic_jsonIS3_St6vectorS9_blmdSaS1_SP_IhSaIhEEvEE
FNDA:0,_ZN8nlohmann16json_abi_v3_11_314adl_serializerISt8optionalISt3mapINSt7__cxx1112basic_stringIcSt11char_traitsIcESaIcEEES3_IS9_N3MAS29SixCapacitorNetworkPerWindingESt4lessIS9_ESaISt4pairIKS9_SB_EEESD_SaISE_ISF_SI_EEEEvE9from_jsonERKNS0_10basic_jsonIS3_St6vectorS9_blmdSaS1_SP_IhSaIhEEvEE
FNDA:0,_ZN8nlohmann16json_abi_v3_11_314adl_serializerISt8optionalISt3mapINSt7__cxx1112basic_stringIcSt11char_traitsIcESaIcEEES3_IS9_dSt4lessIS9_ESaISt4pairIKS9_dEEESB_SaISC_ISD_SG_EEEEvE9from_jsonERKNS0_10basic_jsonIS3_St6vectorS9_blmdSaS1_SN_IhSaIhEEvEE
FNDA:0,_ZN8nlohmann16json_abi_v3_11_314adl_serializerISt8optionalISt3mapINSt7__cxx1112basic_stringIcSt11char_traitsIcESaIcEEESt6vectorISt7variantIJSA_IN3MAS15MassLossesPointESaISD_EENSC_28MagnetecCoreLossesMethodDataEEESaISH_EESt4lessIS9_ESaISt4pairIKS9_SJ_EEEEvE9from_jsonERKNS0_10basic_jsonIS3_SA_S9_blmdSaS1_SA_IhSaIhEEvEE
FNDA:0,_ZN8nlohmann16json_abi_v3_11_314adl_serializerISt8optionalISt3mapINSt7__cxx1112basic_stringIcSt11char_traitsIcESaIcEEESt7variantIJN3MAS22DimensionWithToleranceEdEESt4lessIS9_ESaISt4pairIKS9_SD_EEEEvE9from_jsonERKNS0_10basic_jsonIS3_St6vectorS9_blmdSaS1_SO_IhSaIhEEvEE
FNDA:0,_ZN8nlohmann16json_abi_v3_11_314adl_serializerISt8optionalISt6vectorIN3MAS13IsolationSideESaIS5_EEEvE9from_jsonERKNS0_10basic_jsonISt3mapS3_NSt7__cxx1112basic_stringIcSt11char_traitsIcESaIcEEEblmdSaS1_S3_IhSaIhEEvEE
FNDA:0,_ZN8nlohmann16json_abi_v3_11_314adl_serializerISt8optionalISt6vectorIN3MAS14BhCycleElementESaIS5_EEEvE9from_jsonERKNS0_10basic_jsonISt3mapS3_NSt7__cxx1112basic_stringIcSt11char_traitsIcESaIcEEEblmdSaS1_S3_IhSaIhEEvEE
FNDA:0,_ZN8nlohmann16json_abi_v3_11_314adl_serializerISt8optionalISt6vectorIN3MAS14ConnectionTypeESaIS5_EEEvE9from_jsonERKNS0_10basic_jsonISt3mapS3_NSt7__cxx1112basic_stringIcSt11char_traitsIcESaIcEEEblmdSaS1_S3_IhSaIhEEvEE
FNDA:0,_ZN8nlohmann16json_abi_v3_11_314adl_serializerISt8optionalISt6vectorIN3MAS15DistributorInfoESaIS5_EEEvE9from_jsonERKNS0_10basic_jsonISt3mapS3_NSt7__cxx1112basic_stringIcSt11char_traitsIcESaIcEEEblmdSaS1_S3_IhSaIhEEvEE
FNDA:0,_ZN8nlohmann16json_abi_v3_11_314adl_serializerISt8optionalISt6vectorIN3MAS15LossFactorPointESaIS5_EEEvE9from_jsonERKNS0_10basic_jsonISt3mapS3_NSt7__cxx1112basic_stringIcSt11char_traitsIcESaIcEEEblmdSaS1_S3_IhSaIhEEvEE
FNDA:0,_ZN8nlohmann16json_abi_v3_11_314adl_serializerISt8optionalISt6vectorIN3MAS16ResistivityPointESaIS5_EEEvE9from_jsonERKNS0_10basic_jsonISt3mapS3_NSt7__cxx1112basic_stringIcSt11char_traitsIcESaIcEEEblmdSaS1_S3_IhSaIhEEvEE
FNDA:0,_ZN8nlohmann16json_abi_v3_11_314adl_serializerISt8optionalISt6vectorIN3MAS17ConnectionElementESaIS5_EEEvE9from_jsonERKNS0_10basic_jsonISt3mapS3_NSt7__cxx1112basic_stringIcSt11char_traitsIcESaIcEEEblmdSaS1_S3_IhSaIhEEvEE
FNDA:0,_ZN8nlohmann16json_abi_v3_11_314adl_serializerISt8optionalISt6vectorIN3MAS17DielectricVoltageESaIS5_EEEvE9from_jsonERKNS0_10basic_jsonISt3mapS3_NSt7__cxx1112basic_stringIcSt11char_traitsIcESaIcEEEblmdSaS1_S3_IhSaIhEEvEE
FNDA:0,_ZN8nlohmann16json_abi_v3_11_314adl_serializerISt8optionalISt6vectorIN3MAS19InsulationStandardsESaIS5_EEEvE9from_jsonERKNS0_10basic_jsonISt3mapS3_NSt7__cxx1112basic_stringIcSt11char_traitsIcESaIcEEEblmdSaS1_S3_IhSaIhEEvEE
FNDA:0,_ZN8nlohmann16json_abi_v3_11_314adl_serializerISt8optionalISt6vectorIN3MAS20ImpedanceAtFrequencyESaIS5_EEEvE9from_jsonERKNS0_10basic_jsonISt3mapS3_NSt7__cxx1112basic_stringIcSt11char_traitsIcESaIcEEEblmdSaS1_S3_IhSaIhEEvEE
FNDA:0,_ZN8nlohmann16json_abi_v3_11_314adl_serializerISt8optionalISt6vectorIN3MAS20PinWindingConnectionESaIS5_EEEvE9from_jsonERKNS0_10basic_jsonISt3mapS3_NSt7__cxx1112basic_stringIcSt11char_traitsIcESaIcEEEblmdSaS1_S3_IhSaIhEEvEE
FNDA:0,_ZN8nlohmann16json_abi_v3_11_314adl_serializerISt8optionalISt6vectorIN3MAS21VolumetricLossesPointESaIS5_EEEvE9from_jsonERKNS0_10basic_jsonISt3mapS3_NSt7__cxx1112basic_stringIcSt11char_traitsIcESaIcEEEblmdSaS1_S3_IhSaIhEEvEE
FNDA:0,_ZN8nlohmann16json_abi_v3_11_314adl_serializerISt8optionalISt6vectorIN3MAS22AirGapReluctanceOutputESaIS5_EEEvE9from_jsonERKNS0_10basic_jsonISt3mapS3_NSt7__cxx1112basic_stringIcSt11char_traitsIcESaIcEEEblmdSaS1_S3_IhSaIhEEvEE
FNDA:0,_ZN8nlohmann16json_abi_v3_11_314adl_serializerISt8optionalISt6vectorIN3MAS22DimensionWithToleranceESaIS5_EEEvE9from_jsonERKNS0_10basic_jsonISt3mapS3_NSt7__cxx1112basic_stringIcSt11char_traitsIcESaIcEEEblmdSaS1_S3_IhSaIhEEvEE
FNDA:0,_ZN8nlohmann16json_abi_v3_11_314adl_serializerISt8optionalISt6vectorIN3MAS22StrayCapacitanceOutputESaIS5_EEEvE9from_jsonERKNS0_10basic_jsonISt3mapS3_NSt7__cxx1112basic_stringIcSt11char_traitsIcESaIcEEEblmdSaS1_S3_IhSaIhEEvEE
FNDA:0,_ZN8nlohmann16json_abi_v3_11_314adl_serializerISt8optionalISt6vectorIN3MAS23ScalarMatrixAtFrequencyESaIS5_EEEvE9from_jsonERKNS0_10basic_jsonISt3mapS3_NSt7__cxx1112basic_stringIcSt11char_traitsIcESaIcEEEblmdSaS1_S3_IhSaIhEEvEE
FNDA:0,_ZN8nlohmann16json_abi_v3_11_314adl_serializerISt8optionalISt6vectorIN3MAS23WindingLossesPerElementESaIS5_EEEvE9from_jsonERKNS0_10basic_jsonISt3mapS3_NSt7__cxx1112basic_stringIcSt11char_traitsIcESaIcEEEblmdSaS1_S3_IhSaIhEEvEE
FNDA:0,_ZN8nlohmann16json_abi_v3_11_314adl_serializerISt8optionalISt6vectorIN3MAS24ComplexMatrixAtFrequencyESaIS5_EEEvE9from_jsonERKNS0_10basic_jsonISt3mapS3_NSt7__cxx1112basic_stringIcSt11char_traitsIcESaIcEEEblmdSaS1_S3_IhSaIhEEvEE
FNDA:0,_ZN8nlohmann16json_abi_v3_11_314adl_serializerISt8optionalISt6vectorIN3MAS26ThermalConductivityElementESaIS5_EEEvE9from_jsonERKNS0_10basic_jsonISt3mapS3_NSt7__cxx1112basic_stringIcSt11char_traitsIcESaIcEEEblmdSaS1_S3_IhSaIhEEvEE
FNDA:0,_ZN8nlohmann16json_abi_v3_11_314adl_serializerISt8optionalISt6vectorIN3MAS33CoreGeometricalDescriptionElementESaIS5_EEEvE9from_jsonERKNS0_10basic_jsonISt3mapS3_NSt7__cxx1112basic_stringIcSt11char_traitsIcESaIcEEEblmdSaS1_S3_IhSaIhEEvEE
FNDA:0,_ZN8nlohmann16json_abi_v3_11_314adl_serializerISt8optionalISt6vectorIN3MAS35SteinmetzCoreLossesMethodRangeDatumESaIS5_EEEvE9from_jsonERKNS0_10basic_jsonISt3mapS3_NSt7__cxx1112basic_stringIcSt11char_traitsIcESaIcEEEblmdSaS1_S3_IhSaIhEEvEE
FNDA:0,_ZN8nlohmann16json_abi_v3_11_314adl_serializerISt8optionalISt6vectorIN3MAS3PinESaIS5_EEEvE9from_jsonERKNS0_10basic_jsonISt3mapS3_NSt7__cxx1112basic_stringIcSt11char_traitsIcESaIcEEEblmdSaS1_S3_IhSaIhEEvEE
FNDA:0,_ZN8nlohmann16json_abi_v3_11_314adl_serializerISt8optionalISt6vectorIN3MAS4TurnESaIS5_EEEvE9from_jsonERKNS0_10basic_jsonISt3mapS3_NSt7__cxx1112basic_stringIcSt11char_traitsIcESaIcEEEblmdSaS1_S3_IhSaIhEEvEE
FNDA:0,_ZN8nlohmann16json_abi_v3_11_314adl_serializerISt8optionalISt6vectorIN3MAS5GroupESaIS5_EEEvE9from_jsonERKNS0_10basic_jsonISt3mapS3_NSt7__cxx1112basic_stringIcSt11char_traitsIcESaIcEEEblmdSaS1_S3_IhSaIhEEvEE
FNDA:0,_ZN8nlohmann16json_abi_v3_11_314adl_serializerISt8optionalISt6vectorIN3MAS5LayerESaIS5_EEEvE9from_jsonERKNS0_10basic_jsonISt3mapS3_NSt7__cxx1112basic_stringIcSt11char_traitsIcESaIcEEEblmdSaS1_S3_IhSaIhEEvEE
FNDA:0,_ZN8nlohmann16json_abi_v3_11_314adl_serializerISt8optionalISt6vectorIN3MAS7SectionESaIS5_EEEvE9from_jsonERKNS0_10basic_jsonISt3mapS3_NSt7__cxx1112basic_stringIcSt11char_traitsIcESaIcEEEblmdSaS1_S3_IhSaIhEEvEE
FNDA:0,_ZN8nlohmann16json_abi_v3_11_314adl_serializerISt8optionalISt6vectorIN3MAS9MachiningESaIS5_EEEvE9from_jsonERKNS0_10basic_jsonISt3mapS3_NSt7__cxx1112basic_stringIcSt11char_traitsIcESaIcEEEblmdSaS1_S3_IhSaIhEEvEE
FNDA:0,_ZN8nlohmann16json_abi_v3_11_314adl_serializerISt8optionalISt6vectorINSt7__cxx1112basic_stringIcSt11char_traitsIcESaIcEEESaIS9_EEEvE9from_jsonERKNS0_10basic_jsonISt3mapS3_S9_blmdSaS1_S3_IhSaIhEEvEE
FNDA:0,_ZN8nlohmann16json_abi_v3_11_314adl_serializerISt8optionalISt6vectorIS3_IdSaIdEESaIS5_EEEvE9from_jsonERKNS0_10basic_jsonISt3mapS3_NSt7__cxx1112basic_stringIcSt11char_traitsIcESaIcEEEblmdSaS1_S3_IhSaIhEEvEE
FNDA:0,_ZN8nlohmann16json_abi_v3_11_314adl_serializerISt8optionalISt6vectorIdSaIdEEEvE9from_jsonERKNS0_10basic_jsonISt3mapS3_NSt7__cxx1112basic_stringIcSt11char_traitsIcESaIcEEEblmdSaS1_S3_IhSaIhEEvEE
FNDA:0,_ZN8nlohmann16json_abi_v3_11_314adl_serializerISt8optionalISt6vectorIlSaIlEEEvE9from_jsonERKNS0_10basic_jsonISt3mapS3_NSt7__cxx1112basic_stringIcSt11char_traitsIcESaIcEEEblmdSaS1_S3_IhSaIhEEvEE
FNDA:0,_ZN8nlohmann16json_abi_v3_11_314adl_serializerISt8optionalISt7variantIJN3MAS12CoreMaterialENSt7__cxx1112basic_stringIcSt11char_traitsIcESaIcEEEEEEvE9from_jsonERKNS0_10basic_jsonISt3mapSt6vectorSB_blmdSaS1_SH_IhSaIhEEvEE
FNDA:0,_ZN8nlohmann16json_abi_v3_11_314adl_serializerISt8optionalISt7variantIJN3MAS12WireMaterialENSt7__cxx1112basic_stringIcSt11char_traitsIcESaIcEEEEEEvE9from_jsonERKNS0_10basic_jsonISt3mapSt6vectorSB_blmdSaS1_SH_IhSaIhEEvEE
FNDA:0,_ZN8nlohmann16json_abi_v3_11_314adl_serializerISt8optionalISt7variantIJN3MAS18InsulationMaterialENSt7__cxx1112basic_stringIcSt11char_traitsIcESaIcEEEEEEvE9from_jsonERKNS0_10basic_jsonISt3mapSt6vectorSB_blmdSaS1_SH_IhSaIhEEvEE
FNDA:0,_ZN8nlohmann16json_abi_v3_11_314adl_serializerISt8optionalISt7variantIJN3MAS21InsulationWireCoatingENSt7__cxx1112basic_stringIcSt11char_traitsIcESaIcEEEEEEvE9from_jsonERKNS0_10basic_jsonISt3mapSt6vectorSB_blmdSaS1_SH_IhSaIhEEvEE
FNDA:0,_ZN8nlohmann16json_abi_v3_11_314adl_serializerISt8optionalISt7variantIJN3MAS9CoreShapeENSt7__cxx1112basic_stringIcSt11char_traitsIcESaIcEEEEEEvE9from_jsonERKNS0_10basic_jsonISt3mapSt6vectorSB_blmdSaS1_SH_IhSaIhEEvEE
FNDA:0,_ZN8nlohmann16json_abi_v3_11_314adl_serializerISt8optionalISt7variantIJN3MAS9WireRoundENSt7__cxx1112basic_stringIcSt11char_traitsIcESaIcEEEEEEvE9from_jsonERKNS0_10basic_jsonISt3mapSt6vectorSB_blmdSaS1_SH_IhSaIhEEvEE
FNDA:0,_ZN8nlohmann16json_abi_v3_11_314adl_serializerISt8optionalISt7variantIJSt6vectorIN3MAS17PermeabilityPointESaIS6_EES6_EEEvE9from_jsonERKNS0_10basic_jsonISt3mapS4_NSt7__cxx1112basic_stringIcSt11char_traitsIcESaIcEEEblmdSaS1_S4_IhSaIhEEvEE
FNDA:0,_ZN8nlohmann16json_abi_v3_11_314adl_serializerISt8optionalISt7variantIJSt6vectorIdSaIdEEN3MAS10MarginInfoEEEEvE9from_jsonERKNS0_10basic_jsonISt3mapS4_NSt7__cxx1112basic_stringIcSt11char_traitsIcESaIcEEEblmdSaS1_S4_IhSaIhEEvEE
FNDA:0,_ZN8nlohmann16json_abi_v3_11_314adl_serializerISt8optionalIbEvE9from_jsonERKNS0_10basic_jsonISt3mapSt6vectorNSt7__cxx1112basic_stringIcSt11char_traitsIcESaIcEEEblmdSaS1_S7_IhSaIhEEvEE
FNDA:0,_ZN8nlohmann16json_abi_v3_11_314adl_serializerISt8optionalIdEvE9from_jsonERKNS0_10basic_jsonISt3mapSt6vectorNSt7__cxx1112basic_stringIcSt11char_traitsIcESaIcEEEblmdSaS1_S7_IhSaIhEEvEE
FNDA:0,_ZN8nlohmann16json_abi_v3_11_314adl_serializerISt8optionalIlEvE9from_jsonERKNS0_10basic_jsonISt3mapSt6vectorNSt7__cxx1112basic_stringIcSt11char_traitsIcESaIcEEEblmdSaS1_S7_IhSaIhEEvEE
FNDA:0,_ZN3MAS5Boost24set_current_ripple_ratioESt8optionalIdE
FNDA:0,_ZNK3MAS5Group15get_coordinatesEv
FNDA:0,_ZN3MAS5Group15set_coordinatesERKSt6vectorIdSaIdEE
FNDA:0,_ZNK3MAS5Group21get_coordinate_systemEv
FNDA:0,_ZN3MAS5Group21set_coordinate_systemESt8optionalINS_16CoordinateSystemEE
FNDA:0,_ZNK3MAS5Group14get_dimensionsEv
FNDA:0,_ZN3MAS5Group14set_dimensionsERKSt6vectorIdSaIdEE
FNDA:0,_ZNK3MAS5Group8get_nameB5cxx11Ev
FNDA:0,_ZN3MAS5Group8set_nameERKNSt7__cxx1112basic_stringIcSt11char_traitsIcESaIcEEE
FNDA:0,_ZNK3MAS5Group20get_partial_windingsEv
FNDA:0,_ZN3MAS5Group20set_partial_windingsERKSt6vectorINS_14PartialWindingESaIS2_EE
FNDA:0,_ZNK3MAS5Group24get_sections_orientationEv
FNDA:0,_ZN3MAS5Group24set_sections_orientationERKNS_18WindingOrientationE
FNDA:0,_ZNK3MAS5Boost22get_diode_voltage_dropEv
FNDA:0,_ZNK3MAS5Group8get_typeEv
FNDA:0,_ZN3MAS5Group8set_typeERKNS_16WiringTechnologyE
FNDA:0,_ZN3MAS5Boost22set_diode_voltage_dropERKd
FNDA:0,_ZN3MAS5LayerC2Ev
FNDA:0,_ZN3MAS5LayerD0Ev
FNDA:0,_ZN3MAS5LayerD2Ev
FNDA:0,_ZNK3MAS5Layer26get_additional_coordinatesEv
FNDA:0,_ZN3MAS5Layer26set_additional_coordinatesESt8optionalISt6vectorIS2_IdSaIdEESaIS4_EEE
FNDA:0,_ZNK3MAS5Layer15get_coordinatesEv
FNDA:0,_ZN3MAS5Layer15set_coordinatesERKSt6vectorIdSaIdEE
FNDA:0,_ZNK3MAS5Layer21get_coordinate_systemEv
FNDA:0,_ZN3MAS5Layer21set_coordinate_systemESt8optionalINS_16CoordinateSystemEE
FNDA:0,_ZNK3MAS5Layer14get_dimensionsEv
FNDA:0,_ZNK3MAS5Boost14get_efficiencyEv
FNDA:0,_ZN3MAS5Layer14set_dimensionsERKSt6vectorIdSaIdEE
FNDA:0,_ZNK3MAS5Layer18get_filling_factorEv
FNDA:0,_ZN3MAS5Layer18set_filling_factorESt8optionalIdE
FNDA:0,_ZN3MAS5Boost14set_efficiencyESt8optionalIdE
FNDA:0,_ZNK3MAS5Layer23get_insulation_materialB5cxx11Ev
FNDA:0,_ZN3MAS5Layer23set_insulation_materialESt8optionalISt7variantIJNS_18InsulationMaterialENSt7__cxx1112basic_stringIcSt11char_traitsIcESaIcEEEEEE
FNDA:0,_ZNK3MAS5Layer8get_nameB5cxx11Ev
FNDA:0,_ZN3MAS5Layer8set_nameERKNSt7__cxx1112basic_stringIcSt11char_traitsIcESaIcEEE
FNDA:0,_ZNK3MAS5Layer15get_orientationEv
FNDA:0,_ZN3MAS5Layer15set_orientationERKNS_18WindingOrientationE
FNDA:0,_ZNK3MAS5Layer20get_partial_windingsEv
FNDA:0,_ZN3MAS5Layer20set_partial_windingsERKSt6vectorINS_14PartialWindingESaIS2_EE
FNDA:0,_ZNK3MAS5Layer11get_sectionB5cxx11Ev
FNDA:0,_ZN3MAS5Layer11set_sectionESt8optionalINSt7__cxx1112basic_stringIcSt11char_traitsIcESaIcEEEE
FNDA:0,_ZNK3MAS5Layer19get_turns_alignmentEv
FNDA:0,_ZN3MAS5Layer19set_turns_alignmentESt8optionalINS_13CoilAlignmentEE
FNDA:0,_ZNK3MAS5Layer8get_typeEv
FNDA:0,_ZN3MAS5Layer8set_typeERKNS_14ElectricalTypeE
FNDA:0,_ZNK3MAS5Layer17get_winding_styleEv
FNDA:0,_ZN3MAS5Layer17set_winding_styleESt8optionalINS_12WindingStyleEE
FNDA:0,_ZNK3MAS5Boost17get_input_voltageEv
FNDA:0,_ZN3MAS10MarginInfoC2Ev
FNDA:0,_ZN3MAS10MarginInfoD0Ev
FNDA:0,_ZN3MAS10MarginInfoD2Ev
FNDA:0,_ZN3MAS5Boost17set_input_voltageERKNS_22DimensionWithToleranceE
FNDA:0,_ZNK3MAS10MarginInfo25get_bottom_or_right_widthEv
FNDA:0,_ZN3MAS10MarginInfo25set_bottom_or_right_widthERKd
FNDA:0,_ZNK3MAS10MarginInfo23get_insulation_materialB5cxx11Ev
FNDA:0,_ZN3MAS10MarginInfo23set_insulation_materialESt8optionalISt7variantIJNS_18InsulationMaterialENSt7__cxx1112basic_stringIcSt11char_traitsIcESaIcEEEEEE
FNDA:0,_ZNK3MAS10MarginInfo19get_layer_thicknessEv
FNDA:0,_ZN3MAS10MarginInfo19set_layer_thicknessERKd
FNDA:0,_ZNK3MAS10MarginInfo17get_number_layersEv
FNDA:0,_ZN3MAS10MarginInfo17set_number_layersERKl
FNDA:0,_ZNK3MAS10MarginInfo21get_top_or_left_widthEv
FNDA:0,_ZN3MAS10MarginInfo21set_top_or_left_widthERKd
FNDA:1,_ZN3MAS7SectionC2Ev
FNDA:0,_ZN3MAS7SectionD0Ev
FNDA:1,_ZN3MAS7SectionD2Ev
FNDA:0,_ZNK3MAS5Boost26get_maximum_switch_currentEv
FNDA:0,_ZN3MAS5Boost26set_maximum_switch_currentESt8optionalIdE
FNDA:0,_ZNK3MAS7Section15get_coordinatesEv
FNDA:0,_ZN3MAS7Section15set_coordinatesERKSt6vectorIdSaIdEE
FNDA:0,_ZNK3MAS7Section21get_coordinate_systemEv
FNDA:0,_ZN3MAS7Section21set_coordinate_systemESt8optionalINS_16CoordinateSystemEE
FNDA:0,_ZNK3MAS7Section14get_dimensionsEv
FNDA:0,_ZN3MAS7Section14set_dimensionsERKSt6vectorIdSaIdEE
FNDA:0,_ZNK3MAS7Section18get_filling_factorEv
FNDA:0,_ZN3MAS7Section18set_filling_factorESt8optionalIdE
FNDA:0,_ZNK3MAS7Section9get_groupB5cxx11Ev
FNDA:0,_ZN3MAS7Section9set_groupESt8optionalINSt7__cxx1112basic_stringIcSt11char_traitsIcESaIcEEEE
FNDA:0,_ZNK3MAS7Section20get_layers_alignmentEv
FNDA:0,_ZN3MAS7Section20set_layers_alignmentESt8optionalINS_13CoilAlignmentEE
FNDA:0,_ZNK3MAS7Section22get_layers_orientationEv
FNDA:0,_ZN3MAS7Section22set_layers_orientationERKNS_18WindingOrientationE
FNDA:0,_ZNK3MAS5Boost20get_operating_pointsEv
FNDA:0,_ZNK3MAS7Section10get_marginEv
FNDA:0,_ZN3MAS7Section10set_marginESt8optionalISt7variantIJSt6vectorIdSaIdEENS_10MarginInfoEEEE
FNDA:0,_ZNK3MAS7Section8get_nameB5cxx11Ev
FNDA:0,_ZN3MAS7Section8set_nameERKNSt7__cxx1112basic_stringIcSt11char_traitsIcESaIcEEE
FNDA:0,_ZNK3MAS7Section17get_number_layersEv
FNDA:0,_ZN3MAS7Section17set_number_layersESt8optionalIdE
FNDA:0,_ZN3MAS5Boost20set_operating_pointsERKSt6vectorINS_18BaseOperatingPointESaIS2_EE
FNDA:0,_ZNK3MAS7Section20get_partial_windingsEv
FNDA:0,_ZN3MAS7Section20set_partial_windingsERKSt6vectorINS_14PartialWindingESaIS2_EE
FNDA:0,_ZNK3MAS7Section8get_typeEv
FNDA:0,_ZN3MAS7Section8set_typeERKNS_14ElectricalTypeE
FNDA:0,_ZNK3MAS7Section17get_winding_styleEv
FNDA:0,_ZN3MAS7Section17set_winding_styleESt8optionalINS_12WindingStyleEE
FNDA:0,_ZN3MAS4TurnC2Ev
FNDA:0,_ZN3MAS4TurnD0Ev
FNDA:0,_ZN3MAS4TurnD2Ev
FNDA:0,_ZNK3MAS4Turn26get_additional_coordinatesEv
FNDA:0,_ZN3MAS4Turn26set_additional_coordinatesESt8optionalISt6vectorIS2_IdSaIdEESaIS4_EEE
FNDA:0,_ZNK3MAS4Turn9get_angleEv
FNDA:0,_ZN3MAS4Turn9set_angleESt8optionalIdE
FNDA:0,_ZNK3MAS4Turn15get_coordinatesEv
FNDA:0,_ZN3MAS4Turn15set_coordinatesERKSt6vectorIdSaIdEE
FNDA:0,_ZNK3MAS4Turn21get_coordinate_systemEv
FNDA:0,_ZN3MAS4Turn21set_coordinate_systemESt8optionalINS_16CoordinateSystemEE
FNDA:0,_ZN3MAS4BuckC2Ev
FNDA:0,_ZNK3MAS4Turn25get_cross_sectional_shapeEv
FNDA:0,_ZN3MAS4Turn25set_cross_sectional_shapeESt8optionalINS_23TurnCrossSectionalShapeEE
FNDA:0,_ZNK3MAS4Turn14get_dimensionsEv
FNDA:0,_ZN3MAS4Turn14set_dimensionsESt8optionalISt6vectorIdSaIdEEE
FNDA:0,_ZN3MAS4BuckD0Ev
FNDA:0,_ZN3MAS4BuckD2Ev
FNDA:0,_ZNK3MAS4Turn9get_layerB5cxx11Ev
FNDA:0,_ZN3MAS4Turn9set_layerESt8optionalINSt7__cxx1112basic_stringIcSt11char_traitsIcESaIcEEEE
FNDA:0,_ZNK3MAS4Turn10get_lengthEv
FNDA:0,_ZN3MAS4Turn10set_lengthERKd
FNDA:0,_ZNK3MAS4Turn8get_nameB5cxx11Ev
FNDA:0,_ZN3MAS4Turn8set_nameERKNSt7__cxx1112basic_stringIcSt11char_traitsIcESaIcEEE
FNDA:0,_ZNK3MAS4Turn15get_orientationEv
FNDA:0,_ZN3MAS4Turn15set_orientationESt8optionalINS_15TurnOrientationEE
FNDA:0,_ZNK3MAS4Turn12get_parallelEv
FNDA:0,_ZN3MAS4Turn12set_parallelERKl
FNDA:0,_ZNK3MAS4Turn12get_rotationEv
FNDA:0,_ZN3MAS4Turn12set_rotationESt8optionalIdE
FNDA:0,_ZNK3MAS4Turn11get_sectionB5cxx11Ev
FNDA:0,_ZN3MAS4Turn11set_sectionESt8optionalINSt7__cxx1112basic_stringIcSt11char_traitsIcESaIcEEEE
FNDA:0,_ZNK3MAS4Turn11get_windingB5cxx11Ev
FNDA:0,_ZN3MAS4Turn11set_windingERKNSt7__cxx1112basic_stringIcSt11char_traitsIcESaIcEEE
FNDA:1,_ZN3MAS4CoilC2Ev
FNDA:0,_ZN3MAS4CoilD0Ev
FNDA:1,_ZN3MAS4CoilD2Ev
FNDA:0,_ZNK3MAS4Coil10get_bobbinB5cxx11Ev
FNDA:0,_ZN3MAS4Coil10set_bobbinERKSt7variantIJNS_6BobbinENSt7__cxx1112basic_stringIcSt11char_traitsIcESaIcEEEEE
FNDA:0,_ZNK3MAS4Coil26get_functional_descriptionEv
FNDA:0,_ZN3MAS4Coil26set_functional_descriptionERKSt6vectorINS_25CoilFunctionalDescriptionESaIS2_EE
FNDA:0,_ZNK3MAS4Coil22get_groups_descriptionEv
FNDA:0,_ZN3MAS4Coil22set_groups_descriptionESt8optionalISt6vectorINS_5GroupESaIS3_EEE
FNDA:0,_ZNK3MAS4Coil22get_layers_descriptionEv
FNDA:0,_ZN3MAS4Coil22set_layers_descriptionESt8optionalISt6vectorINS_5LayerESaIS3_EEE
FNDA:0,_ZNK3MAS4Coil24get_sections_descriptionEv
FNDA:0,_ZN3MAS4Coil24set_sections_descriptionESt8optionalISt6vectorINS_7SectionESaIS3_EEE
FNDA:0,_ZNK3MAS4Coil21get_turns_descriptionEv
FNDA:0,_ZN3MAS4Coil21set_turns_descriptionESt8optionalISt6vectorINS_4TurnESaIS3_EEE
FNDA:0,_ZN3MAS7CoreGapC2Ev
FNDA:0,_ZN3MAS7CoreGapD0Ev
FNDA:0,_ZN3MAS7CoreGapD2Ev
FNDA:0,_ZNK3MAS4Buck24get_current_ripple_ratioEv
FNDA:0,_ZNK3MAS7CoreGap8get_areaEv
FNDA:0,_ZN3MAS4Buck24set_current_ripple_ratioESt8optionalIdE
FNDA:0,_ZN3MAS7CoreGap8set_areaESt8optionalIdE
FNDA:0,_ZNK3MAS7CoreGap15get_coordinatesEv
FNDA:0,_ZN3MAS7CoreGap15set_coordinatesESt8optionalISt6vectorIdSaIdEEE
FNDA:0,_ZNK3MAS7CoreGap35get_distance_closest_normal_surfaceEv
FNDA:0,_ZN3MAS7CoreGap35set_distance_closest_normal_surfaceESt8optionalIdE
FNDA:0,_ZNK3MAS7CoreGap37get_distance_closest_parallel_surfaceEv
FNDA:0,_ZN3MAS7CoreGap37set_distance_closest_parallel_surfaceESt8optionalIdE
FNDA:0,_ZNK3MAS7CoreGap10get_lengthEv
FNDA:0,_ZN3MAS7CoreGap10set_lengthERKd
FNDA:0,_ZNK3MAS7CoreGap22get_section_dimensionsEv
FNDA:0,_ZN3MAS7CoreGap22set_section_dimensionsESt8optionalISt6vectorIdSaIdEEE
FNDA:0,_ZNK3MAS7CoreGap9get_shapeEv
FNDA:0,_ZN3MAS7CoreGap9set_shapeESt8optionalINS_11ColumnShapeEE
FNDA:0,_ZNK3MAS7CoreGap8get_typeEv
FNDA:0,_ZN3MAS7CoreGap8set_typeERKNS_7GapTypeE
FNDA:0,_ZNK3MAS4Buck22get_diode_voltage_dropEv
FNDA:0,_ZN3MAS14BhCycleElementC2Ev
FNDA:0,_ZN3MAS14BhCycleElementD0Ev
FNDA:0,_ZN3MAS14BhCycleElementD2Ev
FNDA:0,_ZNK3MAS14BhCycleElement18get_magnetic_fieldEv
FNDA:0,_ZN3MAS14BhCycleElement18set_magnetic_fieldERKd
FNDA:0,_ZN3MAS4Buck22set_diode_voltage_dropERKd
FNDA:0,_ZNK3MAS14BhCycleElement25get_magnetic_flux_densityEv
FNDA:0,_ZN3MAS14BhCycleElement25set_magnetic_flux_densityERKd
FNDA:0,_ZNK3MAS14BhCycleElement15get_temperatureEv
FNDA:0,_ZN3MAS14BhCycleElement15set_temperatureERKd
FNDA:0,_ZN3MAS15MassLossesPointC2Ev
FNDA:0,_ZN3MAS15MassLossesPointD0Ev
FNDA:0,_ZN3MAS15MassLossesPointD2Ev
FNDA:0,_ZNK3MAS15MassLossesPoint25get_magnetic_flux_densityEv
FNDA:0,_ZN3MAS15MassLossesPoint25set_magnetic_flux_densityERKNS_24OperatingPointExcitationE
FNDA:0,_ZNK3MAS15MassLossesPoint10get_originB5cxx11Ev
FNDA:0,_ZN3MAS15MassLossesPoint10set_originERKNSt7__cxx1112basic_stringIcSt11char_traitsIcESaIcEEE
FNDA:0,_ZNK3MAS15MassLossesPoint15get_temperatureEv
FNDA:0,_ZN3MAS15MassLossesPoint15set_temperatureERKd
FNDA:0,_ZNK3MAS4Buck14get_efficiencyEv
FNDA:0,_ZNK3MAS15MassLossesPoint9get_valueEv
FNDA:0,_ZN3MAS15MassLossesPoint9set_valueERKd
FNDA:0,_ZN3MAS4Buck14set_efficiencyESt8optionalIdE
FNDA:0,_ZN3MAS28MagnetecCoreLossesMethodDataC2Ev
FNDA:0,_ZN3MAS28MagnetecCoreLossesMethodDataD0Ev
FNDA:0,_ZN3MAS28MagnetecCoreLossesMethodDataD2Ev
FNDA:0,_ZNK3MAS28MagnetecCoreLossesMethodData10get_methodEv
FNDA:0,_ZN3MAS28MagnetecCoreLossesMethodData10set_methodERKNS_24MassCoreLossesMethodTypeE
FNDA:0,_ZN3MAS15FrequencyFactorC2Ev
FNDA:0,_ZN3MAS15FrequencyFactorD0Ev
FNDA:0,_ZN3MAS15FrequencyFactorD2Ev
FNDA:0,_ZNK3MAS4Buck17get_input_voltageEv
FNDA:0,_ZNK3MAS15FrequencyFactor5get_aEv
FNDA:0,_ZN3MAS15FrequencyFactor5set_aERKd
FNDA:0,_ZNK3MAS15FrequencyFactor5get_bEv
FNDA:0,_ZN3MAS15FrequencyFactor5set_bERKd
FNDA:0,_ZNK3MAS15FrequencyFactor5get_cEv
FNDA:0,_ZN3MAS15FrequencyFactor5set_cERKd
FNDA:0,_ZNK3MAS15FrequencyFactor5get_dEv
FNDA:0,_ZN3MAS15FrequencyFactor5set_dERKd
FNDA:0,_ZNK3MAS15FrequencyFactor5get_eEv
FNDA:0,_ZN3MAS15FrequencyFactor5set_eESt8optionalIdE
FNDA:0,_ZN3MAS4Buck17set_input_voltageERKNS_22DimensionWithToleranceE
FNDA:0,_ZN3MAS25MagneticFieldDcBiasFactorC2Ev
FNDA:0,_ZN3MAS25MagneticFieldDcBiasFactorD0Ev
FNDA:0,_ZN3MAS25MagneticFieldDcBiasFactorD2Ev
FNDA:0,_ZNK3MAS25MagneticFieldDcBiasFactor5get_aEv
FNDA:0,_ZN3MAS25MagneticFieldDcBiasFactor5set_aERKd
FNDA:0,_ZNK3MAS25MagneticFieldDcBiasFactor5get_bEv
FNDA:0,_ZN3MAS25MagneticFieldDcBiasFactor5set_bERKd
FNDA:0,_ZNK3MAS25MagneticFieldDcBiasFactor5get_cEv
FNDA:0,_ZN3MAS25MagneticFieldDcBiasFactor5set_cERKd
FNDA:0,_ZNK3MAS25MagneticFieldDcBiasFactor5get_dEv
FNDA:0,_ZN3MAS25MagneticFieldDcBiasFactor5set_dESt8optionalIdE
FNDA:0,_ZN3MAS25MagneticFluxDensityFactorC2Ev
FNDA:0,_ZN3MAS25MagneticFluxDensityFactorD0Ev
FNDA:0,_ZN3MAS25MagneticFluxDensityFactorD2Ev
FNDA:0,_ZNK3MAS4Buck26get_maximum_switch_currentEv
FNDA:0,_ZNK3MAS25MagneticFluxDensityFactor5get_aEv
FNDA:0,_ZN3MAS25MagneticFluxDensityFactor5set_aERKd
FNDA:0,_ZN3MAS4Buck26set_maximum_switch_currentESt8optionalIdE
FNDA:0,_ZNK3MAS25MagneticFluxDensityFactor5get_bEv
FNDA:0,_ZN3MAS25MagneticFluxDensityFactor5set_bERKd
FNDA:0,_ZNK3MAS25MagneticFluxDensityFactor5get_cEv
FNDA:0,_ZN3MAS25MagneticFluxDensityFactor5set_cERKd
FNDA:0,_ZNK3MAS25MagneticFluxDensityFactor5get_dEv
FNDA:0,_ZN3MAS25MagneticFluxDensityFactor5set_dERKd
FNDA:0,_ZNK3MAS25MagneticFluxDensityFactor5get_eEv
FNDA:0,_ZN3MAS25MagneticFluxDensityFactor5set_eERKd
FNDA:0,_ZNK3MAS25MagneticFluxDensityFactor5get_fEv
FNDA:0,_ZN3MAS25MagneticFluxDensityFactor5set_fERKd
FNDA:0,_ZN3MAS17TemperatureFactorC2Ev
FNDA:0,_ZN3MAS17TemperatureFactorD0Ev
FNDA:0,_ZN3MAS17TemperatureFactorD2Ev
FNDA:0,_ZNK3MAS17TemperatureFactor5get_aEv
FNDA:0,_ZN3MAS17TemperatureFactor5set_aERKd
FNDA:0,_ZNK3MAS4Buck20get_operating_pointsEv
FNDA:0,_ZNK3MAS17TemperatureFactor5get_bEv
FNDA:0,_ZN3MAS17TemperatureFactor5set_bESt8optionalIdE
FNDA:0,_ZNK3MAS17TemperatureFactor5get_cEv
FNDA:0,_ZN3MAS17TemperatureFactor5set_cESt8optionalIdE
FNDA:0,_ZNK3MAS17TemperatureFactor5get_dEv
FNDA:0,_ZN3MAS17TemperatureFactor5set_dESt8optionalIdE
FNDA:0,_ZNK3MAS17TemperatureFactor5get_eEv
FNDA:0,_ZN3MAS17TemperatureFactor5set_eESt8optionalIdE
FNDA:0,_ZN3MAS4Buck20set_operating_pointsERKSt6vectorINS_18BaseOperatingPointESaIS2_EE
FNDA:0,_ZN3MAS26InitialPermeabilitModifierC2Ev
FNDA:0,_ZN3MAS26InitialPermeabilitModifierD0Ev
FNDA:0,_ZN3MAS26InitialPermeabilitModifierD2Ev
FNDA:0,_ZNK3MAS26InitialPermeabilitModifier20get_frequency_factorEv
FNDA:0,_ZN3MAS26InitialPermeabilitModifier20set_frequency_factorESt8optionalINS_15FrequencyFactorEE
FNDA:0,_ZNK3MAS26InitialPermeabilitModifier33get_magnetic_field_dc_bias_factorEv
FNDA:0,_ZN3MAS26InitialPermeabilitModifier33set_magnetic_field_dc_bias_factorESt8optionalINS_25MagneticFieldDcBiasFactorEE
FNDA:0,_ZNK3MAS26InitialPermeabilitModifier10get_methodEv
FNDA:0,_ZN3MAS26InitialPermeabilitModifier10set_methodESt8optionalINS_32InitialPermeabilitModifierMethodEE
FNDA:0,_ZNK3MAS26InitialPermeabilitModifier22get_temperature_factorEv
FNDA:0,_ZN3MAS26InitialPermeabilitModifier22set_temperature_factorESt8optionalINS_17TemperatureFactorEE
FNDA:0,_ZNK3MAS26InitialPermeabilitModifier32get_magnetic_flux_density_factorEv
FNDA:0,_ZN3MAS26InitialPermeabilitModifier32set_magnetic_flux_density_factorESt8optionalINS_25MagneticFluxDensityFactorEE
FNDA:0,_ZN3MAS17PermeabilityPointC2Ev
FNDA:0,_ZN3MAS17PermeabilityPointD0Ev
FNDA:0,_ZN3MAS17PermeabilityPointD2Ev
FNDA:0,_ZNK3MAS17PermeabilityPoint13get_frequencyEv
FNDA:0,_ZN3MAS17PermeabilityPoint13set_frequencyESt8optionalIdE
FNDA:0,_ZNK3MAS17PermeabilityPoint26get_magnetic_field_dc_biasEv
FNDA:0,_ZN3MAS17PermeabilityPoint26set_magnetic_field_dc_biasESt8optionalIdE
FNDA:0,_ZNK3MAS17PermeabilityPoint30get_magnetic_flux_density_peakEv
FNDA:0,_ZN3MAS17PermeabilityPoint30set_magnetic_flux_density_peakESt8optionalIdE
FNDA:0,_ZNK3MAS17PermeabilityPoint13get_modifiersB5cxx11Ev
FNDA:0,_ZN3MAS17PermeabilityPoint13set_modifiersESt8optionalISt3mapINSt7__cxx1112basic_stringIcSt11char_traitsIcESaIcEEENS_26InitialPermeabilitModifierESt4lessIS8_ESaISt4pairIKS8_S9_EEEE
FNDA:0,_ZNK3MAS17PermeabilityPoint15get_temperatureEv
FNDA:0,_ZN3MAS17PermeabilityPoint15set_temperatureESt8optionalIdE
FNDA:0,_ZNK3MAS17PermeabilityPoint13get_toleranceEv
FNDA:0,_ZN3MAS17PermeabilityPoint13set_toleranceESt8optionalIdE
FNDA:0,_ZN3MAS18CllcOperatingPointC2Ev
FNDA:0,_ZNK3MAS17PermeabilityPoint9get_valueEv
FNDA:0,_ZN3MAS17PermeabilityPoint9set_valueERKd
FNDA:0,_ZN3MAS18CllcOperatingPointD0Ev
FNDA:0,_ZN3MAS18CllcOperatingPointD2Ev
FNDA:0,_ZN3MAS23ComplexPermeabilityDataC2Ev
FNDA:0,_ZN3MAS23ComplexPermeabilityDataD0Ev
FNDA:0,_ZN3MAS23ComplexPermeabilityDataD2Ev
FNDA:0,_ZNK3MAS23ComplexPermeabilityData13get_imaginaryEv
FNDA:0,_ZN3MAS23ComplexPermeabilityData13set_imaginaryERKSt7variantIJSt6vectorINS_17PermeabilityPointESaIS3_EES3_EE
FNDA:0,_ZNK3MAS23ComplexPermeabilityData8get_realEv
FNDA:0,_ZN3MAS23ComplexPermeabilityData8set_realERKSt7variantIJSt6vectorINS_17PermeabilityPointESaIS3_EES3_EE
FNDA:1,_ZN3MAS14PermeabilitiesC2Ev
FNDA:0,_ZN3MAS14PermeabilitiesD0Ev
FNDA:1,_ZN3MAS14PermeabilitiesD2Ev
FNDA:0,_ZNK3MAS14Permeabilities13get_amplitudeEv
FNDA:0,_ZN3MAS14Permeabilities13set_amplitudeESt8optionalISt7variantIJSt6vectorINS_17PermeabilityPointESaIS4_EES4_EEE
FNDA:0,_ZNK3MAS14Permeabilities11get_complexEv
FNDA:0,_ZN3MAS14Permeabilities11set_complexESt8optionalINS_23ComplexPermeabilityDataEE
FNDA:0,_ZNK3MAS14Permeabilities11get_initialEv
FNDA:0,_ZN3MAS14Permeabilities11set_initialERKSt7variantIJSt6vectorINS_17PermeabilityPointESaIS3_EES3_EE
FNDA:0,_ZN3MAS27CoreMaterialRecommendationsC2Ev
FNDA:0,_ZN3MAS27CoreMaterialRecommendationsD0Ev
FNDA:0,_ZN3MAS27CoreMaterialRecommendationsD2Ev
FNDA:0,_ZNK3MAS27CoreMaterialRecommendations21get_maximum_frequencyEv
FNDA:0,_ZN3MAS27CoreMaterialRecommendations21set_maximum_frequencyESt8optionalIdE
FNDA:0,_ZNK3MAS27CoreMaterialRecommendations33get_maximum_magnetic_flux_densityEv
FNDA:0,_ZN3MAS27CoreMaterialRecommendations33set_maximum_magnetic_flux_densityESt8optionalIdE
FNDA:0,_ZNK3MAS27CoreMaterialRecommendations33get_maximum_operating_temperatureEv
FNDA:0,_ZN3MAS27CoreMaterialRecommendations33set_maximum_operating_temperatureESt8optionalIdE
FNDA:0,_ZNK3MAS27CoreMaterialRecommendations21get_minimum_frequencyEv
FNDA:0,_ZN3MAS27CoreMaterialRecommendations21set_minimum_frequencyESt8optionalIdE
FNDA:0,_ZNK3MAS27CoreMaterialRecommendations24get_typical_applicationsB5cxx11Ev
FNDA:0,_ZN3MAS27CoreMaterialRecommendations24set_typical_applicationsESt8optionalISt6vectorINSt7__cxx1112basic_stringIcSt11char_traitsIcESaIcEEESaIS8_EEE
FNDA:0,_ZNK3MAS27CoreMaterialRecommendations22get_typical_topologiesB5cxx11Ev
FNDA:0,_ZN3MAS27CoreMaterialRecommendations22set_typical_topologiesESt8optionalISt6vectorINSt7__cxx1112basic_stringIcSt11char_traitsIcESaIcEEESaIS8_EEE
FNDA:0,_ZN3MAS21VolumetricLossesPointC2Ev
FNDA:0,_ZN3MAS21VolumetricLossesPointD0Ev
FNDA:0,_ZN3MAS21VolumetricLossesPointD2Ev
FNDA:0,_ZNK3MAS21VolumetricLossesPoint25get_magnetic_flux_densityEv
FNDA:0,_ZN3MAS21VolumetricLossesPoint25set_magnetic_flux_densityERKNS_24OperatingPointExcitationE
FNDA:0,_ZNK3MAS18CllcOperatingPoint23get_ambient_temperatureEv
FNDA:0,_ZNK3MAS21VolumetricLossesPoint10get_originB5cxx11Ev
FNDA:0,_ZN3MAS21VolumetricLossesPoint10set_originERKNSt7__cxx1112basic_stringIcSt11char_traitsIcESaIcEEE
FNDA:0,_ZNK3MAS21VolumetricLossesPoint15get_temperatureEv
FNDA:0,_ZN3MAS21VolumetricLossesPoint15set_temperatureERKd
FNDA:0,_ZNK3MAS21VolumetricLossesPoint9get_valueEv
FNDA:0,_ZN3MAS18CllcOperatingPoint23set_ambient_temperatureERKd
FNDA:0,_ZN3MAS21VolumetricLossesPoint9set_valueERKd
FNDA:0,_ZN3MAS28RoshenAdditionalCoefficientsC2Ev
FNDA:0,_ZN3MAS28RoshenAdditionalCoefficientsD0Ev
FNDA:0,_ZN3MAS28RoshenAdditionalCoefficientsD2Ev
FNDA:0,_ZNK3MAS28RoshenAdditionalCoefficients29get_excess_losses_coefficientEv
FNDA:0,_ZN3MAS28RoshenAdditionalCoefficients29set_excess_losses_coefficientERKd
FNDA:0,_ZNK3MAS28RoshenAdditionalCoefficients37get_resistivity_frequency_coefficientEv
FNDA:0,_ZN3MAS28RoshenAdditionalCoefficients37set_resistivity_frequency_coefficientERKd
FNDA:0,_ZNK3MAS28RoshenAdditionalCoefficients49get_resistivity_magnetic_flux_density_coefficientEv
FNDA:0,_ZN3MAS28RoshenAdditionalCoefficients49set_resistivity_magnetic_flux_density_coefficientERKd
FNDA:0,_ZNK3MAS28RoshenAdditionalCoefficients22get_resistivity_offsetEv
FNDA:0,_ZN3MAS28RoshenAdditionalCoefficients22set_resistivity_offsetERKd
FNDA:0,_ZNK3MAS28RoshenAdditionalCoefficients39get_resistivity_temperature_coefficientEv
FNDA:0,_ZN3MAS28RoshenAdditionalCoefficients39set_resistivity_temperature_coefficientERKd
FNDA:0,_ZN3MAS15LossFactorPointC2Ev
FNDA:0,_ZN3MAS15LossFactorPointD0Ev
FNDA:0,_ZN3MAS15LossFactorPointD2Ev
FNDA:0,_ZNK3MAS18CllcOperatingPoint19get_output_currentsEv
FNDA:0,_ZNK3MAS15LossFactorPoint13get_frequencyEv
FNDA:0,_ZN3MAS15LossFactorPoint13set_frequencyESt8optionalIdE
FNDA:0,_ZNK3MAS15LossFactorPoint15get_temperatureEv
FNDA:0,_ZN3MAS15LossFactorPoint15set_temperatureESt8optionalIdE
FNDA:0,_ZN3MAS18CllcOperatingPoint19set_output_currentsERKSt6vectorIdSaIdEE
FNDA:0,_ZNK3MAS15LossFactorPoint9get_valueEv
FNDA:0,_ZN3MAS15LossFactorPoint9set_valueERKd
FNDA:0,_ZN3MAS35SteinmetzCoreLossesMethodRangeDatumC2Ev
FNDA:0,_ZN3MAS35SteinmetzCoreLossesMethodRangeDatumD0Ev
FNDA:0,_ZN3MAS35SteinmetzCoreLossesMethodRangeDatumD2Ev
FNDA:0,_ZNK3MAS35SteinmetzCoreLossesMethodRangeDatum9get_alphaEv
FNDA:0,_ZN3MAS35SteinmetzCoreLossesMethodRangeDatum9set_alphaERKd
FNDA:0,_ZNK3MAS35SteinmetzCoreLossesMethodRangeDatum8get_betaEv
FNDA:0,_ZN3MAS35SteinmetzCoreLossesMethodRangeDatum8set_betaERKd
FNDA:0,_ZNK3MAS35SteinmetzCoreLossesMethodRangeDatum7get_ct0Ev
FNDA:0,_ZN3MAS35SteinmetzCoreLossesMethodRangeDatum7set_ct0ESt8optionalIdE
FNDA:0,_ZNK3MAS35SteinmetzCoreLossesMethodRangeDatum7get_ct1Ev
FNDA:0,_ZN3MAS35SteinmetzCoreLossesMethodRangeDatum7set_ct1ESt8optionalIdE
FNDA:0,_ZNK3MAS18CllcOperatingPoint19get_output_voltagesEv
FNDA:0,_ZNK3MAS35SteinmetzCoreLossesMethodRangeDatum7get_ct2Ev
FNDA:0,_ZN3MAS35SteinmetzCoreLossesMethodRangeDatum7set_ct2ESt8optionalIdE
FNDA:0,_ZNK3MAS35SteinmetzCoreLossesMethodRangeDatum5get_kEv
FNDA:0,_ZN3MAS35SteinmetzCoreLossesMethodRangeDatum5set_kERKd
FNDA:0,_ZNK3MAS35SteinmetzCoreLossesMethodRangeDatum21get_maximum_frequencyEv
FNDA:0,_ZN3MAS35SteinmetzCoreLossesMethodRangeDatum21set_maximum_frequencyESt8optionalIdE
FNDA:0,_ZN3MAS18CllcOperatingPoint19set_output_voltagesERKSt6vectorIdSaIdEE
FNDA:0,_ZNK3MAS35SteinmetzCoreLossesMethodRangeDatum21get_minimum_frequencyEv
FNDA:0,_ZN3MAS35SteinmetzCoreLossesMethodRangeDatum21set_minimum_frequencyESt8optionalIdE
FNDA:0,_ZN3MAS20CoreLossesMethodDataC2Ev
FNDA:0,_ZN3MAS20CoreLossesMethodDataD0Ev
FNDA:0,_ZN3MAS20CoreLossesMethodDataD2Ev
FNDA:0,_ZNK3MAS20CoreLossesMethodData10get_methodEv
FNDA:0,_ZN3MAS20CoreLossesMethodData10set_methodERKNS_30VolumetricCoreLossesMethodTypeE
FNDA:0,_ZNK3MAS20CoreLossesMethodData10get_rangesEv
FNDA:0,_ZN3MAS20CoreLossesMethodData10set_rangesESt8optionalISt6vectorINS_35SteinmetzCoreLossesMethodRangeDatumESaIS3_EEE
FNDA:0,_ZNK3MAS18CllcOperatingPoint14get_power_flowEv
FNDA:0,_ZNK3MAS20CoreLossesMethodData16get_coefficientsEv
FNDA:0,_ZN3MAS20CoreLossesMethodData16set_coefficientsESt8optionalINS_28RoshenAdditionalCoefficientsEE
FNDA:0,_ZNK3MAS20CoreLossesMethodData31get_reference_volumetric_lossesEv
FNDA:0,_ZN3MAS20CoreLossesMethodData31set_reference_volumetric_lossesESt8optionalISt6vectorINS_21VolumetricLossesPointESaIS3_EEE
FNDA:0,_ZNK3MAS20CoreLossesMethodData5get_aEv
FNDA:0,_ZN3MAS20CoreLossesMethodData5set_aESt8optionalIdE
FNDA:0,_ZNK3MAS20CoreLossesMethodData5get_bEv
FNDA:0,_ZN3MAS20CoreLossesMethodData5set_bESt8optionalIdE
FNDA:0,_ZNK3MAS20CoreLossesMethodData5get_cEv
FNDA:0,_ZN3MAS20CoreLossesMethodData5set_cESt8optionalIdE
FNDA:0,_ZNK3MAS20CoreLossesMethodData5get_dEv
FNDA:0,_ZN3MAS18CllcOperatingPoint14set_power_flowERKNS_13CllcPowerFlowE
FNDA:0,_ZN3MAS20CoreLossesMethodData5set_dESt8optionalIdE
FNDA:0,_ZNK3MAS20CoreLossesMethodData11get_factorsEv
FNDA:0,_ZN3MAS20CoreLossesMethodData11set_factorsESt8optionalISt6vectorINS_15LossFactorPointESaIS3_EEE
FNDA:1,_ZN3MAS12CoreMaterialC2Ev
FNDA:0,_ZN3MAS12CoreMaterialD0Ev
FNDA:1,_ZN3MAS12CoreMaterialD2Ev
FNDA:0,_ZNK3MAS12CoreMaterial16get_alternativesB5cxx11Ev
FNDA:0,_ZN3MAS12CoreMaterial16set_alternativesESt8optionalISt6vectorINSt7__cxx1112basic_stringIcSt11char_traitsIcESaIcEEESaIS8_EEE
FNDA:0,_ZNK3MAS12CoreMaterial15get_applicationEv
FNDA:0,_ZN3MAS12CoreMaterial15set_applicationESt8optionalINS_11ApplicationEE
FNDA:0,_ZNK3MAS18CllcOperatingPoint23get_switching_frequencyEv
FNDA:0,_ZNK3MAS12CoreMaterial12get_bh_cycleEv
FNDA:0,_ZN3MAS12CoreMaterial12set_bh_cycleESt8optionalISt6vectorINS_14BhCycleElementESaIS3_EEE
FNDA:0,_ZNK3MAS12CoreMaterial18get_coercive_forceEv
FNDA:0,_ZN3MAS12CoreMaterial18set_coercive_forceESt8optionalISt6vectorINS_14BhCycleElementESaIS3_EEE
FNDA:0,_ZNK3MAS12CoreMaterial19get_commercial_nameB5cxx11Ev
FNDA:0,_ZN3MAS12CoreMaterial19set_commercial_nameESt8optionalINSt7__cxx1112basic_stringIcSt11char_traitsIcESaIcEEEE
FNDA:0,_ZNK3MAS12CoreMaterial21get_curie_temperatureEv
FNDA:0,_ZN3MAS12CoreMaterial21set_curie_temperatureESt8optionalIdE
FNDA:0,_ZN3MAS18CllcOperatingPoint23set_switching_frequencyERKd
FNDA:0,_ZNK3MAS12CoreMaterial11get_densityEv
FNDA:0,_ZN3MAS12CoreMaterial11set_densityESt8optionalIdE
FNDA:0,_ZNK3MAS12CoreMaterial10get_familyB5cxx11Ev
FNDA:0,_ZN3MAS12CoreMaterial10set_familyESt8optionalINSt7__cxx1112basic_stringIcSt11char_traitsIcESaIcEEEE
FNDA:0,_ZNK3MAS12CoreMaterial17get_heat_capacityEv
FNDA:0,_ZN3MAS12CoreMaterial17set_heat_capacityESt8optionalINS_22DimensionWithToleranceEE
FNDA:0,_ZNK3MAS12CoreMaterial21get_heat_conductivityEv
FNDA:0,_ZN3MAS12CoreMaterial21set_heat_conductivityESt8optionalINS_22DimensionWithToleranceEE
FNDA:0,_ZNK3MAS12CoreMaterial21get_manufacturer_infoEv
FNDA:0,_ZN3MAS12CoreMaterial21set_manufacturer_infoERKNS_16ManufacturerInfoE
FNDA:0,_ZNK3MAS12CoreMaterial15get_mass_lossesB5cxx11Ev
FNDA:0,_ZN3MAS12CoreMaterial15set_mass_lossesESt8optionalISt3mapINSt7__cxx1112basic_stringIcSt11char_traitsIcESaIcEEESt6vectorISt7variantIJS9_INS_15MassLossesPointESaISB_EENS_28MagnetecCoreLossesMethodDataEEESaISF_EESt4lessIS8_ESaISt4pairIKS8_SH_EEEE
FNDA:0,_ZNK3MAS12CoreMaterial12get_materialEv
FNDA:0,_ZN3MAS12CoreMaterial12set_materialERKNS_12MaterialTypeE
FNDA:0,_ZNK3MAS12CoreMaterial24get_material_compositionEv
FNDA:0,_ZN3MAS12CoreMaterial24set_material_compositionESt8optionalINS_19MaterialCompositionEE
FNDA:0,_ZNK3MAS12CoreMaterial8get_nameB5cxx11Ev
FNDA:0,_ZN3MAS12CoreMaterial8set_nameERKNSt7__cxx1112basic_stringIcSt11char_traitsIcESaIcEEE
FNDA:0,_ZNK3MAS12CoreMaterial16get_permeabilityEv
FNDA:0,_ZN3MAS12CoreMaterial24get_mutable_permeabilityEv
FNDA:0,_ZN3MAS12CoreMaterial16set_permeabilityERKNS_14PermeabilitiesE
FNDA:0,_ZNK3MAS12CoreMaterial19get_recommendationsEv
FNDA:0,_ZN3MAS12CoreMaterial19set_recommendationsESt8optionalINS_27CoreMaterialRecommendationsEE
FNDA:0,_ZNK3MAS12CoreMaterial13get_remanenceEv
FNDA:0,_ZN3MAS12CoreMaterial13set_remanenceESt8optionalISt6vectorINS_14BhCycleElementESaIS3_EEE
FNDA:0,_ZNK3MAS12CoreMaterial15get_resistivityEv
FNDA:0,_ZN3MAS12CoreMaterial15set_resistivityERKSt6vectorINS_16ResistivityPointESaIS2_EE
FNDA:0,_ZN3MAS12CllcResonantC2Ev
FNDA:0,_ZNK3MAS12CoreMaterial14get_saturationEv
FNDA:0,_ZN3MAS12CoreMaterial14set_saturationERKSt6vectorINS_14BhCycleElementESaIS2_EE
FNDA:0,_ZN3MAS12CllcResonantD0Ev
FNDA:0,_ZN3MAS12CllcResonantD2Ev
FNDA:0,_ZNK3MAS12CoreMaterial8get_typeEv
FNDA:0,_ZN3MAS12CoreMaterial8set_typeERKNS_16CoreMaterialTypeE
FNDA:0,_ZNK3MAS12CoreMaterial21get_volumetric_lossesB5cxx11Ev
FNDA:0,_ZN3MAS12CoreMaterial29get_mutable_volumetric_lossesB5cxx11Ev
FNDA:0,_ZN3MAS12CoreMaterial21set_volumetric_lossesERKSt3mapINSt7__cxx1112basic_stringIcSt11char_traitsIcESaIcEEESt6vectorISt7variantIJS8_INS_21VolumetricLossesPointESaISA_EENS_20CoreLossesMethodDataEEESaISE_EESt4lessIS7_ESaISt4pairIKS7_SG_EEE
FNDA:1,_ZN3MAS9CoreShapeC2Ev
FNDA:0,_ZN3MAS9CoreShapeD0Ev
FNDA:1,_ZN3MAS9CoreShapeD2Ev
FNDA:0,_ZNK3MAS9CoreShape11get_aliasesB5cxx11Ev
FNDA:0,_ZN3MAS9CoreShape11set_aliasesESt8optionalISt6vectorINSt7__cxx1112basic_stringIcSt11char_traitsIcESaIcEEESaIS8_EEE
FNDA:0,_ZNK3MAS9CoreShape14get_dimensionsB5cxx11Ev
FNDA:0,_ZN3MAS9CoreShape14set_dimensionsESt8optionalISt3mapINSt7__cxx1112basic_stringIcSt11char_traitsIcESaIcEEESt7variantIJNS_22DimensionWithToleranceEdEESt4lessIS8_ESaISt4pairIKS8_SB_EEEE
FNDA:0,_ZNK3MAS9CoreShape10get_familyEv
FNDA:0,_ZN3MAS9CoreShape10set_familyERKNS_15CoreShapeFamilyE
FNDA:0,_ZNK3MAS9CoreShape18get_family_subtypeB5cxx11Ev
FNDA:0,_ZN3MAS9CoreShape18set_family_subtypeESt8optionalINSt7__cxx1112basic_stringIcSt11char_traitsIcESaIcEEEE
FNDA:0,_ZNK3MAS9CoreShape20get_magnetic_circuitEv
FNDA:0,_ZN3MAS9CoreShape20set_magnetic_circuitESt8optionalINS_15MagneticCircuitEE
FNDA:0,_ZNK3MAS9CoreShape8get_nameB5cxx11Ev
FNDA:0,_ZN3MAS9CoreShape8set_nameESt8optionalINSt7__cxx1112basic_stringIcSt11char_traitsIcESaIcEEEE
FNDA:0,_ZNK3MAS9CoreShape8get_typeEv
FNDA:0,_ZN3MAS9CoreShape8set_typeERKNS_25FunctionalDescriptionTypeE
FNDA:1,_ZN3MAS25CoreFunctionalDescriptionC2Ev
FNDA:0,_ZN3MAS25CoreFunctionalDescriptionD0Ev
FNDA:1,_ZN3MAS25CoreFunctionalDescriptionD2Ev
FNDA:0,_ZNK3MAS25CoreFunctionalDescription11get_coatingEv
FNDA:0,_ZN3MAS25CoreFunctionalDescription11set_coatingESt8optionalINS_7CoatingEE
FNDA:0,_ZNK3MAS25CoreFunctionalDescription11get_gappingEv
FNDA:0,_ZN3MAS25CoreFunctionalDescription19get_mutable_gappingEv
FNDA:0,_ZN3MAS25CoreFunctionalDescription11set_gappingERKSt6vectorINS_7CoreGapESaIS2_EE
FNDA:0,_ZNK3MAS25CoreFunctionalDescription12get_materialB5cxx11Ev
FNDA:0,_ZN3MAS25CoreFunctionalDescription20get_mutable_materialB5cxx11Ev
FNDA:0,_ZN3MAS25CoreFunctionalDescription12set_materialERKSt7variantIJNS_12CoreMaterialENSt7__cxx1112basic_stringIcSt11char_traitsIcESaIcEEEEE
FNDA:0,_ZNK3MAS25CoreFunctionalDescription17get_number_stacksEv
FNDA:0,_ZN3MAS25CoreFunctionalDescription17set_number_stacksESt8optionalIlE
FNDA:0,_ZNK3MAS25CoreFunctionalDescription9get_shapeB5cxx11Ev
FNDA:0,_ZN3MAS25CoreFunctionalDescription9set_shapeERKSt7variantIJNS_9CoreShapeENSt7__cxx1112basic_stringIcSt11char_traitsIcESaIcEEEEE
FNDA:0,_ZNK3MAS25CoreFunctionalDescription8get_typeEv
FNDA:0,_ZN3MAS25CoreFunctionalDescription8set_typeERKNS_8CoreTypeE
FNDA:0,_ZN3MAS9MachiningC2Ev
FNDA:0,_ZN3MAS9MachiningD0Ev
FNDA:0,_ZN3MAS9MachiningD2Ev
FNDA:0,_ZN3MAS12CllcResonant17set_bidirectionalESt8optionalIbE
FNDA:0,_ZNK3MAS9Machining15get_coordinatesEv
FNDA:0,_ZN3MAS9Machining23get_mutable_coordinatesEv
FNDA:0,_ZN3MAS9Machining15set_coordinatesERKSt6vectorIdSaIdEE
FNDA:0,_ZNK3MAS9Machining10get_lengthEv
FNDA:0,_ZN3MAS9Machining10set_lengthERKd
FNDA:0,_ZN3MAS33CoreGeometricalDescriptionElementC2Ev
FNDA:0,_ZN3MAS33CoreGeometricalDescriptionElementD0Ev
FNDA:0,_ZN3MAS33CoreGeometricalDescriptionElementD2Ev
FNDA:0,_ZNK3MAS33CoreGeometricalDescriptionElement15get_coordinatesEv
FNDA:0,_ZNK3MAS12CllcResonant14get_efficiencyEv
FNDA:0,_ZN3MAS33CoreGeometricalDescriptionElement15set_coordinatesERKSt6vectorIdSaIdEE
FNDA:0,_ZNK3MAS33CoreGeometricalDescriptionElement13get_machiningEv
FNDA:0,_ZN3MAS33CoreGeometricalDescriptionElement13set_machiningESt8optionalISt6vectorINS_9MachiningESaIS3_EEE
FNDA:0,_ZNK3MAS33CoreGeometricalDescriptionElement12get_materialB5cxx11Ev
FNDA:0,_ZN3MAS33CoreGeometricalDescriptionElement12set_materialESt8optionalISt7variantIJNS_12CoreMaterialENSt7__cxx1112basic_stringIcSt11char_traitsIcESaIcEEEEEE
FNDA:0,_ZN3MAS12CllcResonant14set_efficiencyESt8optionalIdE
FNDA:0,_ZNK3MAS33CoreGeometricalDescriptionElement12get_rotationEv
FNDA:0,_ZN3MAS33CoreGeometricalDescriptionElement12set_rotationESt8optionalISt6vectorIdSaIdEEE
FNDA:0,_ZNK3MAS33CoreGeometricalDescriptionElement9get_shapeB5cxx11Ev
FNDA:0,_ZN3MAS33CoreGeometricalDescriptionElement9set_shapeESt8optionalISt7variantIJNS_9CoreShapeENSt7__cxx1112basic_stringIcSt11char_traitsIcESaIcEEEEEE
FNDA:0,_ZNK3MAS33CoreGeometricalDescriptionElement8get_typeEv
FNDA:0,_ZN3MAS33CoreGeometricalDescriptionElement8set_typeERKNS_37CoreGeometricalDescriptionElementTypeE
FNDA:0,_ZNK3MAS33CoreGeometricalDescriptionElement14get_dimensionsEv
FNDA:0,_ZN3MAS33CoreGeometricalDescriptionElement14set_dimensionsESt8optionalISt6vectorIdSaIdEEE
FNDA:0,_ZNK3MAS33CoreGeometricalDescriptionElement23get_insulation_materialB5cxx11Ev
FNDA:0,_ZN3MAS33CoreGeometricalDescriptionElement23set_insulation_materialESt8optionalISt7variantIJNS_18InsulationMaterialENSt7__cxx1112basic_stringIcSt11char_traitsIcESaIcEEEEEE
FNDA:0,_ZN3MAS13ColumnElementC2Ev
FNDA:0,_ZN3MAS13ColumnElementD0Ev
FNDA:0,_ZN3MAS13ColumnElementD2Ev
FNDA:0,_ZNK3MAS12CllcResonant17get_input_voltageEv
FNDA:0,_ZNK3MAS13ColumnElement8get_areaEv
FNDA:0,_ZN3MAS13ColumnElement8set_areaERKd
FNDA:0,_ZNK3MAS13ColumnElement15get_coordinatesEv
FNDA:0,_ZN3MAS12CllcResonant17set_input_voltageERKNS_22DimensionWithToleranceE
FNDA:0,_ZN3MAS13ColumnElement15set_coordinatesERKSt6vectorIdSaIdEE
FNDA:0,_ZNK3MAS13ColumnElement9get_depthEv
FNDA:0,_ZN3MAS13ColumnElement9set_depthERKd
FNDA:0,_ZNK3MAS13ColumnElement10get_heightEv
FNDA:0,_ZN3MAS13ColumnElement10set_heightERKd
FNDA:0,_ZNK3MAS13ColumnElement17get_minimum_depthEv
FNDA:0,_ZN3MAS13ColumnElement17set_minimum_depthESt8optionalIdE
FNDA:0,_ZNK3MAS13ColumnElement17get_minimum_widthEv
FNDA:0,_ZN3MAS13ColumnElement17set_minimum_widthESt8optionalIdE
FNDA:0,_ZNK3MAS13ColumnElement9get_shapeEv
FNDA:0,_ZN3MAS13ColumnElement9set_shapeERKNS_11ColumnShapeE
FNDA:0,_ZNK3MAS13ColumnElement8get_typeEv
FNDA:0,_ZN3MAS13ColumnElement8set_typeERKNS_10ColumnTypeE
FNDA:0,_ZNK3MAS13ColumnElement9get_widthEv
FNDA:0,_ZN3MAS13ColumnElement9set_widthERKd
FNDA:0,_ZNK3MAS12CllcResonant27get_max_switching_frequencyEv
FNDA:0,_ZN3MAS19EffectiveParametersC2Ev
FNDA:0,_ZN3MAS19EffectiveParametersD0Ev
FNDA:0,_ZN3MAS19EffectiveParametersD2Ev
FNDA:0,_ZNK3MAS19EffectiveParameters18get_effective_areaEv
FNDA:0,_ZN3MAS19EffectiveParameters18set_effective_areaERKd
FNDA:0,_ZN3MAS12CllcResonant27set_max_switching_frequencyERKd
FNDA:0,_ZNK3MAS19EffectiveParameters20get_effective_lengthEv
FNDA:0,_ZN3MAS19EffectiveParameters20set_effective_lengthERKd
FNDA:0,_ZNK3MAS19EffectiveParameters20get_effective_volumeEv
FNDA:0,_ZN3MAS19EffectiveParameters20set_effective_volumeERKd
FNDA:0,_ZNK3MAS19EffectiveParameters16get_minimum_areaEv
FNDA:0,_ZN3MAS19EffectiveParameters16set_minimum_areaERKd
FNDA:0,_ZN3MAS24CoreProcessedDescriptionC2Ev
FNDA:0,_ZN3MAS24CoreProcessedDescriptionD0Ev
FNDA:0,_ZN3MAS24CoreProcessedDescriptionD2Ev
FNDA:0,_ZNK3MAS24CoreProcessedDescription11get_columnsEv
FNDA:0,_ZN3MAS24CoreProcessedDescription19get_mutable_columnsEv
FNDA:0,_ZN3MAS24CoreProcessedDescription11set_columnsERKSt6vectorINS_13ColumnElementESaIS2_EE
FNDA:0,_ZNK3MAS12CllcResonant27get_min_switching_frequencyEv
FNDA:0,_ZNK3MAS24CoreProcessedDescription9get_depthEv
FNDA:0,_ZN3MAS24CoreProcessedDescription9set_depthERKd
FNDA:0,_ZNK3MAS24CoreProcessedDescription24get_effective_parametersEv
FNDA:0,_ZN3MAS24CoreProcessedDescription32get_mutable_effective_parametersEv
FNDA:0,_ZN3MAS24CoreProcessedDescription24set_effective_parametersERKNS_19EffectiveParametersE
FNDA:0,_ZNK3MAS24CoreProcessedDescription10get_heightEv
FNDA:0,_ZN3MAS24CoreProcessedDescription10set_heightERKd
FNDA:0,_ZN3MAS12CllcResonant27set_min_switching_frequencyERKd
FNDA:0,_ZNK3MAS24CoreProcessedDescription22get_thermal_resistanceEv
FNDA:0,_ZN3MAS24CoreProcessedDescription22set_thermal_resistanceESt8optionalIdE
FNDA:0,_ZNK3MAS24CoreProcessedDescription9get_widthEv
FNDA:0,_ZN3MAS24CoreProcessedDescription9set_widthERKd
FNDA:0,_ZNK3MAS24CoreProcessedDescription19get_winding_windowsEv
FNDA:0,_ZN3MAS24CoreProcessedDescription27get_mutable_winding_windowsEv
FNDA:0,_ZN3MAS24CoreProcessedDescription19set_winding_windowsERKSt6vectorINS_20WindingWindowElementESaIS2_EE
FNDA:1,_ZN3MAS12MagneticCoreC2Ev
FNDA:0,_ZN3MAS12MagneticCoreD0Ev
FNDA:1,_ZN3MAS12MagneticCoreD2Ev
FNDA:0,_ZNK3MAS12MagneticCore21get_distributors_infoEv
FNDA:0,_ZN3MAS12MagneticCore21set_distributors_infoESt8optionalISt6vectorINS_15DistributorInfoESaIS3_EEE
FNDA:0,_ZNK3MAS12MagneticCore26get_functional_descriptionEv
FNDA:0,_ZN3MAS12MagneticCore34get_mutable_functional_descriptionEv
FNDA:0,_ZN3MAS12MagneticCore26set_functional_descriptionERKNS_25CoreFunctionalDescriptionE
FNDA:0,_ZNK3MAS12CllcResonant20get_operating_pointsEv
FNDA:0,_ZNK3MAS12MagneticCore27get_geometrical_descriptionEv
FNDA:0,_ZN3MAS12MagneticCore27set_geometrical_descriptionESt8optionalISt6vectorINS_33CoreGeometricalDescriptionElementESaIS3_EEE
FNDA:0,_ZNK3MAS12MagneticCore21get_manufacturer_infoEv
FNDA:0,_ZN3MAS12MagneticCore21set_manufacturer_infoESt8optionalINS_16ManufacturerInfoEE
FNDA:0,_ZNK3MAS12MagneticCore8get_nameB5cxx11Ev
FNDA:0,_ZN3MAS12MagneticCore8set_nameESt8optionalINSt7__cxx1112basic_stringIcSt11char_traitsIcESaIcEEEE
FNDA:0,_ZN3MAS12CllcResonant20set_operating_pointsERKSt6vectorINS_18CllcOperatingPointESaIS2_EE
FNDA:0,_ZNK3MAS12MagneticCore25get_processed_descriptionEv
FNDA:0,_ZN3MAS12MagneticCore25set_processed_descriptionESt8optionalINS_24CoreProcessedDescriptionEE
FNDA:0,_ZN3MAS35MagneticManufacturerRecommendationsC2Ev
FNDA:0,_ZN3MAS35MagneticManufacturerRecommendationsD0Ev
FNDA:0,_ZN3MAS35MagneticManufacturerRecommendationsD2Ev
FNDA:0,_ZNK3MAS35MagneticManufacturerRecommendations14get_dimensionsEv
FNDA:0,_ZN3MAS35MagneticManufacturerRecommendations14set_dimensionsESt8optionalISt6vectorIdSaIdEEE
